
target/deploy/openbook_v2.so:	file format elf64-bpf

Disassembly of section .text:

0000000000000120 <.text>:
      36:	7b 4a 80 ff 00 00 00 00	stxdw [r10 - 128], r4
      37:	bf 39 00 00 00 00 00 00	mov64 r9, r3
      38:	bf 26 00 00 00 00 00 00	mov64 r6, r2
      39:	7b 1a 78 ff 00 00 00 00	stxdw [r10 - 136], r1
      40:	79 68 00 00 00 00 00 00	ldxdw r8, [r6 + 0]
      41:	15 08 1d 00 03 00 00 00	jeq r8, 3, +29 <.text+0x118>
      42:	b7 01 00 00 01 00 00 00	mov64 r1, 1
      43:	7b 1a a0 ff 00 00 00 00	stxdw [r10 - 96], r1
      44:	b7 01 00 00 00 00 00 00	mov64 r1, 0
      45:	7b 1a a8 ff 00 00 00 00	stxdw [r10 - 88], r1
      46:	7b 1a b0 ff 00 00 00 00	stxdw [r10 - 80], r1
      47:	bf a7 00 00 00 00 00 00	mov64 r7, r10
      48:	07 07 00 00 b8 ff ff ff	add64 r7, -72
      49:	bf a2 00 00 00 00 00 00	mov64 r2, r10
      50:	07 02 00 00 a0 ff ff ff	add64 r2, -96
      51:	bf 71 00 00 00 00 00 00	mov64 r1, r7
      52:	18 03 00 00 b0 79 02 00 00 00 00 00 00 00 00 00	lddw r3, 162224
      54:	85 10 00 00 ee 3b 00 00	call 15342
      55:	bf 91 00 00 00 00 00 00	mov64 r1, r9
      56:	79 a2 80 ff 00 00 00 00	ldxdw r2, [r10 - 128]
      57:	bf 73 00 00 00 00 00 00	mov64 r3, r7
      58:	85 10 00 00 a8 3f 00 00	call 16296
      59:	15 00 1e 00 00 00 00 00	jeq r0, 0, +30 <.text+0x1b0>
      60:	bf a3 00 00 00 00 00 00	mov64 r3, r10
      61:	07 03 00 00 f8 ff ff ff	add64 r3, -8
      62:	18 01 00 00 01 52 02 00 00 00 00 00 00 00 00 00	lddw r1, 152065
      64:	b7 02 00 00 37 00 00 00	mov64 r2, 55
      65:	18 04 00 00 e0 79 02 00 00 00 00 00 00 00 00 00	lddw r4, 162272
      67:	18 05 00 00 00 7a 02 00 00 00 00 00 00 00 00 00	lddw r5, 162304
      69:	85 10 00 00 4f 39 00 00	call 14671
      70:	85 10 00 00 ff ff ff ff	call -1
      71:	b7 01 00 00 01 00 00 00	mov64 r1, 1
      72:	7b 1a a0 ff 00 00 00 00	stxdw [r10 - 96], r1
      73:	b7 01 00 00 00 00 00 00	mov64 r1, 0
      74:	7b 1a a8 ff 00 00 00 00	stxdw [r10 - 88], r1
      75:	7b 1a b0 ff 00 00 00 00	stxdw [r10 - 80], r1
      76:	bf a7 00 00 00 00 00 00	mov64 r7, r10
      77:	07 07 00 00 b8 ff ff ff	add64 r7, -72
      78:	bf a2 00 00 00 00 00 00	mov64 r2, r10
      79:	07 02 00 00 a0 ff ff ff	add64 r2, -96
      80:	bf 71 00 00 00 00 00 00	mov64 r1, r7
      81:	18 03 00 00 b0 79 02 00 00 00 00 00 00 00 00 00	lddw r3, 162224
      83:	85 10 00 00 d1 3b 00 00	call 15313
      84:	bf 91 00 00 00 00 00 00	mov64 r1, r9
      85:	79 a2 80 ff 00 00 00 00	ldxdw r2, [r10 - 128]
      86:	bf 73 00 00 00 00 00 00	mov64 r3, r7
      87:	85 10 00 00 8b 3f 00 00	call 16267
      88:	15 00 11 00 00 00 00 00	jeq r0, 0, +17 <.text+0x230>
      89:	05 00 e2 ff 00 00 00 00	ja -30 <.text+0xc0>
      90:	79 a1 b0 ff 00 00 00 00	ldxdw r1, [r10 - 80]
      91:	7b 1a 98 ff 00 00 00 00	stxdw [r10 - 104], r1
      92:	79 a1 a8 ff 00 00 00 00	ldxdw r1, [r10 - 88]
      93:	7b 1a 90 ff 00 00 00 00	stxdw [r10 - 112], r1
      94:	79 a1 a0 ff 00 00 00 00	ldxdw r1, [r10 - 96]
      95:	7b 1a 88 ff 00 00 00 00	stxdw [r10 - 120], r1
      96:	15 08 00 00 02 00 00 00	jeq r8, 2, +0 <.text+0x1e8>
      97:	b7 01 00 00 01 00 00 00	mov64 r1, 1
      98:	7b 16 00 00 00 00 00 00	stxdw [r6 + 0], r1
      99:	79 a1 88 ff 00 00 00 00	ldxdw r1, [r10 - 120]
     100:	7b 16 08 00 00 00 00 00	stxdw [r6 + 8], r1
     101:	79 a1 90 ff 00 00 00 00	ldxdw r1, [r10 - 112]
     102:	7b 16 10 00 00 00 00 00	stxdw [r6 + 16], r1
     103:	79 a1 98 ff 00 00 00 00	ldxdw r1, [r10 - 104]
     104:	7b 16 18 00 00 00 00 00	stxdw [r6 + 24], r1
     105:	05 00 10 00 00 00 00 00	ja +16 <.text+0x2b0>
     106:	79 a1 b0 ff 00 00 00 00	ldxdw r1, [r10 - 80]
     107:	7b 1a 98 ff 00 00 00 00	stxdw [r10 - 104], r1
     108:	79 a1 a8 ff 00 00 00 00	ldxdw r1, [r10 - 88]
     109:	7b 1a 90 ff 00 00 00 00	stxdw [r10 - 112], r1
     110:	79 a1 a0 ff 00 00 00 00	ldxdw r1, [r10 - 96]
     111:	7b 1a 88 ff 00 00 00 00	stxdw [r10 - 120], r1
     112:	79 61 08 00 00 00 00 00	ldxdw r1, [r6 + 8]
     113:	15 01 00 00 02 00 00 00	jeq r1, 2, +0 <.text+0x270>
     114:	b7 01 00 00 01 00 00 00	mov64 r1, 1
     115:	7b 16 08 00 00 00 00 00	stxdw [r6 + 8], r1
     116:	79 a1 88 ff 00 00 00 00	ldxdw r1, [r10 - 120]
     117:	7b 16 10 00 00 00 00 00	stxdw [r6 + 16], r1
     118:	79 a1 90 ff 00 00 00 00	ldxdw r1, [r10 - 112]
     119:	7b 16 18 00 00 00 00 00	stxdw [r6 + 24], r1
     120:	79 a1 98 ff 00 00 00 00	ldxdw r1, [r10 - 104]
     121:	7b 16 20 00 00 00 00 00	stxdw [r6 + 32], r1
     122:	79 a1 78 ff 00 00 00 00	ldxdw r1, [r10 - 136]
     123:	bf 62 00 00 00 00 00 00	mov64 r2, r6
     124:	b7 03 00 00 a0 00 00 00	mov64 r3, 160
     125:	85 10 00 00 1c 47 00 00	call 18204
     126:	95 00 00 00 00 00 00 00	exit
     127:	bf 16 00 00 00 00 00 00	mov64 r6, r1
     128:	79 28 18 00 00 00 00 00	ldxdw r8, [r2 + 24]
     129:	79 81 00 00 00 00 00 00	ldxdw r1, [r8 + 0]
     130:	18 03 00 00 d6 b0 d3 bf 00 00 00 00 4a be e2 d0	lddw r3, -3394941940828753706
     132:	1d 31 02 00 00 00 00 00	jeq r1, r3, +2 <.text+0x318>
     133:	b7 01 00 00 01 00 00 00	mov64 r1, 1
     134:	05 00 0d 00 00 00 00 00	ja +13 <.text+0x380>
     135:	79 81 08 00 00 00 00 00	ldxdw r1, [r8 + 8]
     136:	18 03 00 00 e8 e3 2a 70 00 00 00 00 f1 c9 b5 b9	lddw r3, -5064920167102094360
     138:	5d 31 fa ff 00 00 00 00	jne r1, r3, -6 <.text+0x308>
     139:	79 81 10 00 00 00 00 00	ldxdw r1, [r8 + 16]
     140:	18 03 00 00 2f 6f ae 91 00 00 00 00 41 91 14 ce	lddw r3, -3597090491559153873
     142:	5d 31 f6 ff 00 00 00 00	jne r1, r3, -10 <.text+0x308>
     143:	b7 01 00 00 00 00 00 00	mov64 r1, 0
     144:	79 83 18 00 00 00 00 00	ldxdw r3, [r8 + 24]
     145:	18 04 00 00 52 9c 17 67 00 00 00 00 1a 97 e6 f6	lddw r4, -655670556081284014
     147:	5d 43 f1 ff 00 00 00 00	jne r3, r4, -15 <.text+0x308>
     148:	55 01 0b 00 00 00 00 00	jne r1, 0, +11 <.text+0x3e0>
     149:	79 21 08 00 00 00 00 00	ldxdw r1, [r2 + 8]
     150:	79 14 00 00 00 00 00 00	ldxdw r4, [r1 + 0]
     151:	07 04 00 00 01 00 00 00	add64 r4, 1
     152:	b7 05 00 00 01 00 00 00	mov64 r5, 1
     153:	15 04 01 00 00 00 00 00	jeq r4, 0, +1 <.text+0x3b8>
     154:	b7 05 00 00 00 00 00 00	mov64 r5, 0
     155:	79 23 00 00 00 00 00 00	ldxdw r3, [r2 + 0]
     156:	7b 41 00 00 00 00 00 00	stxdw [r1 + 0], r4
     157:	55 05 21 00 01 00 00 00	jne r5, 1, +33 <.text+0x4d8>
     158:	85 10 00 00 ff ff ff ff	call -1
     159:	85 10 00 00 ff ff ff ff	call -1
     160:	bf a7 00 00 00 00 00 00	mov64 r7, r10
     161:	07 07 00 00 20 ff ff ff	add64 r7, -224
     162:	bf 71 00 00 00 00 00 00	mov64 r1, r7
     163:	b7 02 00 00 bf 0b 00 00	mov64 r2, 3007
     164:	85 10 00 00 1d 24 00 00	call 9245
     165:	79 81 18 00 00 00 00 00	ldxdw r1, [r8 + 24]
     166:	7b 1a d8 ff 00 00 00 00	stxdw [r10 - 40], r1
     167:	79 81 10 00 00 00 00 00	ldxdw r1, [r8 + 16]
     168:	7b 1a d0 ff 00 00 00 00	stxdw [r10 - 48], r1
     169:	79 81 08 00 00 00 00 00	ldxdw r1, [r8 + 8]
     170:	7b 1a c8 ff 00 00 00 00	stxdw [r10 - 56], r1
     171:	79 81 00 00 00 00 00 00	ldxdw r1, [r8 + 0]
     172:	7b 1a c0 ff 00 00 00 00	stxdw [r10 - 64], r1
     173:	18 01 00 00 d6 b0 d3 bf 00 00 00 00 4a be e2 d0	lddw r1, -3394941940828753706
     175:	7b 1a e0 ff 00 00 00 00	stxdw [r10 - 32], r1
     176:	18 01 00 00 e8 e3 2a 70 00 00 00 00 f1 c9 b5 b9	lddw r1, -5064920167102094360
     178:	7b 1a e8 ff 00 00 00 00	stxdw [r10 - 24], r1
     179:	18 01 00 00 2f 6f ae 91 00 00 00 00 41 91 14 ce	lddw r1, -3597090491559153873
     181:	7b 1a f0 ff 00 00 00 00	stxdw [r10 - 16], r1
     182:	18 01 00 00 52 9c 17 67 00 00 00 00 1a 97 e6 f6	lddw r1, -655670556081284014
     184:	7b 1a f8 ff 00 00 00 00	stxdw [r10 - 8], r1
     185:	bf a3 00 00 00 00 00 00	mov64 r3, r10
     186:	07 03 00 00 c0 ff ff ff	add64 r3, -64
     187:	bf 61 00 00 00 00 00 00	mov64 r1, r6
     188:	bf 72 00 00 00 00 00 00	mov64 r2, r7
     189:	85 10 00 00 b4 1d 00 00	call 7604
     190:	05 00 17 00 00 00 00 00	ja +23 <.text+0x590>
     191:	79 24 10 00 00 00 00 00	ldxdw r4, [r2 + 16]
     192:	79 45 00 00 00 00 00 00	ldxdw r5, [r4 + 0]
     193:	07 05 00 00 01 00 00 00	add64 r5, 1
     194:	b7 00 00 00 01 00 00 00	mov64 r0, 1
     195:	15 05 01 00 00 00 00 00	jeq r5, 0, +1 <.text+0x508>
     196:	b7 00 00 00 00 00 00 00	mov64 r0, 0
     197:	7b 54 00 00 00 00 00 00	stxdw [r4 + 0], r5
     198:	55 00 01 00 01 00 00 00	jne r0, 1, +1 <.text+0x520>
     199:	05 00 d6 ff 00 00 00 00	ja -42 <.text+0x3d0>
     200:	79 25 20 00 00 00 00 00	ldxdw r5, [r2 + 32]
     201:	71 20 28 00 00 00 00 00	ldxb r0, [r2 + 40]
     202:	71 27 29 00 00 00 00 00	ldxb r7, [r2 + 41]
     203:	71 22 2a 00 00 00 00 00	ldxb r2, [r2 + 42]
     204:	73 26 32 00 00 00 00 00	stxb [r6 + 50], r2
     205:	73 76 31 00 00 00 00 00	stxb [r6 + 49], r7
     206:	73 06 30 00 00 00 00 00	stxb [r6 + 48], r0
     207:	7b 56 28 00 00 00 00 00	stxdw [r6 + 40], r5
     208:	7b 86 20 00 00 00 00 00	stxdw [r6 + 32], r8
     209:	7b 46 18 00 00 00 00 00	stxdw [r6 + 24], r4
     210:	7b 16 10 00 00 00 00 00	stxdw [r6 + 16], r1
     211:	7b 36 08 00 00 00 00 00	stxdw [r6 + 8], r3
     212:	b7 01 00 00 04 00 00 00	mov64 r1, 4
     213:	7b 16 00 00 00 00 00 00	stxdw [r6 + 0], r1
     214:	95 00 00 00 00 00 00 00	exit
     215:	bf 27 00 00 00 00 00 00	mov64 r7, r2
     216:	bf 16 00 00 00 00 00 00	mov64 r6, r1
     217:	79 78 18 00 00 00 00 00	ldxdw r8, [r7 + 24]
     218:	79 81 00 00 00 00 00 00	ldxdw r1, [r8 + 0]
     219:	15 01 02 00 00 00 00 00	jeq r1, 0, +2 <.text+0x5d0>
     220:	b7 01 00 00 01 00 00 00	mov64 r1, 1
     221:	05 00 07 00 00 00 00 00	ja +7 <.text+0x608>
     222:	79 81 08 00 00 00 00 00	ldxdw r1, [r8 + 8]
     223:	55 01 fc ff 00 00 00 00	jne r1, 0, -4 <.text+0x5c0>
     224:	79 81 10 00 00 00 00 00	ldxdw r1, [r8 + 16]
     225:	55 01 fa ff 00 00 00 00	jne r1, 0, -6 <.text+0x5c0>
     226:	b7 01 00 00 00 00 00 00	mov64 r1, 0
     227:	79 82 18 00 00 00 00 00	ldxdw r2, [r8 + 24]
     228:	55 02 f7 ff 00 00 00 00	jne r2, 0, -9 <.text+0x5c0>
     229:	55 01 03 00 00 00 00 00	jne r1, 0, +3 <.text+0x628>
     230:	bf 71 00 00 00 00 00 00	mov64 r1, r7
     231:	85 10 00 00 2e 27 00 00	call 10030
     232:	15 00 88 00 00 00 00 00	jeq r0, 0, +136 <.text+0xa68>
     233:	bf a1 00 00 00 00 00 00	mov64 r1, r10
     234:	07 01 00 00 48 ff ff ff	add64 r1, -184
     235:	85 10 00 00 e7 17 00 00	call 6119
     236:	79 81 00 00 00 00 00 00	ldxdw r1, [r8 + 0]
     237:	79 a2 48 ff 00 00 00 00	ldxdw r2, [r10 - 184]
     238:	1d 21 18 00 00 00 00 00	jeq r1, r2, +24 <.text+0x718>
     239:	b7 01 00 00 01 00 00 00	mov64 r1, 1
     240:	15 01 22 00 00 00 00 00	jeq r1, 0, +34 <.text+0x778>
     241:	bf a7 00 00 00 00 00 00	mov64 r7, r10
     242:	07 07 00 00 48 ff ff ff	add64 r7, -184
     243:	bf 71 00 00 00 00 00 00	mov64 r1, r7
     244:	b7 02 00 00 bf 0b 00 00	mov64 r2, 3007
     245:	85 10 00 00 cc 23 00 00	call 9164
     246:	79 81 18 00 00 00 00 00	ldxdw r1, [r8 + 24]
     247:	7b 1a b0 fe 00 00 00 00	stxdw [r10 - 336], r1
     248:	79 81 10 00 00 00 00 00	ldxdw r1, [r8 + 16]
     249:	7b 1a a8 fe 00 00 00 00	stxdw [r10 - 344], r1
     250:	79 81 08 00 00 00 00 00	ldxdw r1, [r8 + 8]
     251:	7b 1a a0 fe 00 00 00 00	stxdw [r10 - 352], r1
     252:	79 81 00 00 00 00 00 00	ldxdw r1, [r8 + 0]
     253:	7b 1a 98 fe 00 00 00 00	stxdw [r10 - 360], r1
     254:	bf a1 00 00 00 00 00 00	mov64 r1, r10
     255:	07 01 00 00 b8 fe ff ff	add64 r1, -328
     256:	85 10 00 00 d2 17 00 00	call 6098
     257:	bf a3 00 00 00 00 00 00	mov64 r3, r10
     258:	07 03 00 00 98 fe ff ff	add64 r3, -360
     259:	bf 61 00 00 00 00 00 00	mov64 r1, r6
     260:	bf 72 00 00 00 00 00 00	mov64 r2, r7
     261:	85 10 00 00 6c 1d 00 00	call 7532
     262:	05 00 6d 00 00 00 00 00	ja +109 <.text+0xa80>
     263:	79 81 08 00 00 00 00 00	ldxdw r1, [r8 + 8]
     264:	79 a2 50 ff 00 00 00 00	ldxdw r2, [r10 - 176]
     265:	5d 21 e5 ff 00 00 00 00	jne r1, r2, -27 <.text+0x658>
     266:	79 81 10 00 00 00 00 00	ldxdw r1, [r8 + 16]
     267:	79 a2 58 ff 00 00 00 00	ldxdw r2, [r10 - 168]
     268:	5d 21 e2 ff 00 00 00 00	jne r1, r2, -30 <.text+0x658>
     269:	b7 01 00 00 00 00 00 00	mov64 r1, 0
     270:	79 82 18 00 00 00 00 00	ldxdw r2, [r8 + 24]
     271:	79 a3 60 ff 00 00 00 00	ldxdw r3, [r10 - 160]
     272:	5d 32 de ff 00 00 00 00	jne r2, r3, -34 <.text+0x658>
     273:	15 01 01 00 00 00 00 00	jeq r1, 0, +1 <.text+0x778>
     274:	05 00 de ff 00 00 00 00	ja -34 <.text+0x668>
     275:	bf a1 00 00 00 00 00 00	mov64 r1, r10
     276:	07 01 00 00 48 ff ff ff	add64 r1, -184
     277:	bf 72 00 00 00 00 00 00	mov64 r2, r7
     278:	85 10 00 00 24 27 00 00	call 10020
     279:	61 a1 48 ff 00 00 00 00	ldxw r1, [r10 - 184]
     280:	15 01 01 00 16 00 00 00	jeq r1, 22, +1 <.text+0x7b0>
     281:	05 00 11 00 00 00 00 00	ja +17 <.text+0x838>
     282:	79 a3 58 ff 00 00 00 00	ldxdw r3, [r10 - 168]
     283:	79 a1 50 ff 00 00 00 00	ldxdw r1, [r10 - 176]
     284:	79 12 00 00 00 00 00 00	ldxdw r2, [r1 + 0]
     285:	79 11 08 00 00 00 00 00	ldxdw r1, [r1 + 8]
     286:	7b 1a 90 fe 00 00 00 00	stxdw [r10 - 368], r1
     287:	7b 2a 88 fe 00 00 00 00	stxdw [r10 - 376], r2
     288:	79 74 08 00 00 00 00 00	ldxdw r4, [r7 + 8]
     289:	79 41 00 00 00 00 00 00	ldxdw r1, [r4 + 0]
     290:	07 01 00 00 01 00 00 00	add64 r1, 1
     291:	b7 02 00 00 01 00 00 00	mov64 r2, 1
     292:	15 01 01 00 00 00 00 00	jeq r1, 0, +1 <.text+0x810>
     293:	b7 02 00 00 00 00 00 00	mov64 r2, 0
     294:	79 75 00 00 00 00 00 00	ldxdw r5, [r7 + 0]
     295:	7b 14 00 00 00 00 00 00	stxdw [r4 + 0], r1
     296:	55 02 10 00 01 00 00 00	jne r2, 1, +16 <.text+0x8a8>
     297:	85 10 00 00 ff ff ff ff	call -1
     298:	85 10 00 00 ff ff ff ff	call -1
     299:	61 a2 4c ff 00 00 00 00	ldxw r2, [r10 - 180]
     300:	79 a3 50 ff 00 00 00 00	ldxdw r3, [r10 - 176]
     301:	79 a4 58 ff 00 00 00 00	ldxdw r4, [r10 - 168]
     302:	79 a5 60 ff 00 00 00 00	ldxdw r5, [r10 - 160]
     303:	7b 5a 60 ff 00 00 00 00	stxdw [r10 - 160], r5
     304:	7b 4a 58 ff 00 00 00 00	stxdw [r10 - 168], r4
     305:	7b 3a 50 ff 00 00 00 00	stxdw [r10 - 176], r3
     306:	63 2a 4c ff 00 00 00 00	stxw [r10 - 180], r2
     307:	63 1a 48 ff 00 00 00 00	stxw [r10 - 184], r1
     308:	bf a2 00 00 00 00 00 00	mov64 r2, r10
     309:	07 02 00 00 48 ff ff ff	add64 r2, -184
     310:	bf 61 00 00 00 00 00 00	mov64 r1, r6
     311:	85 10 00 00 1e 1d 00 00	call 7454
     312:	05 00 3b 00 00 00 00 00	ja +59 <.text+0xa80>
     313:	79 79 10 00 00 00 00 00	ldxdw r9, [r7 + 16]
     314:	79 91 00 00 00 00 00 00	ldxdw r1, [r9 + 0]
     315:	07 01 00 00 01 00 00 00	add64 r1, 1
     316:	b7 02 00 00 01 00 00 00	mov64 r2, 1
     317:	15 01 01 00 00 00 00 00	jeq r1, 0, +1 <.text+0x8d8>
     318:	b7 02 00 00 00 00 00 00	mov64 r2, 0
     319:	7b 5a 70 fe 00 00 00 00	stxdw [r10 - 400], r5
     320:	7b 4a 78 fe 00 00 00 00	stxdw [r10 - 392], r4
     321:	7b 3a 80 fe 00 00 00 00	stxdw [r10 - 384], r3
     322:	7b 19 00 00 00 00 00 00	stxdw [r9 + 0], r1
     323:	55 02 01 00 01 00 00 00	jne r2, 1, +1 <.text+0x908>
     324:	05 00 e4 ff 00 00 00 00	ja -28 <.text+0x828>
     325:	71 71 2a 00 00 00 00 00	ldxb r1, [r7 + 42]
     326:	7b 1a 58 fe 00 00 00 00	stxdw [r10 - 424], r1
     327:	71 71 29 00 00 00 00 00	ldxb r1, [r7 + 41]
     328:	7b 1a 60 fe 00 00 00 00	stxdw [r10 - 416], r1
     329:	71 71 28 00 00 00 00 00	ldxb r1, [r7 + 40]
     330:	7b 1a 68 fe 00 00 00 00	stxdw [r10 - 408], r1
     331:	79 77 20 00 00 00 00 00	ldxdw r7, [r7 + 32]
     332:	bf a1 00 00 00 00 00 00	mov64 r1, r10
     333:	07 01 00 00 48 ff ff ff	add64 r1, -184
     334:	bf a2 00 00 00 00 00 00	mov64 r2, r10
     335:	07 02 00 00 88 fe ff ff	add64 r2, -376
     336:	85 10 00 00 a3 16 00 00	call 5795
     337:	79 a1 48 ff 00 00 00 00	ldxdw r1, [r10 - 184]
     338:	15 01 24 00 00 00 00 00	jeq r1, 0, +36 <.text+0xa98>
     339:	bf a7 00 00 00 00 00 00	mov64 r7, r10
     340:	07 07 00 00 98 fe ff ff	add64 r7, -360
     341:	bf a2 00 00 00 00 00 00	mov64 r2, r10
     342:	07 02 00 00 50 ff ff ff	add64 r2, -176
     343:	bf 71 00 00 00 00 00 00	mov64 r1, r7
     344:	b7 03 00 00 a0 00 00 00	mov64 r3, 160
     345:	85 10 00 00 40 46 00 00	call 17984
     346:	bf 61 00 00 00 00 00 00	mov64 r1, r6
     347:	bf 72 00 00 00 00 00 00	mov64 r2, r7
     348:	b7 03 00 00 a0 00 00 00	mov64 r3, 160
     349:	85 10 00 00 3c 46 00 00	call 17980
     350:	b7 01 00 00 02 00 00 00	mov64 r1, 2
     351:	63 16 b8 00 00 00 00 00	stxw [r6 + 184], r1
     352:	79 a2 78 fe 00 00 00 00	ldxdw r2, [r10 - 392]
     353:	79 21 00 00 00 00 00 00	ldxdw r1, [r2 + 0]
     354:	07 01 00 00 ff ff ff ff	add64 r1, -1
     355:	7b 12 00 00 00 00 00 00	stxdw [r2 + 0], r1
     356:	55 01 03 00 00 00 00 00	jne r1, 0, +3 <.text+0xa20>
     357:	79 21 08 00 00 00 00 00	ldxdw r1, [r2 + 8]
     358:	07 01 00 00 ff ff ff ff	add64 r1, -1
     359:	7b 12 08 00 00 00 00 00	stxdw [r2 + 8], r1
     360:	79 91 00 00 00 00 00 00	ldxdw r1, [r9 + 0]
     361:	07 01 00 00 ff ff ff ff	add64 r1, -1
     362:	7b 19 00 00 00 00 00 00	stxdw [r9 + 0], r1
     363:	79 a2 80 fe 00 00 00 00	ldxdw r2, [r10 - 384]
     364:	55 01 26 00 00 00 00 00	jne r1, 0, +38 <.text+0xb78>
     365:	79 91 08 00 00 00 00 00	ldxdw r1, [r9 + 8]
     366:	07 01 00 00 ff ff ff ff	add64 r1, -1
     367:	7b 19 08 00 00 00 00 00	stxdw [r9 + 8], r1
     368:	05 00 22 00 00 00 00 00	ja +34 <.text+0xb78>
     369:	bf 61 00 00 00 00 00 00	mov64 r1, r6
     370:	b7 02 00 00 c4 0b 00 00	mov64 r2, 3012
     371:	85 10 00 00 4e 23 00 00	call 9038
     372:	b7 01 00 00 02 00 00 00	mov64 r1, 2
     373:	63 16 b8 00 00 00 00 00	stxw [r6 + 184], r1
     374:	95 00 00 00 00 00 00 00	exit
     375:	7b 7a 50 fe 00 00 00 00	stxdw [r10 - 432], r7
     376:	bf a7 00 00 00 00 00 00	mov64 r7, r10
     377:	07 07 00 00 98 fe ff ff	add64 r7, -360
     378:	bf a2 00 00 00 00 00 00	mov64 r2, r10
     379:	07 02 00 00 50 ff ff ff	add64 r2, -176
     380:	bf 71 00 00 00 00 00 00	mov64 r1, r7
     381:	b7 03 00 00 b0 00 00 00	mov64 r3, 176
     382:	85 10 00 00 1b 46 00 00	call 17947
     383:	bf 61 00 00 00 00 00 00	mov64 r1, r6
     384:	07 01 00 00 30 00 00 00	add64 r1, 48
     385:	bf 72 00 00 00 00 00 00	mov64 r2, r7
     386:	b7 03 00 00 b0 00 00 00	mov64 r3, 176
     387:	85 10 00 00 16 46 00 00	call 17942
     388:	79 a1 58 fe 00 00 00 00	ldxdw r1, [r10 - 424]
     389:	73 16 2a 00 00 00 00 00	stxb [r6 + 42], r1
     390:	79 a1 60 fe 00 00 00 00	ldxdw r1, [r10 - 416]
     391:	73 16 29 00 00 00 00 00	stxb [r6 + 41], r1
     392:	79 a1 68 fe 00 00 00 00	ldxdw r1, [r10 - 408]
     393:	73 16 28 00 00 00 00 00	stxb [r6 + 40], r1
     394:	79 a1 50 fe 00 00 00 00	ldxdw r1, [r10 - 432]
     395:	7b 16 20 00 00 00 00 00	stxdw [r6 + 32], r1
     396:	7b 86 18 00 00 00 00 00	stxdw [r6 + 24], r8
     397:	7b 96 10 00 00 00 00 00	stxdw [r6 + 16], r9
     398:	79 a1 78 fe 00 00 00 00	ldxdw r1, [r10 - 392]
     399:	7b 16 08 00 00 00 00 00	stxdw [r6 + 8], r1
     400:	79 a1 70 fe 00 00 00 00	ldxdw r1, [r10 - 400]
     401:	7b 16 00 00 00 00 00 00	stxdw [r6 + 0], r1
     402:	79 a2 80 fe 00 00 00 00	ldxdw r2, [r10 - 384]
     403:	79 21 00 00 00 00 00 00	ldxdw r1, [r2 + 0]
     404:	07 01 00 00 ff ff ff ff	add64 r1, -1
     405:	7b 12 00 00 00 00 00 00	stxdw [r2 + 0], r1
     406:	05 00 df ff 00 00 00 00	ja -33 <.text+0xa90>
     407:	bf 27 00 00 00 00 00 00	mov64 r7, r2
     408:	bf 16 00 00 00 00 00 00	mov64 r6, r1
     409:	79 78 18 00 00 00 00 00	ldxdw r8, [r7 + 24]
     410:	79 81 00 00 00 00 00 00	ldxdw r1, [r8 + 0]
     411:	15 01 02 00 00 00 00 00	jeq r1, 0, +2 <.text+0xbd0>
     412:	b7 01 00 00 01 00 00 00	mov64 r1, 1
     413:	05 00 07 00 00 00 00 00	ja +7 <.text+0xc08>
     414:	79 81 08 00 00 00 00 00	ldxdw r1, [r8 + 8]
     415:	55 01 fc ff 00 00 00 00	jne r1, 0, -4 <.text+0xbc0>
     416:	79 81 10 00 00 00 00 00	ldxdw r1, [r8 + 16]
     417:	55 01 fa ff 00 00 00 00	jne r1, 0, -6 <.text+0xbc0>
     418:	b7 01 00 00 00 00 00 00	mov64 r1, 0
     419:	79 82 18 00 00 00 00 00	ldxdw r2, [r8 + 24]
     420:	55 02 f7 ff 00 00 00 00	jne r2, 0, -9 <.text+0xbc0>
     421:	55 01 03 00 00 00 00 00	jne r1, 0, +3 <.text+0xc28>
     422:	bf 71 00 00 00 00 00 00	mov64 r1, r7
     423:	85 10 00 00 6e 26 00 00	call 9838
     424:	15 00 8a 00 00 00 00 00	jeq r0, 0, +138 <.text+0x1078>
     425:	bf a1 00 00 00 00 00 00	mov64 r1, r10
     426:	07 01 00 00 60 ff ff ff	add64 r1, -160
     427:	85 10 00 00 27 17 00 00	call 5927
     428:	79 81 00 00 00 00 00 00	ldxdw r1, [r8 + 0]
     429:	79 a2 60 ff 00 00 00 00	ldxdw r2, [r10 - 160]
     430:	1d 21 18 00 00 00 00 00	jeq r1, r2, +24 <.text+0xd18>
     431:	b7 01 00 00 01 00 00 00	mov64 r1, 1
     432:	15 01 22 00 00 00 00 00	jeq r1, 0, +34 <.text+0xd78>
     433:	bf a7 00 00 00 00 00 00	mov64 r7, r10
     434:	07 07 00 00 60 ff ff ff	add64 r7, -160
     435:	bf 71 00 00 00 00 00 00	mov64 r1, r7
     436:	b7 02 00 00 bf 0b 00 00	mov64 r2, 3007
     437:	85 10 00 00 0c 23 00 00	call 8972
     438:	79 81 18 00 00 00 00 00	ldxdw r1, [r8 + 24]
     439:	7b 1a 20 ff 00 00 00 00	stxdw [r10 - 224], r1
     440:	79 81 10 00 00 00 00 00	ldxdw r1, [r8 + 16]
     441:	7b 1a 18 ff 00 00 00 00	stxdw [r10 - 232], r1
     442:	79 81 08 00 00 00 00 00	ldxdw r1, [r8 + 8]
     443:	7b 1a 10 ff 00 00 00 00	stxdw [r10 - 240], r1
     444:	79 81 00 00 00 00 00 00	ldxdw r1, [r8 + 0]
     445:	7b 1a 08 ff 00 00 00 00	stxdw [r10 - 248], r1
     446:	bf a1 00 00 00 00 00 00	mov64 r1, r10
     447:	07 01 00 00 28 ff ff ff	add64 r1, -216
     448:	85 10 00 00 12 17 00 00	call 5906
     449:	bf a3 00 00 00 00 00 00	mov64 r3, r10
     450:	07 03 00 00 08 ff ff ff	add64 r3, -248
     451:	bf 61 00 00 00 00 00 00	mov64 r1, r6
     452:	bf 72 00 00 00 00 00 00	mov64 r2, r7
     453:	85 10 00 00 ac 1c 00 00	call 7340
     454:	05 00 96 00 00 00 00 00	ja +150 <.text+0x11c8>
     455:	79 81 08 00 00 00 00 00	ldxdw r1, [r8 + 8]
     456:	79 a2 68 ff 00 00 00 00	ldxdw r2, [r10 - 152]
     457:	5d 21 e5 ff 00 00 00 00	jne r1, r2, -27 <.text+0xc58>
     458:	79 81 10 00 00 00 00 00	ldxdw r1, [r8 + 16]
     459:	79 a2 70 ff 00 00 00 00	ldxdw r2, [r10 - 144]
     460:	5d 21 e2 ff 00 00 00 00	jne r1, r2, -30 <.text+0xc58>
     461:	b7 01 00 00 00 00 00 00	mov64 r1, 0
     462:	79 82 18 00 00 00 00 00	ldxdw r2, [r8 + 24]
     463:	79 a3 78 ff 00 00 00 00	ldxdw r3, [r10 - 136]
     464:	5d 32 de ff 00 00 00 00	jne r2, r3, -34 <.text+0xc58>
     465:	15 01 01 00 00 00 00 00	jeq r1, 0, +1 <.text+0xd78>
     466:	05 00 de ff 00 00 00 00	ja -34 <.text+0xc68>
     467:	bf a1 00 00 00 00 00 00	mov64 r1, r10
     468:	07 01 00 00 60 ff ff ff	add64 r1, -160
     469:	bf 72 00 00 00 00 00 00	mov64 r2, r7
     470:	85 10 00 00 64 26 00 00	call 9828
     471:	61 a1 60 ff 00 00 00 00	ldxw r1, [r10 - 160]
     472:	15 01 01 00 16 00 00 00	jeq r1, 22, +1 <.text+0xdb0>
     473:	05 00 11 00 00 00 00 00	ja +17 <.text+0xe38>
     474:	79 a3 70 ff 00 00 00 00	ldxdw r3, [r10 - 144]
     475:	79 a1 68 ff 00 00 00 00	ldxdw r1, [r10 - 152]
     476:	79 12 00 00 00 00 00 00	ldxdw r2, [r1 + 0]
     477:	79 11 08 00 00 00 00 00	ldxdw r1, [r1 + 8]
     478:	7b 1a 00 ff 00 00 00 00	stxdw [r10 - 256], r1
     479:	7b 2a f8 fe 00 00 00 00	stxdw [r10 - 264], r2
     480:	79 74 08 00 00 00 00 00	ldxdw r4, [r7 + 8]
     481:	79 41 00 00 00 00 00 00	ldxdw r1, [r4 + 0]
     482:	07 01 00 00 01 00 00 00	add64 r1, 1
     483:	b7 02 00 00 01 00 00 00	mov64 r2, 1
     484:	15 01 01 00 00 00 00 00	jeq r1, 0, +1 <.text+0xe10>
     485:	b7 02 00 00 00 00 00 00	mov64 r2, 0
     486:	79 75 00 00 00 00 00 00	ldxdw r5, [r7 + 0]
     487:	7b 14 00 00 00 00 00 00	stxdw [r4 + 0], r1
     488:	55 02 10 00 01 00 00 00	jne r2, 1, +16 <.text+0xea8>
     489:	85 10 00 00 ff ff ff ff	call -1
     490:	85 10 00 00 ff ff ff ff	call -1
     491:	61 a2 64 ff 00 00 00 00	ldxw r2, [r10 - 156]
     492:	79 a3 68 ff 00 00 00 00	ldxdw r3, [r10 - 152]
     493:	79 a4 70 ff 00 00 00 00	ldxdw r4, [r10 - 144]
     494:	79 a5 78 ff 00 00 00 00	ldxdw r5, [r10 - 136]
     495:	7b 5a 78 ff 00 00 00 00	stxdw [r10 - 136], r5
     496:	7b 4a 70 ff 00 00 00 00	stxdw [r10 - 144], r4
     497:	7b 3a 68 ff 00 00 00 00	stxdw [r10 - 152], r3
     498:	63 2a 64 ff 00 00 00 00	stxw [r10 - 156], r2
     499:	63 1a 60 ff 00 00 00 00	stxw [r10 - 160], r1
     500:	bf a2 00 00 00 00 00 00	mov64 r2, r10
     501:	07 02 00 00 60 ff ff ff	add64 r2, -160
     502:	bf 61 00 00 00 00 00 00	mov64 r1, r6
     503:	85 10 00 00 5e 1c 00 00	call 7262
     504:	05 00 64 00 00 00 00 00	ja +100 <.text+0x11c8>
     505:	79 79 10 00 00 00 00 00	ldxdw r9, [r7 + 16]
     506:	79 91 00 00 00 00 00 00	ldxdw r1, [r9 + 0]
     507:	07 01 00 00 01 00 00 00	add64 r1, 1
     508:	b7 02 00 00 01 00 00 00	mov64 r2, 1
     509:	15 01 01 00 00 00 00 00	jeq r1, 0, +1 <.text+0xed8>
     510:	b7 02 00 00 00 00 00 00	mov64 r2, 0
     511:	7b 5a e0 fe 00 00 00 00	stxdw [r10 - 288], r5
     512:	7b 4a e8 fe 00 00 00 00	stxdw [r10 - 280], r4
     513:	7b 3a f0 fe 00 00 00 00	stxdw [r10 - 272], r3
     514:	7b 19 00 00 00 00 00 00	stxdw [r9 + 0], r1
     515:	55 02 01 00 01 00 00 00	jne r2, 1, +1 <.text+0xf08>
     516:	05 00 e4 ff 00 00 00 00	ja -28 <.text+0xe28>
     517:	71 71 2a 00 00 00 00 00	ldxb r1, [r7 + 42]
     518:	7b 1a c0 fe 00 00 00 00	stxdw [r10 - 320], r1
     519:	71 71 29 00 00 00 00 00	ldxb r1, [r7 + 41]
     520:	7b 1a c8 fe 00 00 00 00	stxdw [r10 - 312], r1
     521:	71 71 28 00 00 00 00 00	ldxb r1, [r7 + 40]
     522:	7b 1a d0 fe 00 00 00 00	stxdw [r10 - 304], r1
     523:	79 71 20 00 00 00 00 00	ldxdw r1, [r7 + 32]
     524:	7b 1a d8 fe 00 00 00 00	stxdw [r10 - 296], r1
     525:	bf a1 00 00 00 00 00 00	mov64 r1, r10
     526:	07 01 00 00 60 ff ff ff	add64 r1, -160
     527:	bf a2 00 00 00 00 00 00	mov64 r2, r10
     528:	07 02 00 00 f8 fe ff ff	add64 r2, -264
     529:	85 10 00 00 55 16 00 00	call 5717
     530:	79 a7 60 ff 00 00 00 00	ldxdw r7, [r10 - 160]
     531:	15 07 01 00 04 00 00 00	jeq r7, 4, +1 <.text+0xf88>
     532:	05 00 22 00 00 00 00 00	ja +34 <.text+0x1098>
     533:	bf a7 00 00 00 00 00 00	mov64 r7, r10
     534:	07 07 00 00 08 ff ff ff	add64 r7, -248
     535:	bf a2 00 00 00 00 00 00	mov64 r2, r10
     536:	07 02 00 00 68 ff ff ff	add64 r2, -152
     537:	bf 71 00 00 00 00 00 00	mov64 r1, r7
     538:	b7 03 00 00 58 00 00 00	mov64 r3, 88
     539:	85 10 00 00 7e 45 00 00	call 17790
     540:	bf 61 00 00 00 00 00 00	mov64 r1, r6
     541:	07 01 00 00 08 00 00 00	add64 r1, 8
     542:	bf 72 00 00 00 00 00 00	mov64 r2, r7
     543:	b7 03 00 00 58 00 00 00	mov64 r3, 88
     544:	85 10 00 00 79 45 00 00	call 17785
     545:	79 a1 c0 fe 00 00 00 00	ldxdw r1, [r10 - 320]
     546:	73 16 8a 00 00 00 00 00	stxb [r6 + 138], r1
     547:	79 a1 c8 fe 00 00 00 00	ldxdw r1, [r10 - 312]
     548:	73 16 89 00 00 00 00 00	stxb [r6 + 137], r1
     549:	79 a1 d0 fe 00 00 00 00	ldxdw r1, [r10 - 304]
     550:	73 16 88 00 00 00 00 00	stxb [r6 + 136], r1
     551:	79 a1 d8 fe 00 00 00 00	ldxdw r1, [r10 - 296]
     552:	7b 16 80 00 00 00 00 00	stxdw [r6 + 128], r1
     553:	7b 86 78 00 00 00 00 00	stxdw [r6 + 120], r8
     554:	7b 96 70 00 00 00 00 00	stxdw [r6 + 112], r9
     555:	79 a1 e8 fe 00 00 00 00	ldxdw r1, [r10 - 280]
     556:	7b 16 68 00 00 00 00 00	stxdw [r6 + 104], r1
     557:	79 a1 e0 fe 00 00 00 00	ldxdw r1, [r10 - 288]
     558:	7b 16 60 00 00 00 00 00	stxdw [r6 + 96], r1
     559:	b7 01 00 00 04 00 00 00	mov64 r1, 4
     560:	7b 16 00 00 00 00 00 00	stxdw [r6 + 0], r1
     561:	79 a2 f0 fe 00 00 00 00	ldxdw r2, [r10 - 272]
     562:	05 00 27 00 00 00 00 00	ja +39 <.text+0x11b0>
     563:	bf 61 00 00 00 00 00 00	mov64 r1, r6
     564:	b7 02 00 00 c4 0b 00 00	mov64 r2, 3012
     565:	85 10 00 00 8c 22 00 00	call 8844
     566:	05 00 26 00 00 00 00 00	ja +38 <.text+0x11c8>
     567:	bf a8 00 00 00 00 00 00	mov64 r8, r10
     568:	07 08 00 00 08 ff ff ff	add64 r8, -248
     569:	bf a2 00 00 00 00 00 00	mov64 r2, r10
     570:	07 02 00 00 68 ff ff ff	add64 r2, -152
     571:	bf 81 00 00 00 00 00 00	mov64 r1, r8
     572:	b7 03 00 00 58 00 00 00	mov64 r3, 88
     573:	85 10 00 00 5c 45 00 00	call 17756
     574:	bf 61 00 00 00 00 00 00	mov64 r1, r6
     575:	07 01 00 00 60 00 00 00	add64 r1, 96
     576:	bf a2 00 00 00 00 00 00	mov64 r2, r10
     577:	07 02 00 00 c0 ff ff ff	add64 r2, -64
     578:	b7 03 00 00 40 00 00 00	mov64 r3, 64
     579:	85 10 00 00 56 45 00 00	call 17750
     580:	bf 61 00 00 00 00 00 00	mov64 r1, r6
     581:	07 01 00 00 08 00 00 00	add64 r1, 8
     582:	bf 82 00 00 00 00 00 00	mov64 r2, r8
     583:	b7 03 00 00 58 00 00 00	mov64 r3, 88
     584:	85 10 00 00 51 45 00 00	call 17745
     585:	7b 76 00 00 00 00 00 00	stxdw [r6 + 0], r7
     586:	79 a2 e8 fe 00 00 00 00	ldxdw r2, [r10 - 280]
     587:	79 21 00 00 00 00 00 00	ldxdw r1, [r2 + 0]
     588:	07 01 00 00 ff ff ff ff	add64 r1, -1
     589:	7b 12 00 00 00 00 00 00	stxdw [r2 + 0], r1
     590:	55 01 03 00 00 00 00 00	jne r1, 0, +3 <.text+0x1170>
     591:	79 21 08 00 00 00 00 00	ldxdw r1, [r2 + 8]
     592:	07 01 00 00 ff ff ff ff	add64 r1, -1
     593:	7b 12 08 00 00 00 00 00	stxdw [r2 + 8], r1
     594:	79 91 00 00 00 00 00 00	ldxdw r1, [r9 + 0]
     595:	07 01 00 00 ff ff ff ff	add64 r1, -1
     596:	7b 19 00 00 00 00 00 00	stxdw [r9 + 0], r1
     597:	79 a2 f0 fe 00 00 00 00	ldxdw r2, [r10 - 272]
     598:	55 01 03 00 00 00 00 00	jne r1, 0, +3 <.text+0x11b0>
     599:	79 91 08 00 00 00 00 00	ldxdw r1, [r9 + 8]
     600:	07 01 00 00 ff ff ff ff	add64 r1, -1
     601:	7b 19 08 00 00 00 00 00	stxdw [r9 + 8], r1
     602:	79 21 00 00 00 00 00 00	ldxdw r1, [r2 + 0]
     603:	07 01 00 00 ff ff ff ff	add64 r1, -1
     604:	7b 12 00 00 00 00 00 00	stxdw [r2 + 0], r1
     605:	95 00 00 00 00 00 00 00	exit
     606:	79 11 00 00 00 00 00 00	ldxdw r1, [r1 + 0]
     607:	85 10 00 00 86 36 00 00	call 13958
     608:	95 00 00 00 00 00 00 00	exit
     609:	7b 1a c8 ff 00 00 00 00	stxdw [r10 - 56], r1
     610:	bf a6 00 00 00 00 00 00	mov64 r6, r10
     611:	07 06 00 00 d0 ff ff ff	add64 r6, -48
     612:	bf 61 00 00 00 00 00 00	mov64 r1, r6
     613:	b7 03 00 00 30 00 00 00	mov64 r3, 48
     614:	85 10 00 00 33 45 00 00	call 17715
     615:	bf a1 00 00 00 00 00 00	mov64 r1, r10
     616:	07 01 00 00 c8 ff ff ff	add64 r1, -56
     617:	18 02 00 00 18 7a 02 00 00 00 00 00 00 00 00 00	lddw r2, 162328
     619:	bf 63 00 00 00 00 00 00	mov64 r3, r6
     620:	85 10 00 00 c2 39 00 00	call 14786
     621:	95 00 00 00 00 00 00 00	exit
     622:	79 12 38 00 00 00 00 00	ldxdw r2, [r1 + 56]
     623:	79 13 30 00 00 00 00 00	ldxdw r3, [r1 + 48]
     624:	79 34 00 00 00 00 00 00	ldxdw r4, [r3 + 0]
     625:	07 04 00 00 ff ff ff ff	add64 r4, -1
     626:	7b 43 00 00 00 00 00 00	stxdw [r3 + 0], r4
     627:	55 04 03 00 00 00 00 00	jne r4, 0, +3 <.text+0x1298>
     628:	79 34 08 00 00 00 00 00	ldxdw r4, [r3 + 8]
     629:	07 04 00 00 ff ff ff ff	add64 r4, -1
     630:	7b 43 08 00 00 00 00 00	stxdw [r3 + 8], r4
     631:	79 23 00 00 00 00 00 00	ldxdw r3, [r2 + 0]
     632:	07 03 00 00 ff ff ff ff	add64 r3, -1
     633:	7b 32 00 00 00 00 00 00	stxdw [r2 + 0], r3
     634:	55 03 03 00 00 00 00 00	jne r3, 0, +3 <.text+0x12d0>
     635:	79 23 08 00 00 00 00 00	ldxdw r3, [r2 + 8]
     636:	07 03 00 00 ff ff ff ff	add64 r3, -1
     637:	7b 32 08 00 00 00 00 00	stxdw [r2 + 8], r3
     638:	79 12 68 00 00 00 00 00	ldxdw r2, [r1 + 104]
     639:	79 13 60 00 00 00 00 00	ldxdw r3, [r1 + 96]
     640:	79 34 00 00 00 00 00 00	ldxdw r4, [r3 + 0]
     641:	07 04 00 00 ff ff ff ff	add64 r4, -1
     642:	7b 43 00 00 00 00 00 00	stxdw [r3 + 0], r4
     643:	55 04 03 00 00 00 00 00	jne r4, 0, +3 <.text+0x1318>
     644:	79 34 08 00 00 00 00 00	ldxdw r4, [r3 + 8]
     645:	07 04 00 00 ff ff ff ff	add64 r4, -1
     646:	7b 43 08 00 00 00 00 00	stxdw [r3 + 8], r4
     647:	79 23 00 00 00 00 00 00	ldxdw r3, [r2 + 0]
     648:	07 03 00 00 ff ff ff ff	add64 r3, -1
     649:	7b 32 00 00 00 00 00 00	stxdw [r2 + 0], r3
     650:	55 03 03 00 00 00 00 00	jne r3, 0, +3 <.text+0x1350>
     651:	79 23 08 00 00 00 00 00	ldxdw r3, [r2 + 8]
     652:	07 03 00 00 ff ff ff ff	add64 r3, -1
     653:	7b 32 08 00 00 00 00 00	stxdw [r2 + 8], r3
     654:	79 12 20 00 00 00 00 00	ldxdw r2, [r1 + 32]
     655:	15 02 06 00 00 00 00 00	jeq r2, 0, +6 <.text+0x1390>
     656:	79 13 10 00 00 00 00 00	ldxdw r3, [r1 + 16]
     657:	07 03 00 00 10 00 00 00	add64 r3, 16
     658:	05 00 0d 00 00 00 00 00	ja +13 <.text+0x13e0>
     659:	07 03 00 00 30 00 00 00	add64 r3, 48
     660:	07 02 00 00 ff ff ff ff	add64 r2, -1
     661:	55 02 0a 00 00 00 00 00	jne r2, 0, +10 <.text+0x13e0>
     662:	79 12 98 00 00 00 00 00	ldxdw r2, [r1 + 152]
     663:	79 11 90 00 00 00 00 00	ldxdw r1, [r1 + 144]
     664:	79 13 00 00 00 00 00 00	ldxdw r3, [r1 + 0]
     665:	07 03 00 00 ff ff ff ff	add64 r3, -1
     666:	7b 31 00 00 00 00 00 00	stxdw [r1 + 0], r3
     667:	55 03 15 00 00 00 00 00	jne r3, 0, +21 <.text+0x1468>
     668:	79 13 08 00 00 00 00 00	ldxdw r3, [r1 + 8]
     669:	07 03 00 00 ff ff ff ff	add64 r3, -1
     670:	7b 31 08 00 00 00 00 00	stxdw [r1 + 8], r3
     671:	05 00 11 00 00 00 00 00	ja +17 <.text+0x1468>
     672:	79 34 00 00 00 00 00 00	ldxdw r4, [r3 + 0]
     673:	79 35 f8 ff 00 00 00 00	ldxdw r5, [r3 - 8]
     674:	79 50 00 00 00 00 00 00	ldxdw r0, [r5 + 0]
     675:	07 00 00 00 ff ff ff ff	add64 r0, -1
     676:	7b 05 00 00 00 00 00 00	stxdw [r5 + 0], r0
     677:	55 00 03 00 00 00 00 00	jne r0, 0, +3 <.text+0x1428>
     678:	79 50 08 00 00 00 00 00	ldxdw r0, [r5 + 8]
     679:	07 00 00 00 ff ff ff ff	add64 r0, -1
     680:	7b 05 08 00 00 00 00 00	stxdw [r5 + 8], r0
     681:	79 45 00 00 00 00 00 00	ldxdw r5, [r4 + 0]
     682:	07 05 00 00 ff ff ff ff	add64 r5, -1
     683:	7b 54 00 00 00 00 00 00	stxdw [r4 + 0], r5
     684:	55 05 e6 ff 00 00 00 00	jne r5, 0, -26 <.text+0x1378>
     685:	79 45 08 00 00 00 00 00	ldxdw r5, [r4 + 8]
     686:	07 05 00 00 ff ff ff ff	add64 r5, -1
     687:	7b 54 08 00 00 00 00 00	stxdw [r4 + 8], r5
     688:	05 00 e2 ff 00 00 00 00	ja -30 <.text+0x1378>
     689:	79 21 00 00 00 00 00 00	ldxdw r1, [r2 + 0]
     690:	07 01 00 00 ff ff ff ff	add64 r1, -1
     691:	7b 12 00 00 00 00 00 00	stxdw [r2 + 0], r1
     692:	55 01 03 00 00 00 00 00	jne r1, 0, +3 <.text+0x14a0>
     693:	79 21 08 00 00 00 00 00	ldxdw r1, [r2 + 8]
     694:	07 01 00 00 ff ff ff ff	add64 r1, -1
     695:	7b 12 08 00 00 00 00 00	stxdw [r2 + 8], r1
     696:	95 00 00 00 00 00 00 00	exit
     697:	95 00 00 00 00 00 00 00	exit
     698:	95 00 00 00 00 00 00 00	exit
     699:	95 00 00 00 00 00 00 00	exit
     700:	79 12 00 00 00 00 00 00	ldxdw r2, [r1 + 0]
     701:	15 02 34 00 00 00 00 00	jeq r2, 0, +52 <.text+0x1670>
     702:	79 13 08 00 00 00 00 00	ldxdw r3, [r1 + 8]
     703:	79 11 10 00 00 00 00 00	ldxdw r1, [r1 + 16]
     704:	15 01 2a 00 00 00 00 00	jeq r1, 0, +42 <.text+0x1638>
     705:	bf 20 00 00 00 00 00 00	mov64 r0, r2
     706:	b7 02 00 00 00 00 00 00	mov64 r2, 0
     707:	05 00 03 00 00 00 00 00	ja +3 <.text+0x1518>
     708:	07 01 00 00 ff ff ff ff	add64 r1, -1
     709:	b7 00 00 00 00 00 00 00	mov64 r0, 0
     710:	15 01 28 00 00 00 00 00	jeq r1, 0, +40 <.text+0x1658>
     711:	bf 35 00 00 00 00 00 00	mov64 r5, r3
     712:	bf 04 00 00 00 00 00 00	mov64 r4, r0
     713:	55 02 09 00 00 00 00 00	jne r2, 0, +9 <.text+0x1578>
     714:	b7 05 00 00 00 00 00 00	mov64 r5, 0
     715:	b7 04 00 00 00 00 00 00	mov64 r4, 0
     716:	bf 02 00 00 00 00 00 00	mov64 r2, r0
     717:	15 03 05 00 00 00 00 00	jeq r3, 0, +5 <.text+0x1578>
     718:	bf 02 00 00 00 00 00 00	mov64 r2, r0
     719:	79 22 20 01 00 00 00 00	ldxdw r2, [r2 + 288]
     720:	07 03 00 00 ff ff ff ff	add64 r3, -1
     721:	b7 04 00 00 00 00 00 00	mov64 r4, 0
     722:	55 03 fc ff 00 00 00 00	jne r3, 0, -4 <.text+0x1558>
     723:	69 23 12 01 00 00 00 00	ldxh r3, [r2 + 274]
     724:	2d 53 09 00 00 00 00 00	jgt r3, r5, +9 <.text+0x15d0>
     725:	79 23 00 00 00 00 00 00	ldxdw r3, [r2 + 0]
     726:	15 03 1c 00 00 00 00 00	jeq r3, 0, +28 <.text+0x1678>
     727:	07 04 00 00 01 00 00 00	add64 r4, 1
     728:	69 25 10 01 00 00 00 00	ldxh r5, [r2 + 272]
     729:	69 30 12 01 00 00 00 00	ldxh r0, [r3 + 274]
     730:	bf 32 00 00 00 00 00 00	mov64 r2, r3
     731:	2d 50 01 00 00 00 00 00	jgt r0, r5, +1 <.text+0x15c8>
     732:	05 00 f8 ff 00 00 00 00	ja -8 <.text+0x1588>
     733:	bf 32 00 00 00 00 00 00	mov64 r2, r3
     734:	07 05 00 00 01 00 00 00	add64 r5, 1
     735:	bf 53 00 00 00 00 00 00	mov64 r3, r5
     736:	15 04 e3 ff 00 00 00 00	jeq r4, 0, -29 <.text+0x1500>
     737:	67 05 00 00 03 00 00 00	lsh64 r5, 3
     738:	0f 52 00 00 00 00 00 00	add64 r2, r5
     739:	b7 03 00 00 00 00 00 00	mov64 r3, 0
     740:	79 22 20 01 00 00 00 00	ldxdw r2, [r2 + 288]
     741:	07 04 00 00 ff ff ff ff	add64 r4, -1
     742:	15 04 dd ff 00 00 00 00	jeq r4, 0, -35 <.text+0x1500>
     743:	79 22 20 01 00 00 00 00	ldxdw r2, [r2 + 288]
     744:	07 04 00 00 ff ff ff ff	add64 r4, -1
     745:	15 04 da ff 00 00 00 00	jeq r4, 0, -38 <.text+0x1500>
     746:	05 00 fc ff 00 00 00 00	ja -4 <.text+0x1618>
     747:	15 03 03 00 00 00 00 00	jeq r3, 0, +3 <.text+0x1658>
     748:	79 22 20 01 00 00 00 00	ldxdw r2, [r2 + 288]
     749:	07 03 00 00 ff ff ff ff	add64 r3, -1
     750:	55 03 fd ff 00 00 00 00	jne r3, 0, -3 <.text+0x1640>
     751:	79 22 00 00 00 00 00 00	ldxdw r2, [r2 + 0]
     752:	15 02 01 00 00 00 00 00	jeq r2, 0, +1 <.text+0x1670>
     753:	05 00 fd ff 00 00 00 00	ja -3 <.text+0x1658>
     754:	95 00 00 00 00 00 00 00	exit
     755:	18 01 00 00 85 52 02 00 00 00 00 00 00 00 00 00	lddw r1, 152197
     757:	b7 02 00 00 2b 00 00 00	mov64 r2, 43
     758:	18 03 00 00 08 7b 02 00 00 00 00 00 00 00 00 00	lddw r3, 162568
     760:	85 10 00 00 6e 36 00 00	call 13934
     761:	85 10 00 00 ff ff ff ff	call -1
     762:	79 12 38 00 00 00 00 00	ldxdw r2, [r1 + 56]
     763:	79 13 30 00 00 00 00 00	ldxdw r3, [r1 + 48]
     764:	79 34 00 00 00 00 00 00	ldxdw r4, [r3 + 0]
     765:	07 04 00 00 ff ff ff ff	add64 r4, -1
     766:	7b 43 00 00 00 00 00 00	stxdw [r3 + 0], r4
     767:	55 04 03 00 00 00 00 00	jne r4, 0, +3 <.text+0x16f8>
     768:	79 34 08 00 00 00 00 00	ldxdw r4, [r3 + 8]
     769:	07 04 00 00 ff ff ff ff	add64 r4, -1
     770:	7b 43 08 00 00 00 00 00	stxdw [r3 + 8], r4
     771:	79 23 00 00 00 00 00 00	ldxdw r3, [r2 + 0]
     772:	07 03 00 00 ff ff ff ff	add64 r3, -1
     773:	7b 32 00 00 00 00 00 00	stxdw [r2 + 0], r3
     774:	55 03 03 00 00 00 00 00	jne r3, 0, +3 <.text+0x1730>
     775:	79 23 08 00 00 00 00 00	ldxdw r3, [r2 + 8]
     776:	07 03 00 00 ff ff ff ff	add64 r3, -1
     777:	7b 32 08 00 00 00 00 00	stxdw [r2 + 8], r3
     778:	79 12 20 00 00 00 00 00	ldxdw r2, [r1 + 32]
     779:	15 02 06 00 00 00 00 00	jeq r2, 0, +6 <.text+0x1770>
     780:	79 13 10 00 00 00 00 00	ldxdw r3, [r1 + 16]
     781:	07 03 00 00 10 00 00 00	add64 r3, 16
     782:	05 00 0d 00 00 00 00 00	ja +13 <.text+0x17c0>
     783:	07 03 00 00 30 00 00 00	add64 r3, 48
     784:	07 02 00 00 ff ff ff ff	add64 r2, -1
     785:	55 02 0a 00 00 00 00 00	jne r2, 0, +10 <.text+0x17c0>
     786:	79 12 68 00 00 00 00 00	ldxdw r2, [r1 + 104]
     787:	79 11 60 00 00 00 00 00	ldxdw r1, [r1 + 96]
     788:	79 13 00 00 00 00 00 00	ldxdw r3, [r1 + 0]
     789:	07 03 00 00 ff ff ff ff	add64 r3, -1
     790:	7b 31 00 00 00 00 00 00	stxdw [r1 + 0], r3
     791:	55 03 15 00 00 00 00 00	jne r3, 0, +21 <.text+0x1848>
     792:	79 13 08 00 00 00 00 00	ldxdw r3, [r1 + 8]
     793:	07 03 00 00 ff ff ff ff	add64 r3, -1
     794:	7b 31 08 00 00 00 00 00	stxdw [r1 + 8], r3
     795:	05 00 11 00 00 00 00 00	ja +17 <.text+0x1848>
     796:	79 34 00 00 00 00 00 00	ldxdw r4, [r3 + 0]
     797:	79 35 f8 ff 00 00 00 00	ldxdw r5, [r3 - 8]
     798:	79 50 00 00 00 00 00 00	ldxdw r0, [r5 + 0]
     799:	07 00 00 00 ff ff ff ff	add64 r0, -1
     800:	7b 05 00 00 00 00 00 00	stxdw [r5 + 0], r0
     801:	55 00 03 00 00 00 00 00	jne r0, 0, +3 <.text+0x1808>
     802:	79 50 08 00 00 00 00 00	ldxdw r0, [r5 + 8]
     803:	07 00 00 00 ff ff ff ff	add64 r0, -1
     804:	7b 05 08 00 00 00 00 00	stxdw [r5 + 8], r0
     805:	79 45 00 00 00 00 00 00	ldxdw r5, [r4 + 0]
     806:	07 05 00 00 ff ff ff ff	add64 r5, -1
     807:	7b 54 00 00 00 00 00 00	stxdw [r4 + 0], r5
     808:	55 05 e6 ff 00 00 00 00	jne r5, 0, -26 <.text+0x1758>
     809:	79 45 08 00 00 00 00 00	ldxdw r5, [r4 + 8]
     810:	07 05 00 00 ff ff ff ff	add64 r5, -1
     811:	7b 54 08 00 00 00 00 00	stxdw [r4 + 8], r5
     812:	05 00 e2 ff 00 00 00 00	ja -30 <.text+0x1758>
     813:	79 21 00 00 00 00 00 00	ldxdw r1, [r2 + 0]
     814:	07 01 00 00 ff ff ff ff	add64 r1, -1
     815:	7b 12 00 00 00 00 00 00	stxdw [r2 + 0], r1
     816:	55 01 03 00 00 00 00 00	jne r1, 0, +3 <.text+0x1880>
     817:	79 21 08 00 00 00 00 00	ldxdw r1, [r2 + 8]
     818:	07 01 00 00 ff ff ff ff	add64 r1, -1
     819:	7b 12 08 00 00 00 00 00	stxdw [r2 + 8], r1
     820:	95 00 00 00 00 00 00 00	exit
     821:	b7 02 00 00 00 00 00 00	mov64 r2, 0
     822:	7b 21 00 00 00 00 00 00	stxdw [r1 + 0], r2
     823:	95 00 00 00 00 00 00 00	exit
     824:	95 00 00 00 00 00 00 00	exit
     825:	18 02 00 00 b4 06 af 33 00 00 00 00 02 af d4 57	lddw r2, 6328875800354293428
     827:	7b 21 08 00 00 00 00 00	stxdw [r1 + 8], r2
     828:	18 02 00 00 eb eb 4a 38 00 00 00 00 ff c6 fa 26	lddw r2, 2808776117082319851
     830:	7b 21 00 00 00 00 00 00	stxdw [r1 + 0], r2
     831:	95 00 00 00 00 00 00 00	exit
     832:	79 11 00 00 00 00 00 00	ldxdw r1, [r1 + 0]
     833:	85 10 00 00 25 00 00 00	call 37
     834:	b7 00 00 00 00 00 00 00	mov64 r0, 0
     835:	95 00 00 00 00 00 00 00	exit
     836:	79 17 00 00 00 00 00 00	ldxdw r7, [r1 + 0]
     837:	bf a6 00 00 00 00 00 00	mov64 r6, r10
     838:	07 06 00 00 d0 ff ff ff	add64 r6, -48
     839:	bf 61 00 00 00 00 00 00	mov64 r1, r6
     840:	b7 03 00 00 30 00 00 00	mov64 r3, 48
     841:	85 10 00 00 50 44 00 00	call 17488
     842:	7b 7a c8 ff 00 00 00 00	stxdw [r10 - 56], r7
     843:	bf a1 00 00 00 00 00 00	mov64 r1, r10
     844:	07 01 00 00 c8 ff ff ff	add64 r1, -56
     845:	18 02 00 00 18 7a 02 00 00 00 00 00 00 00 00 00	lddw r2, 162328
     847:	bf 63 00 00 00 00 00 00	mov64 r3, r6
     848:	85 10 00 00 de 38 00 00	call 14558
     849:	95 00 00 00 00 00 00 00	exit
     850:	bf 36 00 00 00 00 00 00	mov64 r6, r3
     851:	bf 28 00 00 00 00 00 00	mov64 r8, r2
     852:	79 17 00 00 00 00 00 00	ldxdw r7, [r1 + 0]
     853:	79 79 10 00 00 00 00 00	ldxdw r9, [r7 + 16]
     854:	79 71 08 00 00 00 00 00	ldxdw r1, [r7 + 8]
     855:	1f 91 00 00 00 00 00 00	sub64 r1, r9
     856:	3d 61 05 00 00 00 00 00	jge r1, r6, +5 <.text+0x19d0>
     857:	bf 71 00 00 00 00 00 00	mov64 r1, r7
     858:	bf 92 00 00 00 00 00 00	mov64 r2, r9
     859:	bf 63 00 00 00 00 00 00	mov64 r3, r6
     860:	85 10 00 00 3a 04 00 00	call 1082
     861:	79 79 10 00 00 00 00 00	ldxdw r9, [r7 + 16]
     862:	79 71 00 00 00 00 00 00	ldxdw r1, [r7 + 0]
     863:	0f 91 00 00 00 00 00 00	add64 r1, r9
     864:	bf 82 00 00 00 00 00 00	mov64 r2, r8
     865:	bf 63 00 00 00 00 00 00	mov64 r3, r6
     866:	85 10 00 00 37 44 00 00	call 17463
     867:	0f 69 00 00 00 00 00 00	add64 r9, r6
     868:	7b 97 10 00 00 00 00 00	stxdw [r7 + 16], r9
     869:	b7 00 00 00 00 00 00 00	mov64 r0, 0
     870:	95 00 00 00 00 00 00 00	exit
     871:	bf 27 00 00 00 00 00 00	mov64 r7, r2
     872:	bf 16 00 00 00 00 00 00	mov64 r6, r1
     873:	bf 71 00 00 00 00 00 00	mov64 r1, r7
     874:	67 01 00 00 20 00 00 00	lsh64 r1, 32
     875:	77 01 00 00 20 00 00 00	rsh64 r1, 32
     876:	b7 02 00 00 80 00 00 00	mov64 r2, 128
     877:	2d 12 18 00 00 00 00 00	jgt r2, r1, +24 <.text+0x1b10>
     878:	b7 02 00 00 00 00 00 00	mov64 r2, 0
     879:	63 2a fc ff 00 00 00 00	stxw [r10 - 4], r2
     880:	b7 02 00 00 00 08 00 00	mov64 r2, 2048
     881:	2d 12 20 00 00 00 00 00	jgt r2, r1, +32 <.text+0x1b70>
     882:	bf 71 00 00 00 00 00 00	mov64 r1, r7
     883:	67 01 00 00 20 00 00 00	lsh64 r1, 32
     884:	77 01 00 00 20 00 00 00	rsh64 r1, 32
     885:	b7 02 00 00 00 00 01 00	mov64 r2, 65536
     886:	2d 12 01 00 00 00 00 00	jgt r2, r1, +1 <.text+0x1aa0>
     887:	05 00 23 00 00 00 00 00	ja +35 <.text+0x1bb8>
     888:	bf 71 00 00 00 00 00 00	mov64 r1, r7
     889:	57 01 00 00 3f 00 00 00	and64 r1, 63
     890:	47 01 00 00 80 00 00 00	or64 r1, 128
     891:	73 1a fe ff 00 00 00 00	stxb [r10 - 2], r1
     892:	bf 71 00 00 00 00 00 00	mov64 r1, r7
     893:	77 01 00 00 0c 00 00 00	rsh64 r1, 12
     894:	47 01 00 00 e0 00 00 00	or64 r1, 224
     895:	73 1a fc ff 00 00 00 00	stxb [r10 - 4], r1
     896:	77 07 00 00 06 00 00 00	rsh64 r7, 6
     897:	57 07 00 00 3f 00 00 00	and64 r7, 63
     898:	47 07 00 00 80 00 00 00	or64 r7, 128
     899:	73 7a fd ff 00 00 00 00	stxb [r10 - 3], r7
     900:	b7 07 00 00 03 00 00 00	mov64 r7, 3
     901:	05 00 28 00 00 00 00 00	ja +40 <.text+0x1c50>
     902:	79 62 10 00 00 00 00 00	ldxdw r2, [r6 + 16]
     903:	79 61 08 00 00 00 00 00	ldxdw r1, [r6 + 8]
     904:	5d 12 03 00 00 00 00 00	jne r2, r1, +3 <.text+0x1b40>
     905:	bf 61 00 00 00 00 00 00	mov64 r1, r6
     906:	85 10 00 00 dd 03 00 00	call 989
     907:	79 62 10 00 00 00 00 00	ldxdw r2, [r6 + 16]
     908:	79 61 00 00 00 00 00 00	ldxdw r1, [r6 + 0]
     909:	0f 21 00 00 00 00 00 00	add64 r1, r2
     910:	73 71 00 00 00 00 00 00	stxb [r1 + 0], r7
     911:	07 02 00 00 01 00 00 00	add64 r2, 1
     912:	7b 26 10 00 00 00 00 00	stxdw [r6 + 16], r2
     913:	05 00 2d 00 00 00 00 00	ja +45 <.text+0x1cd8>
     914:	bf 71 00 00 00 00 00 00	mov64 r1, r7
     915:	57 01 00 00 3f 00 00 00	and64 r1, 63
     916:	47 01 00 00 80 00 00 00	or64 r1, 128
     917:	73 1a fd ff 00 00 00 00	stxb [r10 - 3], r1
     918:	77 07 00 00 06 00 00 00	rsh64 r7, 6
     919:	47 07 00 00 c0 00 00 00	or64 r7, 192
     920:	73 7a fc ff 00 00 00 00	stxb [r10 - 4], r7
     921:	b7 07 00 00 02 00 00 00	mov64 r7, 2
     922:	05 00 13 00 00 00 00 00	ja +19 <.text+0x1c50>
     923:	bf 71 00 00 00 00 00 00	mov64 r1, r7
     924:	57 01 00 00 3f 00 00 00	and64 r1, 63
     925:	47 01 00 00 80 00 00 00	or64 r1, 128
     926:	73 1a ff ff 00 00 00 00	stxb [r10 - 1], r1
     927:	bf 71 00 00 00 00 00 00	mov64 r1, r7
     928:	77 01 00 00 06 00 00 00	rsh64 r1, 6
     929:	57 01 00 00 3f 00 00 00	and64 r1, 63
     930:	47 01 00 00 80 00 00 00	or64 r1, 128
     931:	73 1a fe ff 00 00 00 00	stxb [r10 - 2], r1
     932:	bf 71 00 00 00 00 00 00	mov64 r1, r7
     933:	77 01 00 00 0c 00 00 00	rsh64 r1, 12
     934:	57 01 00 00 3f 00 00 00	and64 r1, 63
     935:	47 01 00 00 80 00 00 00	or64 r1, 128
     936:	73 1a fd ff 00 00 00 00	stxb [r10 - 3], r1
     937:	77 07 00 00 12 00 00 00	rsh64 r7, 18
     938:	57 07 00 00 07 00 00 00	and64 r7, 7
     939:	47 07 00 00 f0 00 00 00	or64 r7, 240
     940:	73 7a fc ff 00 00 00 00	stxb [r10 - 4], r7
     941:	b7 07 00 00 04 00 00 00	mov64 r7, 4
     942:	79 68 10 00 00 00 00 00	ldxdw r8, [r6 + 16]
     943:	79 61 08 00 00 00 00 00	ldxdw r1, [r6 + 8]
     944:	1f 81 00 00 00 00 00 00	sub64 r1, r8
     945:	3d 71 05 00 00 00 00 00	jge r1, r7, +5 <.text+0x1c98>
     946:	bf 61 00 00 00 00 00 00	mov64 r1, r6
     947:	bf 82 00 00 00 00 00 00	mov64 r2, r8
     948:	bf 73 00 00 00 00 00 00	mov64 r3, r7
     949:	85 10 00 00 e1 03 00 00	call 993
     950:	79 68 10 00 00 00 00 00	ldxdw r8, [r6 + 16]
     951:	79 61 00 00 00 00 00 00	ldxdw r1, [r6 + 0]
     952:	0f 81 00 00 00 00 00 00	add64 r1, r8
     953:	bf a2 00 00 00 00 00 00	mov64 r2, r10
     954:	07 02 00 00 fc ff ff ff	add64 r2, -4
     955:	bf 73 00 00 00 00 00 00	mov64 r3, r7
     956:	85 10 00 00 dd 43 00 00	call 17373
     957:	0f 78 00 00 00 00 00 00	add64 r8, r7
     958:	7b 86 10 00 00 00 00 00	stxdw [r6 + 16], r8
     959:	b7 00 00 00 00 00 00 00	mov64 r0, 0
     960:	95 00 00 00 00 00 00 00	exit
     961:	bf 36 00 00 00 00 00 00	mov64 r6, r3
     962:	bf 28 00 00 00 00 00 00	mov64 r8, r2
     963:	bf 17 00 00 00 00 00 00	mov64 r7, r1
     964:	79 79 10 00 00 00 00 00	ldxdw r9, [r7 + 16]
     965:	79 71 08 00 00 00 00 00	ldxdw r1, [r7 + 8]
     966:	1f 91 00 00 00 00 00 00	sub64 r1, r9
     967:	3d 61 05 00 00 00 00 00	jge r1, r6, +5 <.text+0x1d48>
     968:	bf 71 00 00 00 00 00 00	mov64 r1, r7
     969:	bf 92 00 00 00 00 00 00	mov64 r2, r9
     970:	bf 63 00 00 00 00 00 00	mov64 r3, r6
     971:	85 10 00 00 cb 03 00 00	call 971
     972:	79 79 10 00 00 00 00 00	ldxdw r9, [r7 + 16]
     973:	79 71 00 00 00 00 00 00	ldxdw r1, [r7 + 0]
     974:	0f 91 00 00 00 00 00 00	add64 r1, r9
     975:	bf 82 00 00 00 00 00 00	mov64 r2, r8
     976:	bf 63 00 00 00 00 00 00	mov64 r3, r6
     977:	85 10 00 00 c8 43 00 00	call 17352
     978:	0f 69 00 00 00 00 00 00	add64 r9, r6
     979:	7b 97 10 00 00 00 00 00	stxdw [r7 + 16], r9
     980:	b7 00 00 00 00 00 00 00	mov64 r0, 0
     981:	95 00 00 00 00 00 00 00	exit
     982:	bf 17 00 00 00 00 00 00	mov64 r7, r1
     983:	79 71 00 00 00 00 00 00	ldxdw r1, [r7 + 0]
     984:	15 01 40 00 00 00 00 00	jeq r1, 0, +64 <.text+0x1fa8>
     985:	79 24 10 00 00 00 00 00	ldxdw r4, [r2 + 16]
     986:	7b 2a 78 ff 00 00 00 00	stxdw [r10 - 136], r2
     987:	79 22 00 00 00 00 00 00	ldxdw r2, [r2 + 0]
     988:	7b 2a a8 ff 00 00 00 00	stxdw [r10 - 88], r2
     989:	7b 7a 80 ff 00 00 00 00	stxdw [r10 - 128], r7
     990:	79 72 08 00 00 00 00 00	ldxdw r2, [r7 + 8]
     991:	7b 2a 90 ff 00 00 00 00	stxdw [r10 - 112], r2
     992:	7b 4a a0 ff 00 00 00 00	stxdw [r10 - 96], r4
     993:	05 00 08 00 00 00 00 00	ja +8 <.text+0x1e30>
     994:	79 a2 90 ff 00 00 00 00	ldxdw r2, [r10 - 112]
     995:	15 02 60 00 00 00 00 00	jeq r2, 0, +96 <.text+0x2100>
     996:	67 08 00 00 03 00 00 00	lsh64 r8, 3
     997:	79 a1 98 ff 00 00 00 00	ldxdw r1, [r10 - 104]
     998:	0f 81 00 00 00 00 00 00	add64 r1, r8
     999:	07 02 00 00 ff ff ff ff	add64 r2, -1
    1000:	7b 2a 90 ff 00 00 00 00	stxdw [r10 - 112], r2
    1001:	79 11 20 01 00 00 00 00	ldxdw r1, [r1 + 288]
    1002:	b7 06 00 00 ff ff ff ff	mov64 r6, -1
    1003:	bf 19 00 00 00 00 00 00	mov64 r9, r1
    1004:	07 09 00 00 08 00 00 00	add64 r9, 8
    1005:	7b 1a 98 ff 00 00 00 00	stxdw [r10 - 104], r1
    1006:	69 13 12 01 00 00 00 00	ldxh r3, [r1 + 274]
    1007:	bf 37 00 00 00 00 00 00	mov64 r7, r3
    1008:	27 07 00 00 18 00 00 00	mul64 r7, 24
    1009:	7b 9a 88 ff 00 00 00 00	stxdw [r10 - 120], r9
    1010:	7b 3a b0 ff 00 00 00 00	stxdw [r10 - 80], r3
    1011:	05 00 09 00 00 00 00 00	ja +9 <.text+0x1ec8>
    1012:	07 06 00 00 01 00 00 00	add64 r6, 1
    1013:	07 07 00 00 e8 ff ff ff	add64 r7, -24
    1014:	07 09 00 00 18 00 00 00	add64 r9, 24
    1015:	79 a3 b0 ff 00 00 00 00	ldxdw r3, [r10 - 80]
    1016:	15 01 04 00 01 00 00 00	jeq r1, 1, +4 <.text+0x1ec8>
    1017:	57 01 00 00 ff 00 00 00	and64 r1, 255
    1018:	15 01 18 00 00 00 00 00	jeq r1, 0, +24 <.text+0x1f78>
    1019:	bf 68 00 00 00 00 00 00	mov64 r8, r6
    1020:	05 00 e5 ff 00 00 00 00	ja -27 <.text+0x1df0>
    1021:	bf 38 00 00 00 00 00 00	mov64 r8, r3
    1022:	15 07 e3 ff 00 00 00 00	jeq r7, 0, -29 <.text+0x1df0>
    1023:	79 91 10 00 00 00 00 00	ldxdw r1, [r9 + 16]
    1024:	bf 43 00 00 00 00 00 00	mov64 r3, r4
    1025:	2d 41 01 00 00 00 00 00	jgt r1, r4, +1 <.text+0x1ef8>
    1026:	bf 13 00 00 00 00 00 00	mov64 r3, r1
    1027:	bf 48 00 00 00 00 00 00	mov64 r8, r4
    1028:	1f 18 00 00 00 00 00 00	sub64 r8, r1
    1029:	79 92 00 00 00 00 00 00	ldxdw r2, [r9 + 0]
    1030:	79 a1 a8 ff 00 00 00 00	ldxdw r1, [r10 - 88]
    1031:	85 10 00 00 1a 44 00 00	call 17434
    1032:	15 00 01 00 00 00 00 00	jeq r0, 0, +1 <.text+0x1f30>
    1033:	bf 08 00 00 00 00 00 00	mov64 r8, r0
    1034:	b7 02 00 00 00 00 00 00	mov64 r2, 0
    1035:	b7 03 00 00 01 00 00 00	mov64 r3, 1
    1036:	55 08 01 00 00 00 00 00	jne r8, 0, +1 <.text+0x1f50>
    1037:	b7 03 00 00 00 00 00 00	mov64 r3, 0
    1038:	b7 01 00 00 ff ff ff ff	mov64 r1, -1
    1039:	79 a4 a0 ff 00 00 00 00	ldxdw r4, [r10 - 96]
    1040:	6d 82 e3 ff 00 00 00 00	jsgt r2, r8, -29 <.text+0x1e80>
    1041:	bf 31 00 00 00 00 00 00	mov64 r1, r3
    1042:	05 00 e1 ff 00 00 00 00	ja -31 <.text+0x1e80>
    1043:	79 a0 98 ff 00 00 00 00	ldxdw r0, [r10 - 104]
    1044:	bf 67 00 00 00 00 00 00	mov64 r7, r6
    1045:	0f 70 00 00 00 00 00 00	add64 r0, r7
    1046:	b7 01 00 00 19 00 00 00	mov64 r1, 25
    1047:	73 10 14 01 00 00 00 00	stxb [r0 + 276], r1
    1048:	05 00 2a 00 00 00 00 00	ja +42 <.text+0x20f8>
    1049:	79 20 08 00 00 00 00 00	ldxdw r0, [r2 + 8]
    1050:	79 21 00 00 00 00 00 00	ldxdw r1, [r2 + 0]
    1051:	15 01 f9 ff 00 00 00 00	jeq r1, 0, -7 <.text+0x1f88>
    1052:	18 03 00 00 00 00 00 00 00 00 00 00 03 00 00 00	lddw r3, 12884901888
    1054:	79 33 00 00 00 00 00 00	ldxdw r3, [r3 + 0]
    1055:	18 04 00 00 00 80 00 00 00 00 00 00 03 00 00 00	lddw r4, 12884934656
    1057:	15 03 01 00 00 00 00 00	jeq r3, 0, +1 <.text+0x1ff8>
    1058:	bf 34 00 00 00 00 00 00	mov64 r4, r3
    1059:	bf 43 00 00 00 00 00 00	mov64 r3, r4
    1060:	07 03 00 00 e0 fe ff ff	add64 r3, -288
    1061:	b7 06 00 00 00 00 00 00	mov64 r6, 0
    1062:	b7 05 00 00 01 00 00 00	mov64 r5, 1
    1063:	2d 43 01 00 00 00 00 00	jgt r3, r4, +1 <.text+0x2028>
    1064:	b7 05 00 00 00 00 00 00	mov64 r5, 0
    1065:	55 05 01 00 00 00 00 00	jne r5, 0, +1 <.text+0x2038>
    1066:	bf 36 00 00 00 00 00 00	mov64 r6, r3
    1067:	57 06 00 00 f8 ff ff ff	and64 r6, -8
    1068:	18 03 00 00 07 00 00 00 00 00 00 00 03 00 00 00	lddw r3, 12884901895
    1070:	2d 36 04 00 00 00 00 00	jgt r6, r3, +4 <.text+0x2078>
    1071:	b7 01 00 00 08 00 00 00	mov64 r1, 8
    1072:	b7 02 00 00 20 01 00 00	mov64 r2, 288
    1073:	85 10 00 00 5e 32 00 00	call 12894
    1074:	85 10 00 00 ff ff ff ff	call -1
    1075:	79 23 10 00 00 00 00 00	ldxdw r3, [r2 + 16]
    1076:	18 04 00 00 00 00 00 00 00 00 00 00 03 00 00 00	lddw r4, 12884901888
    1078:	7b 64 00 00 00 00 00 00	stxdw [r4 + 0], r6
    1079:	b7 04 00 00 19 00 00 00	mov64 r4, 25
    1080:	73 46 14 01 00 00 00 00	stxb [r6 + 276], r4
    1081:	7b 36 18 00 00 00 00 00	stxdw [r6 + 24], r3
    1082:	7b 06 10 00 00 00 00 00	stxdw [r6 + 16], r0
    1083:	7b 16 08 00 00 00 00 00	stxdw [r6 + 8], r1
    1084:	b7 01 00 00 01 00 00 00	mov64 r1, 1
    1085:	6b 16 12 01 00 00 00 00	stxh [r6 + 274], r1
    1086:	b7 03 00 00 00 00 00 00	mov64 r3, 0
    1087:	7b 36 00 00 00 00 00 00	stxdw [r6 + 0], r3
    1088:	7b 17 10 00 00 00 00 00	stxdw [r7 + 16], r1
    1089:	7b 37 08 00 00 00 00 00	stxdw [r7 + 8], r3
    1090:	7b 67 00 00 00 00 00 00	stxdw [r7 + 0], r6
    1091:	95 00 00 00 00 00 00 00	exit
    1092:	79 a1 78 ff 00 00 00 00	ldxdw r1, [r10 - 136]
    1093:	79 10 08 00 00 00 00 00	ldxdw r0, [r1 + 8]
    1094:	79 a7 80 ff 00 00 00 00	ldxdw r7, [r10 - 128]
    1095:	79 a9 98 ff 00 00 00 00	ldxdw r9, [r10 - 104]
    1096:	79 a1 a8 ff 00 00 00 00	ldxdw r1, [r10 - 88]
    1097:	15 01 cb ff 00 00 00 00	jeq r1, 0, -53 <.text+0x1f88>
    1098:	b7 01 00 00 0b 00 00 00	mov64 r1, 11
    1099:	2d 31 1a 00 00 00 00 00	jgt r1, r3, +26 <.text+0x2210>
    1100:	7b 0a 70 ff 00 00 00 00	stxdw [r10 - 144], r0
    1101:	bf a1 00 00 00 00 00 00	mov64 r1, r10
    1102:	07 01 00 00 e8 ff ff ff	add64 r1, -24
    1103:	bf 82 00 00 00 00 00 00	mov64 r2, r8
    1104:	85 10 00 00 55 32 00 00	call 12885
    1105:	18 01 00 00 00 00 00 00 00 00 00 00 03 00 00 00	lddw r1, 12884901888
    1107:	79 11 00 00 00 00 00 00	ldxdw r1, [r1 + 0]
    1108:	18 02 00 00 00 80 00 00 00 00 00 00 03 00 00 00	lddw r2, 12884934656
    1110:	15 01 01 00 00 00 00 00	jeq r1, 0, +1 <.text+0x21a0>
    1111:	bf 12 00 00 00 00 00 00	mov64 r2, r1
    1112:	b7 04 00 00 00 00 00 00	mov64 r4, 0
    1113:	b7 03 00 00 01 00 00 00	mov64 r3, 1
    1114:	bf 21 00 00 00 00 00 00	mov64 r1, r2
    1115:	07 01 00 00 e0 fe ff ff	add64 r1, -288
    1116:	79 a5 88 ff 00 00 00 00	ldxdw r5, [r10 - 120]
    1117:	2d 21 01 00 00 00 00 00	jgt r1, r2, +1 <.text+0x21d8>
    1118:	b7 03 00 00 00 00 00 00	mov64 r3, 0
    1119:	55 03 01 00 00 00 00 00	jne r3, 0, +1 <.text+0x21e8>
    1120:	bf 14 00 00 00 00 00 00	mov64 r4, r1
    1121:	57 04 00 00 f8 ff ff ff	and64 r4, -8
    1122:	18 01 00 00 07 00 00 00 00 00 00 00 03 00 00 00	lddw r1, 12884901895
    1124:	2d 14 2d 00 00 00 00 00	jgt r4, r1, +45 <.text+0x2370>
    1125:	05 00 c9 ff 00 00 00 00	ja -55 <.text+0x2058>
    1126:	bf 85 00 00 00 00 00 00	mov64 r5, r8
    1127:	27 05 00 00 18 00 00 00	mul64 r5, 24
    1128:	79 a1 88 ff 00 00 00 00	ldxdw r1, [r10 - 120]
    1129:	bf 12 00 00 00 00 00 00	mov64 r2, r1
    1130:	0f 52 00 00 00 00 00 00	add64 r2, r5
    1131:	2d 83 05 00 00 00 00 00	jgt r3, r8, +5 <.text+0x2268>
    1132:	7b 42 10 00 00 00 00 00	stxdw [r2 + 16], r4
    1133:	7b 02 08 00 00 00 00 00	stxdw [r2 + 8], r0
    1134:	79 a1 a8 ff 00 00 00 00	ldxdw r1, [r10 - 88]
    1135:	7b 12 00 00 00 00 00 00	stxdw [r2 + 0], r1
    1136:	05 00 1a 00 00 00 00 00	ja +26 <.text+0x2338>
    1137:	bf 86 00 00 00 00 00 00	mov64 r6, r8
    1138:	07 06 00 00 01 00 00 00	add64 r6, 1
    1139:	bf 65 00 00 00 00 00 00	mov64 r5, r6
    1140:	27 05 00 00 18 00 00 00	mul64 r5, 24
    1141:	0f 51 00 00 00 00 00 00	add64 r1, r5
    1142:	1f 83 00 00 00 00 00 00	sub64 r3, r8
    1143:	7b 3a 90 ff 00 00 00 00	stxdw [r10 - 112], r3
    1144:	27 03 00 00 18 00 00 00	mul64 r3, 24
    1145:	7b 0a 70 ff 00 00 00 00	stxdw [r10 - 144], r0
    1146:	bf 29 00 00 00 00 00 00	mov64 r9, r2
    1147:	85 10 00 00 40 43 00 00	call 17216
    1148:	79 a1 a0 ff 00 00 00 00	ldxdw r1, [r10 - 96]
    1149:	7b 19 10 00 00 00 00 00	stxdw [r9 + 16], r1
    1150:	79 a1 70 ff 00 00 00 00	ldxdw r1, [r10 - 144]
    1151:	7b 19 08 00 00 00 00 00	stxdw [r9 + 8], r1
    1152:	79 a1 a8 ff 00 00 00 00	ldxdw r1, [r10 - 88]
    1153:	7b 19 00 00 00 00 00 00	stxdw [r9 + 0], r1
    1154:	79 a9 98 ff 00 00 00 00	ldxdw r9, [r10 - 104]
    1155:	bf 92 00 00 00 00 00 00	mov64 r2, r9
    1156:	07 02 00 00 14 01 00 00	add64 r2, 276
    1157:	bf 21 00 00 00 00 00 00	mov64 r1, r2
    1158:	0f 61 00 00 00 00 00 00	add64 r1, r6
    1159:	0f 82 00 00 00 00 00 00	add64 r2, r8
    1160:	79 a3 90 ff 00 00 00 00	ldxdw r3, [r10 - 112]
    1161:	85 10 00 00 32 43 00 00	call 17202
    1162:	79 a3 b0 ff 00 00 00 00	ldxdw r3, [r10 - 80]
    1163:	bf 91 00 00 00 00 00 00	mov64 r1, r9
    1164:	0f 81 00 00 00 00 00 00	add64 r1, r8
    1165:	b7 02 00 00 19 00 00 00	mov64 r2, 25
    1166:	73 21 14 01 00 00 00 00	stxb [r1 + 276], r2
    1167:	07 03 00 00 01 00 00 00	add64 r3, 1
    1168:	6b 39 12 01 00 00 00 00	stxh [r9 + 274], r3
    1169:	05 00 e3 01 00 00 00 00	ja +483 <.text+0x3288>
    1170:	79 a0 f8 ff 00 00 00 00	ldxdw r0, [r10 - 8]
    1171:	79 a6 f0 ff 00 00 00 00	ldxdw r6, [r10 - 16]
    1172:	79 a8 e8 ff 00 00 00 00	ldxdw r8, [r10 - 24]
    1173:	18 01 00 00 00 00 00 00 00 00 00 00 03 00 00 00	lddw r1, 12884901888
    1175:	7b 41 00 00 00 00 00 00	stxdw [r1 + 0], r4
    1176:	b7 01 00 00 00 00 00 00	mov64 r1, 0
    1177:	6b 14 12 01 00 00 00 00	stxh [r4 + 274], r1
    1178:	7b 14 00 00 00 00 00 00	stxdw [r4 + 0], r1
    1179:	bf 82 00 00 00 00 00 00	mov64 r2, r8
    1180:	a7 02 00 00 ff ff ff ff	xor64 r2, -1
    1181:	69 97 12 01 00 00 00 00	ldxh r7, [r9 + 274]
    1182:	bf 71 00 00 00 00 00 00	mov64 r1, r7
    1183:	0f 21 00 00 00 00 00 00	add64 r1, r2
    1184:	6b 14 12 01 00 00 00 00	stxh [r4 + 274], r1
    1185:	bf 82 00 00 00 00 00 00	mov64 r2, r8
    1186:	27 02 00 00 18 00 00 00	mul64 r2, 24
    1187:	bf 53 00 00 00 00 00 00	mov64 r3, r5
    1188:	0f 23 00 00 00 00 00 00	add64 r3, r2
    1189:	79 32 10 00 00 00 00 00	ldxdw r2, [r3 + 16]
    1190:	7b 2a f8 ff 00 00 00 00	stxdw [r10 - 8], r2
    1191:	79 32 08 00 00 00 00 00	ldxdw r2, [r3 + 8]
    1192:	7b 2a f0 ff 00 00 00 00	stxdw [r10 - 16], r2
    1193:	79 32 00 00 00 00 00 00	ldxdw r2, [r3 + 0]
    1194:	7b 2a e8 ff 00 00 00 00	stxdw [r10 - 24], r2
    1195:	b7 02 00 00 0c 00 00 00	mov64 r2, 12
    1196:	2d 12 05 00 00 00 00 00	jgt r2, r1, +5 <.text+0x2470>
    1197:	b7 02 00 00 0b 00 00 00	mov64 r2, 11
    1198:	18 03 00 00 d8 7a 02 00 00 00 00 00 00 00 00 00	lddw r3, 162520
    1200:	85 10 00 00 9f 3b 00 00	call 15263
    1201:	85 10 00 00 ff ff ff ff	call -1
    1202:	7b 6a 68 ff 00 00 00 00	stxdw [r10 - 152], r6
    1203:	7b 0a b0 ff 00 00 00 00	stxdw [r10 - 80], r0
    1204:	7b 4a 90 ff 00 00 00 00	stxdw [r10 - 112], r4
    1205:	bf 89 00 00 00 00 00 00	mov64 r9, r8
    1206:	07 09 00 00 01 00 00 00	add64 r9, 1
    1207:	1f 97 00 00 00 00 00 00	sub64 r7, r9
    1208:	bf 13 00 00 00 00 00 00	mov64 r3, r1
    1209:	1d 17 07 00 00 00 00 00	jeq r7, r1, +7 <.text+0x24e8>
    1210:	18 01 00 00 c7 53 02 00 00 00 00 00 00 00 00 00	lddw r1, 152519
    1212:	b7 02 00 00 28 00 00 00	mov64 r2, 40
    1213:	18 03 00 00 c0 7a 02 00 00 00 00 00 00 00 00 00	lddw r3, 162496
    1215:	85 10 00 00 a7 34 00 00	call 13479
    1216:	85 10 00 00 ff ff ff ff	call -1
    1217:	79 a6 98 ff 00 00 00 00	ldxdw r6, [r10 - 104]
    1218:	07 06 00 00 14 01 00 00	add64 r6, 276
    1219:	bf 61 00 00 00 00 00 00	mov64 r1, r6
    1220:	0f 81 00 00 00 00 00 00	add64 r1, r8
    1221:	71 11 00 00 00 00 00 00	ldxb r1, [r1 + 0]
    1222:	7b 1a 78 ff 00 00 00 00	stxdw [r10 - 136], r1
    1223:	bf 91 00 00 00 00 00 00	mov64 r1, r9
    1224:	27 01 00 00 18 00 00 00	mul64 r1, 24
    1225:	0f 15 00 00 00 00 00 00	add64 r5, r1
    1226:	bf 52 00 00 00 00 00 00	mov64 r2, r5
    1227:	7b 8a 88 ff 00 00 00 00	stxdw [r10 - 120], r8
    1228:	79 a8 90 ff 00 00 00 00	ldxdw r8, [r10 - 112]
    1229:	bf 81 00 00 00 00 00 00	mov64 r1, r8
    1230:	07 01 00 00 08 00 00 00	add64 r1, 8
    1231:	bf 37 00 00 00 00 00 00	mov64 r7, r3
    1232:	27 03 00 00 18 00 00 00	mul64 r3, 24
    1233:	85 10 00 00 c8 42 00 00	call 17096
    1234:	0f 96 00 00 00 00 00 00	add64 r6, r9
    1235:	07 08 00 00 14 01 00 00	add64 r8, 276
    1236:	bf 81 00 00 00 00 00 00	mov64 r1, r8
    1237:	bf 62 00 00 00 00 00 00	mov64 r2, r6
    1238:	bf 73 00 00 00 00 00 00	mov64 r3, r7
    1239:	85 10 00 00 c2 42 00 00	call 17090
    1240:	79 a7 98 ff 00 00 00 00	ldxdw r7, [r10 - 104]
    1241:	79 a1 88 ff 00 00 00 00	ldxdw r1, [r10 - 120]
    1242:	6b 17 12 01 00 00 00 00	stxh [r7 + 274], r1
    1243:	79 a1 68 ff 00 00 00 00	ldxdw r1, [r10 - 152]
    1244:	15 01 01 00 00 00 00 00	jeq r1, 0, +1 <.text+0x25d0>
    1245:	79 a7 90 ff 00 00 00 00	ldxdw r7, [r10 - 112]
    1246:	79 a1 e8 ff 00 00 00 00	ldxdw r1, [r10 - 24]
    1247:	7b 1a d0 ff 00 00 00 00	stxdw [r10 - 48], r1
    1248:	79 a1 f0 ff 00 00 00 00	ldxdw r1, [r10 - 16]
    1249:	7b 1a d8 ff 00 00 00 00	stxdw [r10 - 40], r1
    1250:	79 a1 f8 ff 00 00 00 00	ldxdw r1, [r10 - 8]
    1251:	7b 1a e0 ff 00 00 00 00	stxdw [r10 - 32], r1
    1252:	bf 71 00 00 00 00 00 00	mov64 r1, r7
    1253:	07 01 00 00 08 00 00 00	add64 r1, 8
    1254:	79 a3 b0 ff 00 00 00 00	ldxdw r3, [r10 - 80]
    1255:	bf 32 00 00 00 00 00 00	mov64 r2, r3
    1256:	27 02 00 00 18 00 00 00	mul64 r2, 24
    1257:	bf 16 00 00 00 00 00 00	mov64 r6, r1
    1258:	0f 26 00 00 00 00 00 00	add64 r6, r2
    1259:	bf 38 00 00 00 00 00 00	mov64 r8, r3
    1260:	07 08 00 00 01 00 00 00	add64 r8, 1
    1261:	69 79 12 01 00 00 00 00	ldxh r9, [r7 + 274]
    1262:	3d 89 07 00 00 00 00 00	jge r9, r8, +7 <.text+0x2690>
    1263:	79 a1 a0 ff 00 00 00 00	ldxdw r1, [r10 - 96]
    1264:	7b 16 10 00 00 00 00 00	stxdw [r6 + 16], r1
    1265:	79 a1 70 ff 00 00 00 00	ldxdw r1, [r10 - 144]
    1266:	7b 16 08 00 00 00 00 00	stxdw [r6 + 8], r1
    1267:	79 a1 a8 ff 00 00 00 00	ldxdw r1, [r10 - 88]
    1268:	7b 16 00 00 00 00 00 00	stxdw [r6 + 0], r1
    1269:	05 00 19 00 00 00 00 00	ja +25 <.text+0x2758>
    1270:	bf 82 00 00 00 00 00 00	mov64 r2, r8
    1271:	27 02 00 00 18 00 00 00	mul64 r2, 24
    1272:	0f 21 00 00 00 00 00 00	add64 r1, r2
    1273:	bf 92 00 00 00 00 00 00	mov64 r2, r9
    1274:	1f 32 00 00 00 00 00 00	sub64 r2, r3
    1275:	7b 2a 88 ff 00 00 00 00	stxdw [r10 - 120], r2
    1276:	bf 23 00 00 00 00 00 00	mov64 r3, r2
    1277:	27 03 00 00 18 00 00 00	mul64 r3, 24
    1278:	bf 62 00 00 00 00 00 00	mov64 r2, r6
    1279:	85 10 00 00 bc 42 00 00	call 17084
    1280:	79 a1 a0 ff 00 00 00 00	ldxdw r1, [r10 - 96]
    1281:	7b 16 10 00 00 00 00 00	stxdw [r6 + 16], r1
    1282:	79 a1 70 ff 00 00 00 00	ldxdw r1, [r10 - 144]
    1283:	7b 16 08 00 00 00 00 00	stxdw [r6 + 8], r1
    1284:	79 a1 a8 ff 00 00 00 00	ldxdw r1, [r10 - 88]
    1285:	7b 16 00 00 00 00 00 00	stxdw [r6 + 0], r1
    1286:	bf 72 00 00 00 00 00 00	mov64 r2, r7
    1287:	07 02 00 00 14 01 00 00	add64 r2, 276
    1288:	bf 21 00 00 00 00 00 00	mov64 r1, r2
    1289:	0f 81 00 00 00 00 00 00	add64 r1, r8
    1290:	79 a3 b0 ff 00 00 00 00	ldxdw r3, [r10 - 80]
    1291:	0f 32 00 00 00 00 00 00	add64 r2, r3
    1292:	79 a3 88 ff 00 00 00 00	ldxdw r3, [r10 - 120]
    1293:	85 10 00 00 ae 42 00 00	call 17070
    1294:	79 a3 b0 ff 00 00 00 00	ldxdw r3, [r10 - 80]
    1295:	bf 71 00 00 00 00 00 00	mov64 r1, r7
    1296:	0f 31 00 00 00 00 00 00	add64 r1, r3
    1297:	b7 02 00 00 19 00 00 00	mov64 r2, 25
    1298:	73 21 14 01 00 00 00 00	stxb [r1 + 276], r2
    1299:	07 09 00 00 01 00 00 00	add64 r9, 1
    1300:	6b 97 12 01 00 00 00 00	stxh [r7 + 274], r9
    1301:	79 a1 e0 ff 00 00 00 00	ldxdw r1, [r10 - 32]
    1302:	7b 1a c8 ff 00 00 00 00	stxdw [r10 - 56], r1
    1303:	79 a1 d8 ff 00 00 00 00	ldxdw r1, [r10 - 40]
    1304:	7b 1a c0 ff 00 00 00 00	stxdw [r10 - 64], r1
    1305:	79 a1 d0 ff 00 00 00 00	ldxdw r1, [r10 - 48]
    1306:	7b 1a b8 ff 00 00 00 00	stxdw [r10 - 72], r1
    1307:	b7 05 00 00 00 00 00 00	mov64 r5, 0
    1308:	79 a3 98 ff 00 00 00 00	ldxdw r3, [r10 - 104]
    1309:	79 38 00 00 00 00 00 00	ldxdw r8, [r3 + 0]
    1310:	b7 00 00 00 00 00 00 00	mov64 r0, 0
    1311:	79 a6 90 ff 00 00 00 00	ldxdw r6, [r10 - 112]
    1312:	15 08 09 01 00 00 00 00	jeq r8, 0, +265 <.text+0x3030>
    1313:	b7 02 00 00 00 00 00 00	mov64 r2, 0
    1314:	7b 2a a0 ff 00 00 00 00	stxdw [r10 - 96], r2
    1315:	05 00 18 00 00 00 00 00	ja +24 <.text+0x28c0>
    1316:	79 12 00 00 00 00 00 00	ldxdw r2, [r1 + 0]
    1317:	7b 92 00 00 00 00 00 00	stxdw [r2 + 0], r9
    1318:	6b 82 10 01 00 00 00 00	stxh [r2 + 272], r8
    1319:	07 01 00 00 08 00 00 00	add64 r1, 8
    1320:	07 08 00 00 01 00 00 00	add64 r8, 1
    1321:	2d 86 fa ff 00 00 00 00	jgt r6, r8, -6 <.text+0x2800>
    1322:	79 a1 f8 ff 00 00 00 00	ldxdw r1, [r10 - 8]
    1323:	7b 1a c8 ff 00 00 00 00	stxdw [r10 - 56], r1
    1324:	79 a1 f0 ff 00 00 00 00	ldxdw r1, [r10 - 16]
    1325:	7b 1a c0 ff 00 00 00 00	stxdw [r10 - 64], r1
    1326:	79 a1 e8 ff 00 00 00 00	ldxdw r1, [r10 - 24]
    1327:	7b 1a b8 ff 00 00 00 00	stxdw [r10 - 72], r1
    1328:	79 a2 b0 ff 00 00 00 00	ldxdw r2, [r10 - 80]
    1329:	79 28 00 00 00 00 00 00	ldxdw r8, [r2 + 0]
    1330:	bf 23 00 00 00 00 00 00	mov64 r3, r2
    1331:	79 a2 68 ff 00 00 00 00	ldxdw r2, [r10 - 152]
    1332:	7b 2a 78 ff 00 00 00 00	stxdw [r10 - 136], r2
    1333:	bf 76 00 00 00 00 00 00	mov64 r6, r7
    1334:	55 08 05 00 00 00 00 00	jne r8, 0, +5 <.text+0x28c0>
    1335:	bf 76 00 00 00 00 00 00	mov64 r6, r7
    1336:	7b 2a 78 ff 00 00 00 00	stxdw [r10 - 136], r2
    1337:	b7 05 00 00 00 00 00 00	mov64 r5, 0
    1338:	79 a0 a0 ff 00 00 00 00	ldxdw r0, [r10 - 96]
    1339:	05 00 ee 00 00 00 00 00	ja +238 <.text+0x3030>
    1340:	69 37 10 01 00 00 00 00	ldxh r7, [r3 + 272]
    1341:	69 89 12 01 00 00 00 00	ldxh r9, [r8 + 274]
    1342:	b7 01 00 00 0b 00 00 00	mov64 r1, 11
    1343:	7b 6a 90 ff 00 00 00 00	stxdw [r10 - 112], r6
    1344:	7b 8a b0 ff 00 00 00 00	stxdw [r10 - 80], r8
    1345:	2d 91 37 01 00 00 00 00	jgt r1, r9, +311 <.text+0x32a8>
    1346:	bf a1 00 00 00 00 00 00	mov64 r1, r10
    1347:	07 01 00 00 e8 ff ff ff	add64 r1, -24
    1348:	bf 72 00 00 00 00 00 00	mov64 r2, r7
    1349:	85 10 00 00 60 31 00 00	call 12640
    1350:	18 01 00 00 00 00 00 00 00 00 00 00 03 00 00 00	lddw r1, 12884901888
    1352:	79 12 00 00 00 00 00 00	ldxdw r2, [r1 + 0]
    1353:	18 01 00 00 00 80 00 00 00 00 00 00 03 00 00 00	lddw r1, 12884934656
    1355:	15 02 01 00 00 00 00 00	jeq r2, 0, +1 <.text+0x2948>
    1356:	bf 21 00 00 00 00 00 00	mov64 r1, r2
    1357:	79 a5 f8 ff 00 00 00 00	ldxdw r5, [r10 - 8]
    1358:	79 a0 f0 ff 00 00 00 00	ldxdw r0, [r10 - 16]
    1359:	79 a9 e8 ff 00 00 00 00	ldxdw r9, [r10 - 24]
    1360:	b7 07 00 00 00 00 00 00	mov64 r7, 0
    1361:	b7 03 00 00 01 00 00 00	mov64 r3, 1
    1362:	bf 12 00 00 00 00 00 00	mov64 r2, r1
    1363:	07 02 00 00 80 fe ff ff	add64 r2, -384
    1364:	2d 12 01 00 00 00 00 00	jgt r2, r1, +1 <.text+0x2990>
    1365:	b7 03 00 00 00 00 00 00	mov64 r3, 0
    1366:	55 03 01 00 00 00 00 00	jne r3, 0, +1 <.text+0x29a0>
    1367:	bf 27 00 00 00 00 00 00	mov64 r7, r2
    1368:	57 07 00 00 f8 ff ff ff	and64 r7, -8
    1369:	18 01 00 00 07 00 00 00 00 00 00 00 03 00 00 00	lddw r1, 12884901895
    1371:	2d 17 04 00 00 00 00 00	jgt r7, r1, +4 <.text+0x29e0>
    1372:	b7 01 00 00 08 00 00 00	mov64 r1, 8
    1373:	b7 02 00 00 80 01 00 00	mov64 r2, 384
    1374:	85 10 00 00 31 31 00 00	call 12593
    1375:	85 10 00 00 ff ff ff ff	call -1
    1376:	69 81 12 01 00 00 00 00	ldxh r1, [r8 + 274]
    1377:	7b 1a 98 ff 00 00 00 00	stxdw [r10 - 104], r1
    1378:	18 01 00 00 00 00 00 00 00 00 00 00 03 00 00 00	lddw r1, 12884901888
    1380:	7b 71 00 00 00 00 00 00	stxdw [r1 + 0], r7
    1381:	b7 01 00 00 00 00 00 00	mov64 r1, 0
    1382:	6b 17 12 01 00 00 00 00	stxh [r7 + 274], r1
    1383:	7b 17 00 00 00 00 00 00	stxdw [r7 + 0], r1
    1384:	bf 92 00 00 00 00 00 00	mov64 r2, r9
    1385:	a7 02 00 00 ff ff ff ff	xor64 r2, -1
    1386:	69 81 12 01 00 00 00 00	ldxh r1, [r8 + 274]
    1387:	bf 16 00 00 00 00 00 00	mov64 r6, r1
    1388:	0f 26 00 00 00 00 00 00	add64 r6, r2
    1389:	6b 67 12 01 00 00 00 00	stxh [r7 + 274], r6
    1390:	bf 93 00 00 00 00 00 00	mov64 r3, r9
    1391:	27 03 00 00 18 00 00 00	mul64 r3, 24
    1392:	bf 82 00 00 00 00 00 00	mov64 r2, r8
    1393:	07 02 00 00 08 00 00 00	add64 r2, 8
    1394:	bf 24 00 00 00 00 00 00	mov64 r4, r2
    1395:	0f 34 00 00 00 00 00 00	add64 r4, r3
    1396:	79 43 10 00 00 00 00 00	ldxdw r3, [r4 + 16]
    1397:	7b 3a f8 ff 00 00 00 00	stxdw [r10 - 8], r3
    1398:	79 43 08 00 00 00 00 00	ldxdw r3, [r4 + 8]
    1399:	7b 3a f0 ff 00 00 00 00	stxdw [r10 - 16], r3
    1400:	79 43 00 00 00 00 00 00	ldxdw r3, [r4 + 0]
    1401:	7b 3a e8 ff 00 00 00 00	stxdw [r10 - 24], r3
    1402:	b7 03 00 00 0c 00 00 00	mov64 r3, 12
    1403:	2d 63 02 00 00 00 00 00	jgt r3, r6, +2 <.text+0x2ad0>
    1404:	bf 61 00 00 00 00 00 00	mov64 r1, r6
    1405:	05 00 2f ff 00 00 00 00	ja -209 <.text+0x2448>
    1406:	7b 0a 70 ff 00 00 00 00	stxdw [r10 - 144], r0
    1407:	7b 5a a8 ff 00 00 00 00	stxdw [r10 - 88], r5
    1408:	bf 94 00 00 00 00 00 00	mov64 r4, r9
    1409:	07 09 00 00 01 00 00 00	add64 r9, 1
    1410:	1f 91 00 00 00 00 00 00	sub64 r1, r9
    1411:	1d 61 01 00 00 00 00 00	jeq r1, r6, +1 <.text+0x2b08>
    1412:	05 00 35 ff 00 00 00 00	ja -203 <.text+0x24b0>
    1413:	07 08 00 00 14 01 00 00	add64 r8, 276
    1414:	bf 81 00 00 00 00 00 00	mov64 r1, r8
    1415:	0f 41 00 00 00 00 00 00	add64 r1, r4
    1416:	71 11 00 00 00 00 00 00	ldxb r1, [r1 + 0]
    1417:	7b 1a 68 ff 00 00 00 00	stxdw [r10 - 152], r1
    1418:	bf 91 00 00 00 00 00 00	mov64 r1, r9
    1419:	27 01 00 00 18 00 00 00	mul64 r1, 24
    1420:	0f 12 00 00 00 00 00 00	add64 r2, r1
    1421:	bf 71 00 00 00 00 00 00	mov64 r1, r7
    1422:	07 01 00 00 08 00 00 00	add64 r1, 8
    1423:	bf 63 00 00 00 00 00 00	mov64 r3, r6
    1424:	27 03 00 00 18 00 00 00	mul64 r3, 24
    1425:	7b 4a 88 ff 00 00 00 00	stxdw [r10 - 120], r4
    1426:	85 10 00 00 07 42 00 00	call 16903
    1427:	0f 98 00 00 00 00 00 00	add64 r8, r9
    1428:	bf 71 00 00 00 00 00 00	mov64 r1, r7
    1429:	07 01 00 00 14 01 00 00	add64 r1, 276
    1430:	bf 82 00 00 00 00 00 00	mov64 r2, r8
    1431:	bf 63 00 00 00 00 00 00	mov64 r3, r6
    1432:	85 10 00 00 01 42 00 00	call 16897
    1433:	79 a4 88 ff 00 00 00 00	ldxdw r4, [r10 - 120]
    1434:	79 a1 b0 ff 00 00 00 00	ldxdw r1, [r10 - 80]
    1435:	6b 41 12 01 00 00 00 00	stxh [r1 + 274], r4
    1436:	79 a1 e8 ff 00 00 00 00	ldxdw r1, [r10 - 24]
    1437:	7b 1a d0 ff 00 00 00 00	stxdw [r10 - 48], r1
    1438:	79 a1 f0 ff 00 00 00 00	ldxdw r1, [r10 - 16]
    1439:	7b 1a d8 ff 00 00 00 00	stxdw [r10 - 40], r1
    1440:	79 a1 f8 ff 00 00 00 00	ldxdw r1, [r10 - 8]
    1441:	7b 1a e0 ff 00 00 00 00	stxdw [r10 - 32], r1
    1442:	69 78 12 01 00 00 00 00	ldxh r8, [r7 + 274]
    1443:	bf 81 00 00 00 00 00 00	mov64 r1, r8
    1444:	07 01 00 00 01 00 00 00	add64 r1, 1
    1445:	b7 02 00 00 0c 00 00 00	mov64 r2, 12
    1446:	2d 82 04 00 00 00 00 00	jgt r2, r8, +4 <.text+0x2c38>
    1447:	18 03 00 00 f0 7a 02 00 00 00 00 00 00 00 00 00	lddw r3, 162544
    1449:	85 10 00 00 a6 3a 00 00	call 15014
    1450:	85 10 00 00 ff ff ff ff	call -1
    1451:	79 a3 98 ff 00 00 00 00	ldxdw r3, [r10 - 104]
    1452:	1f 43 00 00 00 00 00 00	sub64 r3, r4
    1453:	1d 13 01 00 00 00 00 00	jeq r3, r1, +1 <.text+0x2c58>
    1454:	05 00 0b ff 00 00 00 00	ja -245 <.text+0x24b0>
    1455:	79 a1 a0 ff 00 00 00 00	ldxdw r1, [r10 - 96]
    1456:	07 01 00 00 01 00 00 00	add64 r1, 1
    1457:	7b 1a a0 ff 00 00 00 00	stxdw [r10 - 96], r1
    1458:	67 09 00 00 03 00 00 00	lsh64 r9, 3
    1459:	79 a2 b0 ff 00 00 00 00	ldxdw r2, [r10 - 80]
    1460:	0f 92 00 00 00 00 00 00	add64 r2, r9
    1461:	bf 76 00 00 00 00 00 00	mov64 r6, r7
    1462:	07 06 00 00 20 01 00 00	add64 r6, 288
    1463:	07 02 00 00 20 01 00 00	add64 r2, 288
    1464:	67 03 00 00 03 00 00 00	lsh64 r3, 3
    1465:	bf 61 00 00 00 00 00 00	mov64 r1, r6
    1466:	85 10 00 00 df 41 00 00	call 16863
    1467:	b7 01 00 00 00 00 00 00	mov64 r1, 0
    1468:	79 a4 a8 ff 00 00 00 00	ldxdw r4, [r10 - 88]
    1469:	79 a5 70 ff 00 00 00 00	ldxdw r5, [r10 - 144]
    1470:	05 00 07 00 00 00 00 00	ja +7 <.text+0x2d10>
    1471:	3d 81 02 00 00 00 00 00	jge r1, r8, +2 <.text+0x2cf0>
    1472:	0f 21 00 00 00 00 00 00	add64 r1, r2
    1473:	3d 18 04 00 00 00 00 00	jge r8, r1, +4 <.text+0x2d10>
    1474:	79 a9 b0 ff 00 00 00 00	ldxdw r9, [r10 - 80]
    1475:	15 05 0d 00 00 00 00 00	jeq r5, 0, +13 <.text+0x2d68>
    1476:	bf 79 00 00 00 00 00 00	mov64 r9, r7
    1477:	05 00 0b 00 00 00 00 00	ja +11 <.text+0x2d68>
    1478:	bf 12 00 00 00 00 00 00	mov64 r2, r1
    1479:	67 02 00 00 03 00 00 00	lsh64 r2, 3
    1480:	bf 63 00 00 00 00 00 00	mov64 r3, r6
    1481:	0f 23 00 00 00 00 00 00	add64 r3, r2
    1482:	79 32 00 00 00 00 00 00	ldxdw r2, [r3 + 0]
    1483:	7b 72 00 00 00 00 00 00	stxdw [r2 + 0], r7
    1484:	6b 12 10 01 00 00 00 00	stxh [r2 + 272], r1
    1485:	b7 02 00 00 01 00 00 00	mov64 r2, 1
    1486:	2d 18 f0 ff 00 00 00 00	jgt r8, r1, -16 <.text+0x2cd8>
    1487:	b7 02 00 00 00 00 00 00	mov64 r2, 0
    1488:	05 00 ee ff 00 00 00 00	ja -18 <.text+0x2cd8>
    1489:	79 a1 e0 ff 00 00 00 00	ldxdw r1, [r10 - 32]
    1490:	7b 1a f8 ff 00 00 00 00	stxdw [r10 - 8], r1
    1491:	79 a1 d8 ff 00 00 00 00	ldxdw r1, [r10 - 40]
    1492:	7b 1a f0 ff 00 00 00 00	stxdw [r10 - 16], r1
    1493:	79 a1 d0 ff 00 00 00 00	ldxdw r1, [r10 - 48]
    1494:	7b 1a e8 ff 00 00 00 00	stxdw [r10 - 24], r1
    1495:	bf 91 00 00 00 00 00 00	mov64 r1, r9
    1496:	07 01 00 00 08 00 00 00	add64 r1, 8
    1497:	bf 42 00 00 00 00 00 00	mov64 r2, r4
    1498:	27 02 00 00 18 00 00 00	mul64 r2, 24
    1499:	bf 16 00 00 00 00 00 00	mov64 r6, r1
    1500:	0f 26 00 00 00 00 00 00	add64 r6, r2
    1501:	69 95 12 01 00 00 00 00	ldxh r5, [r9 + 274]
    1502:	bf 48 00 00 00 00 00 00	mov64 r8, r4
    1503:	07 08 00 00 01 00 00 00	add64 r8, 1
    1504:	7b 5a 98 ff 00 00 00 00	stxdw [r10 - 104], r5
    1505:	2d 58 01 00 00 00 00 00	jgt r8, r5, +1 <.text+0x2df8>
    1506:	05 00 07 00 00 00 00 00	ja +7 <.text+0x2e30>
    1507:	79 a1 c8 ff 00 00 00 00	ldxdw r1, [r10 - 56]
    1508:	7b 16 10 00 00 00 00 00	stxdw [r6 + 16], r1
    1509:	79 a1 c0 ff 00 00 00 00	ldxdw r1, [r10 - 64]
    1510:	7b 16 08 00 00 00 00 00	stxdw [r6 + 8], r1
    1511:	79 a1 b8 ff 00 00 00 00	ldxdw r1, [r10 - 72]
    1512:	7b 16 00 00 00 00 00 00	stxdw [r6 + 0], r1
    1513:	05 00 19 00 00 00 00 00	ja +25 <.text+0x2ef8>
    1514:	bf 82 00 00 00 00 00 00	mov64 r2, r8
    1515:	27 02 00 00 18 00 00 00	mul64 r2, 24
    1516:	0f 21 00 00 00 00 00 00	add64 r1, r2
    1517:	bf 53 00 00 00 00 00 00	mov64 r3, r5
    1518:	1f 43 00 00 00 00 00 00	sub64 r3, r4
    1519:	7b 3a 88 ff 00 00 00 00	stxdw [r10 - 120], r3
    1520:	27 03 00 00 18 00 00 00	mul64 r3, 24
    1521:	bf 62 00 00 00 00 00 00	mov64 r2, r6
    1522:	85 10 00 00 c9 41 00 00	call 16841
    1523:	79 a1 b8 ff 00 00 00 00	ldxdw r1, [r10 - 72]
    1524:	7b 16 00 00 00 00 00 00	stxdw [r6 + 0], r1
    1525:	79 a1 c0 ff 00 00 00 00	ldxdw r1, [r10 - 64]
    1526:	7b 16 08 00 00 00 00 00	stxdw [r6 + 8], r1
    1527:	79 a1 c8 ff 00 00 00 00	ldxdw r1, [r10 - 56]
    1528:	7b 16 10 00 00 00 00 00	stxdw [r6 + 16], r1
    1529:	bf 92 00 00 00 00 00 00	mov64 r2, r9
    1530:	07 02 00 00 14 01 00 00	add64 r2, 276
    1531:	bf 21 00 00 00 00 00 00	mov64 r1, r2
    1532:	0f 81 00 00 00 00 00 00	add64 r1, r8
    1533:	79 a3 a8 ff 00 00 00 00	ldxdw r3, [r10 - 88]
    1534:	0f 32 00 00 00 00 00 00	add64 r2, r3
    1535:	79 a3 88 ff 00 00 00 00	ldxdw r3, [r10 - 120]
    1536:	85 10 00 00 bb 41 00 00	call 16827
    1537:	79 a5 98 ff 00 00 00 00	ldxdw r5, [r10 - 104]
    1538:	79 a4 a8 ff 00 00 00 00	ldxdw r4, [r10 - 88]
    1539:	bf 91 00 00 00 00 00 00	mov64 r1, r9
    1540:	0f 41 00 00 00 00 00 00	add64 r1, r4
    1541:	79 a2 78 ff 00 00 00 00	ldxdw r2, [r10 - 136]
    1542:	73 21 14 01 00 00 00 00	stxb [r1 + 276], r2
    1543:	bf 90 00 00 00 00 00 00	mov64 r0, r9
    1544:	07 00 00 00 20 01 00 00	add64 r0, 288
    1545:	bf 42 00 00 00 00 00 00	mov64 r2, r4
    1546:	07 02 00 00 02 00 00 00	add64 r2, 2
    1547:	bf 56 00 00 00 00 00 00	mov64 r6, r5
    1548:	07 06 00 00 02 00 00 00	add64 r6, 2
    1549:	3d 62 0f 00 00 00 00 00	jge r2, r6, +15 <.text+0x2fc8>
    1550:	67 02 00 00 03 00 00 00	lsh64 r2, 3
    1551:	bf 01 00 00 00 00 00 00	mov64 r1, r0
    1552:	0f 21 00 00 00 00 00 00	add64 r1, r2
    1553:	bf 83 00 00 00 00 00 00	mov64 r3, r8
    1554:	67 03 00 00 03 00 00 00	lsh64 r3, 3
    1555:	bf 02 00 00 00 00 00 00	mov64 r2, r0
    1556:	0f 32 00 00 00 00 00 00	add64 r2, r3
    1557:	bf 53 00 00 00 00 00 00	mov64 r3, r5
    1558:	1f 43 00 00 00 00 00 00	sub64 r3, r4
    1559:	67 03 00 00 03 00 00 00	lsh64 r3, 3
    1560:	7b 0a 88 ff 00 00 00 00	stxdw [r10 - 120], r0
    1561:	85 10 00 00 a2 41 00 00	call 16802
    1562:	79 a0 88 ff 00 00 00 00	ldxdw r0, [r10 - 120]
    1563:	79 a5 98 ff 00 00 00 00	ldxdw r5, [r10 - 104]
    1564:	79 a4 a8 ff 00 00 00 00	ldxdw r4, [r10 - 88]
    1565:	07 05 00 00 01 00 00 00	add64 r5, 1
    1566:	bf 81 00 00 00 00 00 00	mov64 r1, r8
    1567:	67 01 00 00 03 00 00 00	lsh64 r1, 3
    1568:	0f 10 00 00 00 00 00 00	add64 r0, r1
    1569:	79 a1 90 ff 00 00 00 00	ldxdw r1, [r10 - 112]
    1570:	7b 10 00 00 00 00 00 00	stxdw [r0 + 0], r1
    1571:	6b 59 12 01 00 00 00 00	stxh [r9 + 274], r5
    1572:	3d 68 05 ff 00 00 00 00	jge r8, r6, -251 <.text+0x2830>
    1573:	67 04 00 00 03 00 00 00	lsh64 r4, 3
    1574:	bf 91 00 00 00 00 00 00	mov64 r1, r9
    1575:	0f 41 00 00 00 00 00 00	add64 r1, r4
    1576:	07 01 00 00 28 01 00 00	add64 r1, 296
    1577:	05 00 fa fe 00 00 00 00	ja -262 <.text+0x2800>
    1578:	79 a2 80 ff 00 00 00 00	ldxdw r2, [r10 - 128]
    1579:	79 21 00 00 00 00 00 00	ldxdw r1, [r2 + 0]
    1580:	15 01 01 00 00 00 00 00	jeq r1, 0, +1 <.text+0x3050>
    1581:	bf 25 00 00 00 00 00 00	mov64 r5, r2
    1582:	55 01 07 00 00 00 00 00	jne r1, 0, +7 <.text+0x3090>
    1583:	18 01 00 00 85 52 02 00 00 00 00 00 00 00 00 00	lddw r1, 152197
    1585:	b7 02 00 00 2b 00 00 00	mov64 r2, 43
    1586:	18 03 00 00 78 7a 02 00 00 00 00 00 00 00 00 00	lddw r3, 162424
    1588:	85 10 00 00 32 33 00 00	call 13106
    1589:	85 10 00 00 ff ff ff ff	call -1
    1590:	18 01 00 00 00 00 00 00 00 00 00 00 03 00 00 00	lddw r1, 12884901888
    1592:	79 11 00 00 00 00 00 00	ldxdw r1, [r1 + 0]
    1593:	18 03 00 00 00 80 00 00 00 00 00 00 03 00 00 00	lddw r3, 12884934656
    1595:	15 01 01 00 00 00 00 00	jeq r1, 0, +1 <.text+0x30c8>
    1596:	bf 13 00 00 00 00 00 00	mov64 r3, r1
    1597:	bf 32 00 00 00 00 00 00	mov64 r2, r3
    1598:	07 02 00 00 80 fe ff ff	add64 r2, -384
    1599:	b7 01 00 00 00 00 00 00	mov64 r1, 0
    1600:	b7 04 00 00 01 00 00 00	mov64 r4, 1
    1601:	2d 32 01 00 00 00 00 00	jgt r2, r3, +1 <.text+0x30f8>
    1602:	b7 04 00 00 00 00 00 00	mov64 r4, 0
    1603:	55 04 01 00 00 00 00 00	jne r4, 0, +1 <.text+0x3108>
    1604:	bf 21 00 00 00 00 00 00	mov64 r1, r2
    1605:	57 01 00 00 f8 ff ff ff	and64 r1, -8
    1606:	18 02 00 00 07 00 00 00 00 00 00 00 03 00 00 00	lddw r2, 12884901895
    1608:	2d 21 01 00 00 00 00 00	jgt r1, r2, +1 <.text+0x3130>
    1609:	05 00 12 ff 00 00 00 00	ja -238 <.text+0x29c0>
    1610:	79 52 08 00 00 00 00 00	ldxdw r2, [r5 + 8]
    1611:	79 53 00 00 00 00 00 00	ldxdw r3, [r5 + 0]
    1612:	18 04 00 00 00 00 00 00 00 00 00 00 03 00 00 00	lddw r4, 12884901888
    1614:	7b 14 00 00 00 00 00 00	stxdw [r4 + 0], r1
    1615:	7b 31 20 01 00 00 00 00	stxdw [r1 + 288], r3
    1616:	b7 04 00 00 00 00 00 00	mov64 r4, 0
    1617:	6b 41 12 01 00 00 00 00	stxh [r1 + 274], r4
    1618:	7b 41 00 00 00 00 00 00	stxdw [r1 + 0], r4
    1619:	6b 43 10 01 00 00 00 00	stxh [r3 + 272], r4
    1620:	7b 13 00 00 00 00 00 00	stxdw [r3 + 0], r1
    1621:	bf 23 00 00 00 00 00 00	mov64 r3, r2
    1622:	07 03 00 00 01 00 00 00	add64 r3, 1
    1623:	7b 35 08 00 00 00 00 00	stxdw [r5 + 8], r3
    1624:	7b 15 00 00 00 00 00 00	stxdw [r5 + 0], r1
    1625:	5d 02 74 00 00 00 00 00	jne r2, r0, +116 <.text+0x3550>
    1626:	69 14 12 01 00 00 00 00	ldxh r4, [r1 + 274]
    1627:	25 04 79 00 0a 00 00 00	jgt r4, 10, +121 <.text+0x3588>
    1628:	bf 12 00 00 00 00 00 00	mov64 r2, r1
    1629:	07 02 00 00 20 01 00 00	add64 r2, 288
    1630:	bf 43 00 00 00 00 00 00	mov64 r3, r4
    1631:	07 03 00 00 01 00 00 00	add64 r3, 1
    1632:	6b 31 12 01 00 00 00 00	stxh [r1 + 274], r3
    1633:	bf 15 00 00 00 00 00 00	mov64 r5, r1
    1634:	0f 45 00 00 00 00 00 00	add64 r5, r4
    1635:	27 04 00 00 18 00 00 00	mul64 r4, 24
    1636:	bf 10 00 00 00 00 00 00	mov64 r0, r1
    1637:	0f 40 00 00 00 00 00 00	add64 r0, r4
    1638:	79 a4 c8 ff 00 00 00 00	ldxdw r4, [r10 - 56]
    1639:	7b 40 18 00 00 00 00 00	stxdw [r0 + 24], r4
    1640:	79 a4 c0 ff 00 00 00 00	ldxdw r4, [r10 - 64]
    1641:	7b 40 10 00 00 00 00 00	stxdw [r0 + 16], r4
    1642:	79 a4 b8 ff 00 00 00 00	ldxdw r4, [r10 - 72]
    1643:	7b 40 08 00 00 00 00 00	stxdw [r0 + 8], r4
    1644:	79 a4 78 ff 00 00 00 00	ldxdw r4, [r10 - 136]
    1645:	73 45 14 01 00 00 00 00	stxb [r5 + 276], r4
    1646:	bf 34 00 00 00 00 00 00	mov64 r4, r3
    1647:	67 04 00 00 03 00 00 00	lsh64 r4, 3
    1648:	0f 42 00 00 00 00 00 00	add64 r2, r4
    1649:	7b 62 00 00 00 00 00 00	stxdw [r2 + 0], r6
    1650:	6b 36 10 01 00 00 00 00	stxh [r6 + 272], r3
    1651:	7b 16 00 00 00 00 00 00	stxdw [r6 + 0], r1
    1652:	79 a7 80 ff 00 00 00 00	ldxdw r7, [r10 - 128]
    1653:	79 71 10 00 00 00 00 00	ldxdw r1, [r7 + 16]
    1654:	07 01 00 00 01 00 00 00	add64 r1, 1
    1655:	7b 17 10 00 00 00 00 00	stxdw [r7 + 16], r1
    1656:	05 00 ca fd 00 00 00 00	ja -566 <.text+0x20f8>
    1657:	bf 76 00 00 00 00 00 00	mov64 r6, r7
    1658:	07 06 00 00 01 00 00 00	add64 r6, 1
    1659:	bf 72 00 00 00 00 00 00	mov64 r2, r7
    1660:	27 02 00 00 18 00 00 00	mul64 r2, 24
    1661:	bf 81 00 00 00 00 00 00	mov64 r1, r8
    1662:	07 01 00 00 08 00 00 00	add64 r1, 8
    1663:	bf 83 00 00 00 00 00 00	mov64 r3, r8
    1664:	bf 18 00 00 00 00 00 00	mov64 r8, r1
    1665:	0f 28 00 00 00 00 00 00	add64 r8, r2
    1666:	bf 94 00 00 00 00 00 00	mov64 r4, r9
    1667:	07 04 00 00 01 00 00 00	add64 r4, 1
    1668:	2d 79 0b 00 00 00 00 00	jgt r9, r7, +11 <.text+0x3360>
    1669:	79 a1 c8 ff 00 00 00 00	ldxdw r1, [r10 - 56]
    1670:	7b 18 10 00 00 00 00 00	stxdw [r8 + 16], r1
    1671:	79 a1 c0 ff 00 00 00 00	ldxdw r1, [r10 - 64]
    1672:	7b 18 08 00 00 00 00 00	stxdw [r8 + 8], r1
    1673:	79 a1 b8 ff 00 00 00 00	ldxdw r1, [r10 - 72]
    1674:	7b 18 00 00 00 00 00 00	stxdw [r8 + 0], r1
    1675:	bf 31 00 00 00 00 00 00	mov64 r1, r3
    1676:	0f 71 00 00 00 00 00 00	add64 r1, r7
    1677:	79 a2 78 ff 00 00 00 00	ldxdw r2, [r10 - 136]
    1678:	73 21 14 01 00 00 00 00	stxb [r1 + 276], r2
    1679:	05 00 2a 00 00 00 00 00	ja +42 <.text+0x34b0>
    1680:	bf 62 00 00 00 00 00 00	mov64 r2, r6
    1681:	27 02 00 00 18 00 00 00	mul64 r2, 24
    1682:	0f 21 00 00 00 00 00 00	add64 r1, r2
    1683:	bf 92 00 00 00 00 00 00	mov64 r2, r9
    1684:	1f 72 00 00 00 00 00 00	sub64 r2, r7
    1685:	7b 2a a8 ff 00 00 00 00	stxdw [r10 - 88], r2
    1686:	bf 23 00 00 00 00 00 00	mov64 r3, r2
    1687:	27 03 00 00 18 00 00 00	mul64 r3, 24
    1688:	bf 82 00 00 00 00 00 00	mov64 r2, r8
    1689:	7b 4a a0 ff 00 00 00 00	stxdw [r10 - 96], r4
    1690:	85 10 00 00 21 41 00 00	call 16673
    1691:	79 a1 b8 ff 00 00 00 00	ldxdw r1, [r10 - 72]
    1692:	7b 18 00 00 00 00 00 00	stxdw [r8 + 0], r1
    1693:	79 a1 c0 ff 00 00 00 00	ldxdw r1, [r10 - 64]
    1694:	7b 18 08 00 00 00 00 00	stxdw [r8 + 8], r1
    1695:	79 a1 c8 ff 00 00 00 00	ldxdw r1, [r10 - 56]
    1696:	7b 18 10 00 00 00 00 00	stxdw [r8 + 16], r1
    1697:	79 a8 b0 ff 00 00 00 00	ldxdw r8, [r10 - 80]
    1698:	07 08 00 00 14 01 00 00	add64 r8, 276
    1699:	bf 81 00 00 00 00 00 00	mov64 r1, r8
    1700:	0f 61 00 00 00 00 00 00	add64 r1, r6
    1701:	0f 78 00 00 00 00 00 00	add64 r8, r7
    1702:	bf 82 00 00 00 00 00 00	mov64 r2, r8
    1703:	79 a3 a8 ff 00 00 00 00	ldxdw r3, [r10 - 88]
    1704:	85 10 00 00 13 41 00 00	call 16659
    1705:	79 a1 78 ff 00 00 00 00	ldxdw r1, [r10 - 136]
    1706:	73 18 00 00 00 00 00 00	stxb [r8 + 0], r1
    1707:	bf 63 00 00 00 00 00 00	mov64 r3, r6
    1708:	67 03 00 00 03 00 00 00	lsh64 r3, 3
    1709:	79 a8 b0 ff 00 00 00 00	ldxdw r8, [r10 - 80]
    1710:	bf 82 00 00 00 00 00 00	mov64 r2, r8
    1711:	07 02 00 00 20 01 00 00	add64 r2, 288
    1712:	bf 71 00 00 00 00 00 00	mov64 r1, r7
    1713:	67 01 00 00 03 00 00 00	lsh64 r1, 3
    1714:	0f 21 00 00 00 00 00 00	add64 r1, r2
    1715:	0f 32 00 00 00 00 00 00	add64 r2, r3
    1716:	79 a3 a8 ff 00 00 00 00	ldxdw r3, [r10 - 88]
    1717:	67 03 00 00 03 00 00 00	lsh64 r3, 3
    1718:	07 01 00 00 10 00 00 00	add64 r1, 16
    1719:	85 10 00 00 04 41 00 00	call 16644
    1720:	79 a4 a0 ff 00 00 00 00	ldxdw r4, [r10 - 96]
    1721:	bf 83 00 00 00 00 00 00	mov64 r3, r8
    1722:	bf 61 00 00 00 00 00 00	mov64 r1, r6
    1723:	67 01 00 00 03 00 00 00	lsh64 r1, 3
    1724:	bf 32 00 00 00 00 00 00	mov64 r2, r3
    1725:	0f 12 00 00 00 00 00 00	add64 r2, r1
    1726:	79 a1 90 ff 00 00 00 00	ldxdw r1, [r10 - 112]
    1727:	7b 12 20 01 00 00 00 00	stxdw [r2 + 288], r1
    1728:	6b 43 12 01 00 00 00 00	stxh [r3 + 274], r4
    1729:	07 09 00 00 02 00 00 00	add64 r9, 2
    1730:	3d 96 b1 ff 00 00 00 00	jge r6, r9, -79 <.text+0x3280>
    1731:	67 07 00 00 03 00 00 00	lsh64 r7, 3
    1732:	bf 31 00 00 00 00 00 00	mov64 r1, r3
    1733:	0f 71 00 00 00 00 00 00	add64 r1, r7
    1734:	07 01 00 00 28 01 00 00	add64 r1, 296
    1735:	79 12 00 00 00 00 00 00	ldxdw r2, [r1 + 0]
    1736:	7b 32 00 00 00 00 00 00	stxdw [r2 + 0], r3
    1737:	6b 62 10 01 00 00 00 00	stxh [r2 + 272], r6
    1738:	07 01 00 00 08 00 00 00	add64 r1, 8
    1739:	07 06 00 00 01 00 00 00	add64 r6, 1
    1740:	2d 69 fa ff 00 00 00 00	jgt r9, r6, -6 <.text+0x3518>
    1741:	05 00 a6 ff 00 00 00 00	ja -90 <.text+0x3280>
    1742:	18 01 00 00 97 53 02 00 00 00 00 00 00 00 00 00	lddw r1, 152471
    1744:	b7 02 00 00 30 00 00 00	mov64 r2, 48
    1745:	18 03 00 00 a8 7a 02 00 00 00 00 00 00 00 00 00	lddw r3, 162472
    1747:	85 10 00 00 93 32 00 00	call 12947
    1748:	85 10 00 00 ff ff ff ff	call -1
    1749:	18 01 00 00 ec 50 02 00 00 00 00 00 00 00 00 00	lddw r1, 151788
    1751:	b7 02 00 00 20 00 00 00	mov64 r2, 32
    1752:	18 03 00 00 90 7a 02 00 00 00 00 00 00 00 00 00	lddw r3, 162448
    1754:	85 10 00 00 8c 32 00 00	call 12940
    1755:	85 10 00 00 ff ff ff ff	call -1
    1756:	bf 37 00 00 00 00 00 00	mov64 r7, r3
    1757:	bf 16 00 00 00 00 00 00	mov64 r6, r1
    1758:	15 02 1a 00 00 00 00 00	jeq r2, 0, +26 <.text+0x36a8>
    1759:	79 41 08 00 00 00 00 00	ldxdw r1, [r4 + 8]
    1760:	15 01 36 00 00 00 00 00	jeq r1, 0, +54 <.text+0x3798>
    1761:	79 43 10 00 00 00 00 00	ldxdw r3, [r4 + 16]
    1762:	55 03 1b 00 00 00 00 00	jne r3, 0, +27 <.text+0x36d0>
    1763:	b7 08 00 00 01 00 00 00	mov64 r8, 1
    1764:	b7 01 00 00 00 00 00 00	mov64 r1, 0
    1765:	15 07 4a 00 00 00 00 00	jeq r7, 0, +74 <.text+0x3860>
    1766:	18 01 00 00 00 00 00 00 00 00 00 00 03 00 00 00	lddw r1, 12884901888
    1768:	79 11 00 00 00 00 00 00	ldxdw r1, [r1 + 0]
    1769:	18 02 00 00 00 80 00 00 00 00 00 00 03 00 00 00	lddw r2, 12884934656
    1771:	15 01 01 00 00 00 00 00	jeq r1, 0, +1 <.text+0x3648>
    1772:	bf 12 00 00 00 00 00 00	mov64 r2, r1
    1773:	bf 21 00 00 00 00 00 00	mov64 r1, r2
    1774:	1f 71 00 00 00 00 00 00	sub64 r1, r7
    1775:	b7 08 00 00 00 00 00 00	mov64 r8, 0
    1776:	b7 03 00 00 01 00 00 00	mov64 r3, 1
    1777:	2d 21 01 00 00 00 00 00	jgt r1, r2, +1 <.text+0x3678>
    1778:	b7 03 00 00 00 00 00 00	mov64 r3, 0
    1779:	55 03 01 00 00 00 00 00	jne r3, 0, +1 <.text+0x3688>
    1780:	bf 18 00 00 00 00 00 00	mov64 r8, r1
    1781:	18 01 00 00 08 00 00 00 00 00 00 00 03 00 00 00	lddw r1, 12884901896
    1783:	2d 81 3c 00 00 00 00 00	jgt r1, r8, +60 <.text+0x3880>
    1784:	05 00 33 00 00 00 00 00	ja +51 <.text+0x3840>
    1785:	7b 76 10 00 00 00 00 00	stxdw [r6 + 16], r7
    1786:	b7 01 00 00 00 00 00 00	mov64 r1, 0
    1787:	7b 16 08 00 00 00 00 00	stxdw [r6 + 8], r1
    1788:	b7 01 00 00 01 00 00 00	mov64 r1, 1
    1789:	05 00 39 00 00 00 00 00	ja +57 <.text+0x3898>
    1790:	18 01 00 00 00 00 00 00 00 00 00 00 03 00 00 00	lddw r1, 12884901888
    1792:	79 11 00 00 00 00 00 00	ldxdw r1, [r1 + 0]
    1793:	18 02 00 00 00 80 00 00 00 00 00 00 03 00 00 00	lddw r2, 12884934656
    1795:	15 01 01 00 00 00 00 00	jeq r1, 0, +1 <.text+0x3708>
    1796:	bf 12 00 00 00 00 00 00	mov64 r2, r1
    1797:	bf 21 00 00 00 00 00 00	mov64 r1, r2
    1798:	1f 71 00 00 00 00 00 00	sub64 r1, r7
    1799:	b7 08 00 00 00 00 00 00	mov64 r8, 0
    1800:	b7 05 00 00 01 00 00 00	mov64 r5, 1
    1801:	2d 21 01 00 00 00 00 00	jgt r1, r2, +1 <.text+0x3738>
    1802:	b7 05 00 00 00 00 00 00	mov64 r5, 0
    1803:	55 05 01 00 00 00 00 00	jne r5, 0, +1 <.text+0x3748>
    1804:	bf 18 00 00 00 00 00 00	mov64 r8, r1
    1805:	18 01 00 00 08 00 00 00 00 00 00 00 03 00 00 00	lddw r1, 12884901896
    1807:	2d 81 24 00 00 00 00 00	jgt r1, r8, +36 <.text+0x3880>
    1808:	79 42 00 00 00 00 00 00	ldxdw r2, [r4 + 0]
    1809:	18 01 00 00 00 00 00 00 00 00 00 00 03 00 00 00	lddw r1, 12884901888
    1811:	7b 81 00 00 00 00 00 00	stxdw [r1 + 0], r8
    1812:	bf 81 00 00 00 00 00 00	mov64 r1, r8
    1813:	85 10 00 00 84 40 00 00	call 16516
    1814:	05 00 18 00 00 00 00 00	ja +24 <.text+0x3858>
    1815:	b7 08 00 00 01 00 00 00	mov64 r8, 1
    1816:	b7 01 00 00 00 00 00 00	mov64 r1, 0
    1817:	15 07 16 00 00 00 00 00	jeq r7, 0, +22 <.text+0x3860>
    1818:	18 01 00 00 00 00 00 00 00 00 00 00 03 00 00 00	lddw r1, 12884901888
    1820:	79 11 00 00 00 00 00 00	ldxdw r1, [r1 + 0]
    1821:	18 02 00 00 00 80 00 00 00 00 00 00 03 00 00 00	lddw r2, 12884934656
    1823:	15 01 01 00 00 00 00 00	jeq r1, 0, +1 <.text+0x37e8>
    1824:	bf 12 00 00 00 00 00 00	mov64 r2, r1
    1825:	bf 21 00 00 00 00 00 00	mov64 r1, r2
    1826:	1f 71 00 00 00 00 00 00	sub64 r1, r7
    1827:	b7 08 00 00 00 00 00 00	mov64 r8, 0
    1828:	b7 03 00 00 01 00 00 00	mov64 r3, 1
    1829:	2d 21 01 00 00 00 00 00	jgt r1, r2, +1 <.text+0x3818>
    1830:	b7 03 00 00 00 00 00 00	mov64 r3, 0
    1831:	55 03 01 00 00 00 00 00	jne r3, 0, +1 <.text+0x3828>
    1832:	bf 18 00 00 00 00 00 00	mov64 r8, r1
    1833:	18 01 00 00 08 00 00 00 00 00 00 00 03 00 00 00	lddw r1, 12884901896
    1835:	2d 81 08 00 00 00 00 00	jgt r1, r8, +8 <.text+0x3880>
    1836:	18 01 00 00 00 00 00 00 00 00 00 00 03 00 00 00	lddw r1, 12884901888
    1838:	7b 81 00 00 00 00 00 00	stxdw [r1 + 0], r8
    1839:	bf 71 00 00 00 00 00 00	mov64 r1, r7
    1840:	7b 16 10 00 00 00 00 00	stxdw [r6 + 16], r1
    1841:	7b 86 08 00 00 00 00 00	stxdw [r6 + 8], r8
    1842:	b7 01 00 00 00 00 00 00	mov64 r1, 0
    1843:	05 00 03 00 00 00 00 00	ja +3 <.text+0x3898>
    1844:	7b 76 10 00 00 00 00 00	stxdw [r6 + 16], r7
    1845:	b7 01 00 00 01 00 00 00	mov64 r1, 1
    1846:	7b 16 08 00 00 00 00 00	stxdw [r6 + 8], r1
    1847:	7b 16 00 00 00 00 00 00	stxdw [r6 + 0], r1
    1848:	95 00 00 00 00 00 00 00	exit
    1849:	bf 26 00 00 00 00 00 00	mov64 r6, r2
    1850:	bf 17 00 00 00 00 00 00	mov64 r7, r1
    1851:	b7 08 00 00 01 00 00 00	mov64 r8, 1
    1852:	15 06 24 00 00 00 00 00	jeq r6, 0, +36 <.text+0x39e8>
    1853:	65 06 02 00 ff ff ff ff	jsgt r6, -1, +2 <.text+0x38e0>
    1854:	85 10 00 00 40 2f 00 00	call 12096
    1855:	85 10 00 00 ff ff ff ff	call -1
    1856:	18 01 00 00 00 00 00 00 00 00 00 00 03 00 00 00	lddw r1, 12884901888
    1858:	79 11 00 00 00 00 00 00	ldxdw r1, [r1 + 0]
    1859:	18 02 00 00 00 80 00 00 00 00 00 00 03 00 00 00	lddw r2, 12884934656
    1861:	15 01 01 00 00 00 00 00	jeq r1, 0, +1 <.text+0x3918>
    1862:	bf 12 00 00 00 00 00 00	mov64 r2, r1
    1863:	bf 21 00 00 00 00 00 00	mov64 r1, r2
    1864:	1f 61 00 00 00 00 00 00	sub64 r1, r6
    1865:	b7 08 00 00 00 00 00 00	mov64 r8, 0
    1866:	b7 04 00 00 01 00 00 00	mov64 r4, 1
    1867:	2d 21 01 00 00 00 00 00	jgt r1, r2, +1 <.text+0x3948>
    1868:	b7 04 00 00 00 00 00 00	mov64 r4, 0
    1869:	55 04 01 00 00 00 00 00	jne r4, 0, +1 <.text+0x3958>
    1870:	bf 18 00 00 00 00 00 00	mov64 r8, r1
    1871:	55 03 07 00 00 00 00 00	jne r3, 0, +7 <.text+0x3998>
    1872:	18 01 00 00 08 00 00 00 00 00 00 00 03 00 00 00	lddw r1, 12884901896
    1874:	2d 81 11 00 00 00 00 00	jgt r1, r8, +17 <.text+0x3a00>
    1875:	18 01 00 00 00 00 00 00 00 00 00 00 03 00 00 00	lddw r1, 12884901888
    1877:	7b 81 00 00 00 00 00 00	stxdw [r1 + 0], r8
    1878:	05 00 0a 00 00 00 00 00	ja +10 <.text+0x39e8>
    1879:	18 01 00 00 08 00 00 00 00 00 00 00 03 00 00 00	lddw r1, 12884901896
    1881:	2d 81 0a 00 00 00 00 00	jgt r1, r8, +10 <.text+0x3a00>
    1882:	18 01 00 00 00 00 00 00 00 00 00 00 03 00 00 00	lddw r1, 12884901888
    1884:	7b 81 00 00 00 00 00 00	stxdw [r1 + 0], r8
    1885:	bf 81 00 00 00 00 00 00	mov64 r1, r8
    1886:	b7 02 00 00 00 00 00 00	mov64 r2, 0
    1887:	bf 63 00 00 00 00 00 00	mov64 r3, r6
    1888:	85 10 00 00 9e 40 00 00	call 16542
    1889:	7b 67 08 00 00 00 00 00	stxdw [r7 + 8], r6
    1890:	7b 87 00 00 00 00 00 00	stxdw [r7 + 0], r8
    1891:	95 00 00 00 00 00 00 00	exit
    1892:	b7 01 00 00 01 00 00 00	mov64 r1, 1
    1893:	bf 62 00 00 00 00 00 00	mov64 r2, r6
    1894:	85 10 00 00 29 2f 00 00	call 12073
    1895:	85 10 00 00 ff ff ff ff	call -1
    1896:	bf 16 00 00 00 00 00 00	mov64 r6, r1
    1897:	07 02 00 00 01 00 00 00	add64 r2, 1
    1898:	b7 01 00 00 01 00 00 00	mov64 r1, 1
    1899:	15 02 01 00 00 00 00 00	jeq r2, 0, +1 <.text+0x3a48>
    1900:	b7 01 00 00 00 00 00 00	mov64 r1, 0
    1901:	57 01 00 00 01 00 00 00	and64 r1, 1
    1902:	55 01 23 00 00 00 00 00	jne r1, 0, +35 <.text+0x3b70>
    1903:	79 61 08 00 00 00 00 00	ldxdw r1, [r6 + 8]
    1904:	bf 17 00 00 00 00 00 00	mov64 r7, r1
    1905:	67 07 00 00 01 00 00 00	lsh64 r7, 1
    1906:	2d 27 01 00 00 00 00 00	jgt r7, r2, +1 <.text+0x3a80>
    1907:	bf 27 00 00 00 00 00 00	mov64 r7, r2
    1908:	25 07 01 00 08 00 00 00	jgt r7, 8, +1 <.text+0x3a90>
    1909:	b7 07 00 00 08 00 00 00	mov64 r7, 8
    1910:	bf 72 00 00 00 00 00 00	mov64 r2, r7
    1911:	a7 02 00 00 ff ff ff ff	xor64 r2, -1
    1912:	77 02 00 00 3f 00 00 00	rsh64 r2, 63
    1913:	15 01 06 00 00 00 00 00	jeq r1, 0, +6 <.text+0x3ae0>
    1914:	79 63 00 00 00 00 00 00	ldxdw r3, [r6 + 0]
    1915:	7b 1a f8 ff 00 00 00 00	stxdw [r10 - 8], r1
    1916:	b7 01 00 00 01 00 00 00	mov64 r1, 1
    1917:	7b 1a f0 ff 00 00 00 00	stxdw [r10 - 16], r1
    1918:	7b 3a e8 ff 00 00 00 00	stxdw [r10 - 24], r3
    1919:	05 00 02 00 00 00 00 00	ja +2 <.text+0x3af0>
    1920:	b7 01 00 00 00 00 00 00	mov64 r1, 0
    1921:	7b 1a f0 ff 00 00 00 00	stxdw [r10 - 16], r1
    1922:	bf a1 00 00 00 00 00 00	mov64 r1, r10
    1923:	07 01 00 00 d0 ff ff ff	add64 r1, -48
    1924:	bf a4 00 00 00 00 00 00	mov64 r4, r10
    1925:	07 04 00 00 e8 ff ff ff	add64 r4, -24
    1926:	bf 73 00 00 00 00 00 00	mov64 r3, r7
    1927:	85 10 00 00 54 ff ff ff	call -172
    1928:	79 a1 d8 ff 00 00 00 00	ldxdw r1, [r10 - 40]
    1929:	79 a2 d0 ff 00 00 00 00	ldxdw r2, [r10 - 48]
    1930:	55 02 03 00 00 00 00 00	jne r2, 0, +3 <.text+0x3b50>
    1931:	7b 76 08 00 00 00 00 00	stxdw [r6 + 8], r7
    1932:	7b 16 00 00 00 00 00 00	stxdw [r6 + 0], r1
    1933:	95 00 00 00 00 00 00 00	exit
    1934:	18 02 00 00 01 00 00 00 00 00 00 00 00 00 00 80	lddw r2, -9223372036854775807
    1936:	1d 21 fc ff 00 00 00 00	jeq r1, r2, -4 <.text+0x3b48>
    1937:	55 01 02 00 00 00 00 00	jne r1, 0, +2 <.text+0x3b80>
    1938:	85 10 00 00 ec 2e 00 00	call 12012
    1939:	85 10 00 00 ff ff ff ff	call -1
    1940:	79 a2 e0 ff 00 00 00 00	ldxdw r2, [r10 - 32]
    1941:	85 10 00 00 fa 2e 00 00	call 12026
    1942:	85 10 00 00 ff ff ff ff	call -1
    1943:	bf 16 00 00 00 00 00 00	mov64 r6, r1
    1944:	bf 24 00 00 00 00 00 00	mov64 r4, r2
    1945:	0f 34 00 00 00 00 00 00	add64 r4, r3
    1946:	b7 01 00 00 01 00 00 00	mov64 r1, 1
    1947:	2d 42 01 00 00 00 00 00	jgt r2, r4, +1 <.text+0x3bc8>
    1948:	b7 01 00 00 00 00 00 00	mov64 r1, 0
    1949:	57 01 00 00 01 00 00 00	and64 r1, 1
    1950:	55 01 23 00 00 00 00 00	jne r1, 0, +35 <.text+0x3cf0>
    1951:	79 61 08 00 00 00 00 00	ldxdw r1, [r6 + 8]
    1952:	bf 17 00 00 00 00 00 00	mov64 r7, r1
    1953:	67 07 00 00 01 00 00 00	lsh64 r7, 1
    1954:	2d 47 01 00 00 00 00 00	jgt r7, r4, +1 <.text+0x3c00>
    1955:	bf 47 00 00 00 00 00 00	mov64 r7, r4
    1956:	25 07 01 00 08 00 00 00	jgt r7, 8, +1 <.text+0x3c10>
    1957:	b7 07 00 00 08 00 00 00	mov64 r7, 8
    1958:	bf 72 00 00 00 00 00 00	mov64 r2, r7
    1959:	a7 02 00 00 ff ff ff ff	xor64 r2, -1
    1960:	77 02 00 00 3f 00 00 00	rsh64 r2, 63
    1961:	15 01 06 00 00 00 00 00	jeq r1, 0, +6 <.text+0x3c60>
    1962:	79 63 00 00 00 00 00 00	ldxdw r3, [r6 + 0]
    1963:	7b 1a f8 ff 00 00 00 00	stxdw [r10 - 8], r1
    1964:	b7 01 00 00 01 00 00 00	mov64 r1, 1
    1965:	7b 1a f0 ff 00 00 00 00	stxdw [r10 - 16], r1
    1966:	7b 3a e8 ff 00 00 00 00	stxdw [r10 - 24], r3
    1967:	05 00 02 00 00 00 00 00	ja +2 <.text+0x3c70>
    1968:	b7 01 00 00 00 00 00 00	mov64 r1, 0
    1969:	7b 1a f0 ff 00 00 00 00	stxdw [r10 - 16], r1
    1970:	bf a1 00 00 00 00 00 00	mov64 r1, r10
    1971:	07 01 00 00 d0 ff ff ff	add64 r1, -48
    1972:	bf a4 00 00 00 00 00 00	mov64 r4, r10
    1973:	07 04 00 00 e8 ff ff ff	add64 r4, -24
    1974:	bf 73 00 00 00 00 00 00	mov64 r3, r7
    1975:	85 10 00 00 24 ff ff ff	call -220
    1976:	79 a1 d8 ff 00 00 00 00	ldxdw r1, [r10 - 40]
    1977:	79 a2 d0 ff 00 00 00 00	ldxdw r2, [r10 - 48]
    1978:	55 02 03 00 00 00 00 00	jne r2, 0, +3 <.text+0x3cd0>
    1979:	7b 76 08 00 00 00 00 00	stxdw [r6 + 8], r7
    1980:	7b 16 00 00 00 00 00 00	stxdw [r6 + 0], r1
    1981:	95 00 00 00 00 00 00 00	exit
    1982:	18 02 00 00 01 00 00 00 00 00 00 00 00 00 00 80	lddw r2, -9223372036854775807
    1984:	1d 21 fc ff 00 00 00 00	jeq r1, r2, -4 <.text+0x3cc8>
    1985:	55 01 02 00 00 00 00 00	jne r1, 0, +2 <.text+0x3d00>
    1986:	85 10 00 00 bc 2e 00 00	call 11964
    1987:	85 10 00 00 ff ff ff ff	call -1
    1988:	79 a2 e0 ff 00 00 00 00	ldxdw r2, [r10 - 32]
    1989:	85 10 00 00 ca 2e 00 00	call 11978
    1990:	85 10 00 00 ff ff ff ff	call -1
    1991:	79 23 08 00 00 00 00 00	ldxdw r3, [r2 + 8]
    1992:	79 35 00 00 00 00 00 00	ldxdw r5, [r3 + 0]
    1993:	07 05 00 00 01 00 00 00	add64 r5, 1
    1994:	b7 00 00 00 01 00 00 00	mov64 r0, 1
    1995:	15 05 01 00 00 00 00 00	jeq r5, 0, +1 <.text+0x3d48>
    1996:	b7 00 00 00 00 00 00 00	mov64 r0, 0
    1997:	79 24 00 00 00 00 00 00	ldxdw r4, [r2 + 0]
    1998:	7b 53 00 00 00 00 00 00	stxdw [r3 + 0], r5
    1999:	55 00 02 00 01 00 00 00	jne r0, 1, +2 <.text+0x3d70>
    2000:	85 10 00 00 ff ff ff ff	call -1
    2001:	85 10 00 00 ff ff ff ff	call -1
    2002:	79 25 10 00 00 00 00 00	ldxdw r5, [r2 + 16]
    2003:	79 50 00 00 00 00 00 00	ldxdw r0, [r5 + 0]
    2004:	07 00 00 00 01 00 00 00	add64 r0, 1
    2005:	b7 06 00 00 01 00 00 00	mov64 r6, 1
    2006:	15 00 01 00 00 00 00 00	jeq r0, 0, +1 <.text+0x3da0>
    2007:	b7 06 00 00 00 00 00 00	mov64 r6, 0
    2008:	7b 05 00 00 00 00 00 00	stxdw [r5 + 0], r0
    2009:	55 06 01 00 01 00 00 00	jne r6, 1, +1 <.text+0x3db8>
    2010:	05 00 f5 ff 00 00 00 00	ja -11 <.text+0x3d60>
    2011:	79 20 18 00 00 00 00 00	ldxdw r0, [r2 + 24]
    2012:	79 26 20 00 00 00 00 00	ldxdw r6, [r2 + 32]
    2013:	71 27 28 00 00 00 00 00	ldxb r7, [r2 + 40]
    2014:	71 28 29 00 00 00 00 00	ldxb r8, [r2 + 41]
    2015:	71 22 2a 00 00 00 00 00	ldxb r2, [r2 + 42]
    2016:	73 21 2a 00 00 00 00 00	stxb [r1 + 42], r2
    2017:	73 81 29 00 00 00 00 00	stxb [r1 + 41], r8
    2018:	73 71 28 00 00 00 00 00	stxb [r1 + 40], r7
    2019:	7b 61 20 00 00 00 00 00	stxdw [r1 + 32], r6
    2020:	7b 01 18 00 00 00 00 00	stxdw [r1 + 24], r0
    2021:	7b 51 10 00 00 00 00 00	stxdw [r1 + 16], r5
    2022:	7b 31 08 00 00 00 00 00	stxdw [r1 + 8], r3
    2023:	7b 41 00 00 00 00 00 00	stxdw [r1 + 0], r4
    2024:	95 00 00 00 00 00 00 00	exit
    2025:	79 23 08 00 00 00 00 00	ldxdw r3, [r2 + 8]
    2026:	55 03 03 00 00 00 00 00	jne r3, 0, +3 <.text+0x3e50>
    2027:	b7 02 00 00 bd 0b 00 00	mov64 r2, 3005
    2028:	85 10 00 00 d5 1c 00 00	call 7381
    2029:	05 00 08 00 00 00 00 00	ja +8 <.text+0x3e90>
    2030:	07 03 00 00 ff ff ff ff	add64 r3, -1
    2031:	7b 32 08 00 00 00 00 00	stxdw [r2 + 8], r3
    2032:	79 23 00 00 00 00 00 00	ldxdw r3, [r2 + 0]
    2033:	bf 34 00 00 00 00 00 00	mov64 r4, r3
    2034:	07 04 00 00 30 00 00 00	add64 r4, 48
    2035:	7b 42 00 00 00 00 00 00	stxdw [r2 + 0], r4
    2036:	bf 32 00 00 00 00 00 00	mov64 r2, r3
    2037:	85 10 00 00 a1 f9 ff ff	call -1631
    2038:	95 00 00 00 00 00 00 00	exit
    2039:	bf 16 00 00 00 00 00 00	mov64 r6, r1
    2040:	79 21 08 00 00 00 00 00	ldxdw r1, [r2 + 8]
    2041:	55 01 04 00 00 00 00 00	jne r1, 0, +4 <.text+0x3ed0>
    2042:	bf 61 00 00 00 00 00 00	mov64 r1, r6
    2043:	b7 02 00 00 bd 0b 00 00	mov64 r2, 3005
    2044:	85 10 00 00 c5 1c 00 00	call 7365
    2045:	95 00 00 00 00 00 00 00	exit
    2046:	07 01 00 00 ff ff ff ff	add64 r1, -1
    2047:	7b 12 08 00 00 00 00 00	stxdw [r2 + 8], r1
    2048:	79 27 00 00 00 00 00 00	ldxdw r7, [r2 + 0]
    2049:	bf 71 00 00 00 00 00 00	mov64 r1, r7
    2050:	07 01 00 00 30 00 00 00	add64 r1, 48
    2051:	7b 12 00 00 00 00 00 00	stxdw [r2 + 0], r1
    2052:	bf a1 00 00 00 00 00 00	mov64 r1, r10
    2053:	07 01 00 00 20 ff ff ff	add64 r1, -224
    2054:	85 10 00 00 e0 0f 00 00	call 4064
    2055:	79 78 00 00 00 00 00 00	ldxdw r8, [r7 + 0]
    2056:	79 81 00 00 00 00 00 00	ldxdw r1, [r8 + 0]
    2057:	79 a2 20 ff 00 00 00 00	ldxdw r2, [r10 - 224]
    2058:	1d 21 02 00 00 00 00 00	jeq r1, r2, +2 <.text+0x3f48>
    2059:	b7 01 00 00 01 00 00 00	mov64 r1, 1
    2060:	05 00 0a 00 00 00 00 00	ja +10 <.text+0x3f98>
    2061:	79 81 08 00 00 00 00 00	ldxdw r1, [r8 + 8]
    2062:	79 a2 28 ff 00 00 00 00	ldxdw r2, [r10 - 216]
    2063:	5d 21 fb ff 00 00 00 00	jne r1, r2, -5 <.text+0x3f38>
    2064:	79 81 10 00 00 00 00 00	ldxdw r1, [r8 + 16]
    2065:	79 a2 30 ff 00 00 00 00	ldxdw r2, [r10 - 208]
    2066:	5d 21 f8 ff 00 00 00 00	jne r1, r2, -8 <.text+0x3f38>
    2067:	b7 01 00 00 00 00 00 00	mov64 r1, 0
    2068:	79 82 18 00 00 00 00 00	ldxdw r2, [r8 + 24]
    2069:	79 a3 38 ff 00 00 00 00	ldxdw r3, [r10 - 200]
    2070:	5d 32 f4 ff 00 00 00 00	jne r2, r3, -12 <.text+0x3f38>
    2071:	55 01 0c 00 00 00 00 00	jne r1, 0, +12 <.text+0x4000>
    2072:	71 72 2a 00 00 00 00 00	ldxb r2, [r7 + 42]
    2073:	15 02 38 00 00 00 00 00	jeq r2, 0, +56 <.text+0x4170>
    2074:	79 71 08 00 00 00 00 00	ldxdw r1, [r7 + 8]
    2075:	79 13 00 00 00 00 00 00	ldxdw r3, [r1 + 0]
    2076:	07 03 00 00 01 00 00 00	add64 r3, 1
    2077:	b7 04 00 00 01 00 00 00	mov64 r4, 1
    2078:	15 03 01 00 00 00 00 00	jeq r3, 0, +1 <.text+0x3fe0>
    2079:	b7 04 00 00 00 00 00 00	mov64 r4, 0
    2080:	7b 31 00 00 00 00 00 00	stxdw [r1 + 0], r3
    2081:	55 04 18 00 01 00 00 00	jne r4, 1, +24 <.text+0x40b0>
    2082:	85 10 00 00 ff ff ff ff	call -1
    2083:	85 10 00 00 ff ff ff ff	call -1
    2084:	bf a7 00 00 00 00 00 00	mov64 r7, r10
    2085:	07 07 00 00 20 ff ff ff	add64 r7, -224
    2086:	bf 71 00 00 00 00 00 00	mov64 r1, r7
    2087:	b7 02 00 00 c0 0b 00 00	mov64 r2, 3008
    2088:	85 10 00 00 99 1c 00 00	call 7321
    2089:	79 81 18 00 00 00 00 00	ldxdw r1, [r8 + 24]
    2090:	7b 1a d8 ff 00 00 00 00	stxdw [r10 - 40], r1
    2091:	79 81 10 00 00 00 00 00	ldxdw r1, [r8 + 16]
    2092:	7b 1a d0 ff 00 00 00 00	stxdw [r10 - 48], r1
    2093:	79 81 08 00 00 00 00 00	ldxdw r1, [r8 + 8]
    2094:	7b 1a c8 ff 00 00 00 00	stxdw [r10 - 56], r1
    2095:	79 81 00 00 00 00 00 00	ldxdw r1, [r8 + 0]
    2096:	7b 1a c0 ff 00 00 00 00	stxdw [r10 - 64], r1
    2097:	bf a1 00 00 00 00 00 00	mov64 r1, r10
    2098:	07 01 00 00 e0 ff ff ff	add64 r1, -32
    2099:	85 10 00 00 b3 0f 00 00	call 4019
    2100:	bf a3 00 00 00 00 00 00	mov64 r3, r10
    2101:	07 03 00 00 c0 ff ff ff	add64 r3, -64
    2102:	bf 61 00 00 00 00 00 00	mov64 r1, r6
    2103:	bf 72 00 00 00 00 00 00	mov64 r2, r7
    2104:	85 10 00 00 39 16 00 00	call 5689
    2105:	05 00 c3 ff 00 00 00 00	ja -61 <.text+0x3ec8>
    2106:	79 73 10 00 00 00 00 00	ldxdw r3, [r7 + 16]
    2107:	79 34 00 00 00 00 00 00	ldxdw r4, [r3 + 0]
    2108:	07 04 00 00 01 00 00 00	add64 r4, 1
    2109:	b7 05 00 00 01 00 00 00	mov64 r5, 1
    2110:	15 04 01 00 00 00 00 00	jeq r4, 0, +1 <.text+0x40e0>
    2111:	b7 05 00 00 00 00 00 00	mov64 r5, 0
    2112:	7b 43 00 00 00 00 00 00	stxdw [r3 + 0], r4
    2113:	55 05 01 00 01 00 00 00	jne r5, 1, +1 <.text+0x40f8>
    2114:	05 00 df ff 00 00 00 00	ja -33 <.text+0x3ff0>
    2115:	79 74 18 00 00 00 00 00	ldxdw r4, [r7 + 24]
    2116:	79 75 20 00 00 00 00 00	ldxdw r5, [r7 + 32]
    2117:	71 70 28 00 00 00 00 00	ldxb r0, [r7 + 40]
    2118:	71 77 29 00 00 00 00 00	ldxb r7, [r7 + 41]
    2119:	73 26 32 00 00 00 00 00	stxb [r6 + 50], r2
    2120:	73 76 31 00 00 00 00 00	stxb [r6 + 49], r7
    2121:	73 06 30 00 00 00 00 00	stxb [r6 + 48], r0
    2122:	7b 56 28 00 00 00 00 00	stxdw [r6 + 40], r5
    2123:	7b 46 20 00 00 00 00 00	stxdw [r6 + 32], r4
    2124:	7b 36 18 00 00 00 00 00	stxdw [r6 + 24], r3
    2125:	7b 16 10 00 00 00 00 00	stxdw [r6 + 16], r1
    2126:	7b 86 08 00 00 00 00 00	stxdw [r6 + 8], r8
    2127:	b7 01 00 00 04 00 00 00	mov64 r1, 4
    2128:	7b 16 00 00 00 00 00 00	stxdw [r6 + 0], r1
    2129:	05 00 ab ff 00 00 00 00	ja -85 <.text+0x3ec8>
    2130:	bf 61 00 00 00 00 00 00	mov64 r1, r6
    2131:	b7 02 00 00 c1 0b 00 00	mov64 r2, 3009
    2132:	05 00 a7 ff 00 00 00 00	ja -89 <.text+0x3ec0>
    2133:	bf 16 00 00 00 00 00 00	mov64 r6, r1
    2134:	79 21 08 00 00 00 00 00	ldxdw r1, [r2 + 8]
    2135:	55 01 04 00 00 00 00 00	jne r1, 0, +4 <.text+0x41c0>
    2136:	bf 61 00 00 00 00 00 00	mov64 r1, r6
    2137:	b7 02 00 00 bd 0b 00 00	mov64 r2, 3005
    2138:	85 10 00 00 67 1c 00 00	call 7271
    2139:	95 00 00 00 00 00 00 00	exit
    2140:	07 01 00 00 ff ff ff ff	add64 r1, -1
    2141:	7b 12 08 00 00 00 00 00	stxdw [r2 + 8], r1
    2142:	79 27 00 00 00 00 00 00	ldxdw r7, [r2 + 0]
    2143:	bf 71 00 00 00 00 00 00	mov64 r1, r7
    2144:	07 01 00 00 30 00 00 00	add64 r1, 48
    2145:	7b 12 00 00 00 00 00 00	stxdw [r2 + 0], r1
    2146:	bf a1 00 00 00 00 00 00	mov64 r1, r10
    2147:	07 01 00 00 20 ff ff ff	add64 r1, -224
    2148:	85 10 00 00 6e 10 00 00	call 4206
    2149:	79 78 00 00 00 00 00 00	ldxdw r8, [r7 + 0]
    2150:	79 81 00 00 00 00 00 00	ldxdw r1, [r8 + 0]
    2151:	79 a2 20 ff 00 00 00 00	ldxdw r2, [r10 - 224]
    2152:	1d 21 02 00 00 00 00 00	jeq r1, r2, +2 <.text+0x4238>
    2153:	b7 01 00 00 01 00 00 00	mov64 r1, 1
    2154:	05 00 0a 00 00 00 00 00	ja +10 <.text+0x4288>
    2155:	79 81 08 00 00 00 00 00	ldxdw r1, [r8 + 8]
    2156:	79 a2 28 ff 00 00 00 00	ldxdw r2, [r10 - 216]
    2157:	5d 21 fb ff 00 00 00 00	jne r1, r2, -5 <.text+0x4228>
    2158:	79 81 10 00 00 00 00 00	ldxdw r1, [r8 + 16]
    2159:	79 a2 30 ff 00 00 00 00	ldxdw r2, [r10 - 208]
    2160:	5d 21 f8 ff 00 00 00 00	jne r1, r2, -8 <.text+0x4228>
    2161:	b7 01 00 00 00 00 00 00	mov64 r1, 0
    2162:	79 82 18 00 00 00 00 00	ldxdw r2, [r8 + 24]
    2163:	79 a3 38 ff 00 00 00 00	ldxdw r3, [r10 - 200]
    2164:	5d 32 f4 ff 00 00 00 00	jne r2, r3, -12 <.text+0x4228>
    2165:	55 01 0c 00 00 00 00 00	jne r1, 0, +12 <.text+0x42f0>
    2166:	71 72 2a 00 00 00 00 00	ldxb r2, [r7 + 42]
    2167:	15 02 38 00 00 00 00 00	jeq r2, 0, +56 <.text+0x4460>
    2168:	79 71 08 00 00 00 00 00	ldxdw r1, [r7 + 8]
    2169:	79 13 00 00 00 00 00 00	ldxdw r3, [r1 + 0]
    2170:	07 03 00 00 01 00 00 00	add64 r3, 1
    2171:	b7 04 00 00 01 00 00 00	mov64 r4, 1
    2172:	15 03 01 00 00 00 00 00	jeq r3, 0, +1 <.text+0x42d0>
    2173:	b7 04 00 00 00 00 00 00	mov64 r4, 0
    2174:	7b 31 00 00 00 00 00 00	stxdw [r1 + 0], r3
    2175:	55 04 18 00 01 00 00 00	jne r4, 1, +24 <.text+0x43a0>
    2176:	85 10 00 00 ff ff ff ff	call -1
    2177:	85 10 00 00 ff ff ff ff	call -1
    2178:	bf a7 00 00 00 00 00 00	mov64 r7, r10
    2179:	07 07 00 00 20 ff ff ff	add64 r7, -224
    2180:	bf 71 00 00 00 00 00 00	mov64 r1, r7
    2181:	b7 02 00 00 c0 0b 00 00	mov64 r2, 3008
    2182:	85 10 00 00 3b 1c 00 00	call 7227
    2183:	79 81 18 00 00 00 00 00	ldxdw r1, [r8 + 24]
    2184:	7b 1a d8 ff 00 00 00 00	stxdw [r10 - 40], r1
    2185:	79 81 10 00 00 00 00 00	ldxdw r1, [r8 + 16]
    2186:	7b 1a d0 ff 00 00 00 00	stxdw [r10 - 48], r1
    2187:	79 81 08 00 00 00 00 00	ldxdw r1, [r8 + 8]
    2188:	7b 1a c8 ff 00 00 00 00	stxdw [r10 - 56], r1
    2189:	79 81 00 00 00 00 00 00	ldxdw r1, [r8 + 0]
    2190:	7b 1a c0 ff 00 00 00 00	stxdw [r10 - 64], r1
    2191:	bf a1 00 00 00 00 00 00	mov64 r1, r10
    2192:	07 01 00 00 e0 ff ff ff	add64 r1, -32
    2193:	85 10 00 00 41 10 00 00	call 4161
    2194:	bf a3 00 00 00 00 00 00	mov64 r3, r10
    2195:	07 03 00 00 c0 ff ff ff	add64 r3, -64
    2196:	bf 61 00 00 00 00 00 00	mov64 r1, r6
    2197:	bf 72 00 00 00 00 00 00	mov64 r2, r7
    2198:	85 10 00 00 db 15 00 00	call 5595
    2199:	05 00 c3 ff 00 00 00 00	ja -61 <.text+0x41b8>
    2200:	79 73 10 00 00 00 00 00	ldxdw r3, [r7 + 16]
    2201:	79 34 00 00 00 00 00 00	ldxdw r4, [r3 + 0]
    2202:	07 04 00 00 01 00 00 00	add64 r4, 1
    2203:	b7 05 00 00 01 00 00 00	mov64 r5, 1
    2204:	15 04 01 00 00 00 00 00	jeq r4, 0, +1 <.text+0x43d0>
    2205:	b7 05 00 00 00 00 00 00	mov64 r5, 0
    2206:	7b 43 00 00 00 00 00 00	stxdw [r3 + 0], r4
    2207:	55 05 01 00 01 00 00 00	jne r5, 1, +1 <.text+0x43e8>
    2208:	05 00 df ff 00 00 00 00	ja -33 <.text+0x42e0>
    2209:	79 74 18 00 00 00 00 00	ldxdw r4, [r7 + 24]
    2210:	79 75 20 00 00 00 00 00	ldxdw r5, [r7 + 32]
    2211:	71 70 28 00 00 00 00 00	ldxb r0, [r7 + 40]
    2212:	71 77 29 00 00 00 00 00	ldxb r7, [r7 + 41]
    2213:	73 26 32 00 00 00 00 00	stxb [r6 + 50], r2
    2214:	73 76 31 00 00 00 00 00	stxb [r6 + 49], r7
    2215:	73 06 30 00 00 00 00 00	stxb [r6 + 48], r0
    2216:	7b 56 28 00 00 00 00 00	stxdw [r6 + 40], r5
    2217:	7b 46 20 00 00 00 00 00	stxdw [r6 + 32], r4
    2218:	7b 36 18 00 00 00 00 00	stxdw [r6 + 24], r3
    2219:	7b 16 10 00 00 00 00 00	stxdw [r6 + 16], r1
    2220:	7b 86 08 00 00 00 00 00	stxdw [r6 + 8], r8
    2221:	b7 01 00 00 04 00 00 00	mov64 r1, 4
    2222:	7b 16 00 00 00 00 00 00	stxdw [r6 + 0], r1
    2223:	05 00 ab ff 00 00 00 00	ja -85 <.text+0x41b8>
    2224:	bf 61 00 00 00 00 00 00	mov64 r1, r6
    2225:	b7 02 00 00 c1 0b 00 00	mov64 r2, 3009
    2226:	05 00 a7 ff 00 00 00 00	ja -89 <.text+0x41b0>
    2227:	bf 16 00 00 00 00 00 00	mov64 r6, r1
    2228:	79 21 08 00 00 00 00 00	ldxdw r1, [r2 + 8]
    2229:	55 01 04 00 00 00 00 00	jne r1, 0, +4 <.text+0x44b0>
    2230:	bf 61 00 00 00 00 00 00	mov64 r1, r6
    2231:	b7 02 00 00 bd 0b 00 00	mov64 r2, 3005
    2232:	85 10 00 00 09 1c 00 00	call 7177
    2233:	95 00 00 00 00 00 00 00	exit
    2234:	07 01 00 00 ff ff ff ff	add64 r1, -1
    2235:	7b 12 08 00 00 00 00 00	stxdw [r2 + 8], r1
    2236:	79 27 00 00 00 00 00 00	ldxdw r7, [r2 + 0]
    2237:	bf 71 00 00 00 00 00 00	mov64 r1, r7
    2238:	07 01 00 00 30 00 00 00	add64 r1, 48
    2239:	7b 12 00 00 00 00 00 00	stxdw [r2 + 0], r1
    2240:	bf a1 00 00 00 00 00 00	mov64 r1, r10
    2241:	07 01 00 00 20 ff ff ff	add64 r1, -224
    2242:	85 10 00 00 37 18 00 00	call 6199
    2243:	79 78 00 00 00 00 00 00	ldxdw r8, [r7 + 0]
    2244:	79 81 00 00 00 00 00 00	ldxdw r1, [r8 + 0]
    2245:	79 a2 20 ff 00 00 00 00	ldxdw r2, [r10 - 224]
    2246:	1d 21 02 00 00 00 00 00	jeq r1, r2, +2 <.text+0x4528>
    2247:	b7 01 00 00 01 00 00 00	mov64 r1, 1
    2248:	05 00 0a 00 00 00 00 00	ja +10 <.text+0x4578>
    2249:	79 81 08 00 00 00 00 00	ldxdw r1, [r8 + 8]
    2250:	79 a2 28 ff 00 00 00 00	ldxdw r2, [r10 - 216]
    2251:	5d 21 fb ff 00 00 00 00	jne r1, r2, -5 <.text+0x4518>
    2252:	79 81 10 00 00 00 00 00	ldxdw r1, [r8 + 16]
    2253:	79 a2 30 ff 00 00 00 00	ldxdw r2, [r10 - 208]
    2254:	5d 21 f8 ff 00 00 00 00	jne r1, r2, -8 <.text+0x4518>
    2255:	b7 01 00 00 00 00 00 00	mov64 r1, 0
    2256:	79 82 18 00 00 00 00 00	ldxdw r2, [r8 + 24]
    2257:	79 a3 38 ff 00 00 00 00	ldxdw r3, [r10 - 200]
    2258:	5d 32 f4 ff 00 00 00 00	jne r2, r3, -12 <.text+0x4518>
    2259:	55 01 0c 00 00 00 00 00	jne r1, 0, +12 <.text+0x45e0>
    2260:	71 72 2a 00 00 00 00 00	ldxb r2, [r7 + 42]
    2261:	15 02 38 00 00 00 00 00	jeq r2, 0, +56 <.text+0x4750>
    2262:	79 71 08 00 00 00 00 00	ldxdw r1, [r7 + 8]
    2263:	79 13 00 00 00 00 00 00	ldxdw r3, [r1 + 0]
    2264:	07 03 00 00 01 00 00 00	add64 r3, 1
    2265:	b7 04 00 00 01 00 00 00	mov64 r4, 1
    2266:	15 03 01 00 00 00 00 00	jeq r3, 0, +1 <.text+0x45c0>
    2267:	b7 04 00 00 00 00 00 00	mov64 r4, 0
    2268:	7b 31 00 00 00 00 00 00	stxdw [r1 + 0], r3
    2269:	55 04 18 00 01 00 00 00	jne r4, 1, +24 <.text+0x4690>
    2270:	85 10 00 00 ff ff ff ff	call -1
    2271:	85 10 00 00 ff ff ff ff	call -1
    2272:	bf a7 00 00 00 00 00 00	mov64 r7, r10
    2273:	07 07 00 00 20 ff ff ff	add64 r7, -224
    2274:	bf 71 00 00 00 00 00 00	mov64 r1, r7
    2275:	b7 02 00 00 c0 0b 00 00	mov64 r2, 3008
    2276:	85 10 00 00 dd 1b 00 00	call 7133
    2277:	79 81 18 00 00 00 00 00	ldxdw r1, [r8 + 24]
    2278:	7b 1a d8 ff 00 00 00 00	stxdw [r10 - 40], r1
    2279:	79 81 10 00 00 00 00 00	ldxdw r1, [r8 + 16]
    2280:	7b 1a d0 ff 00 00 00 00	stxdw [r10 - 48], r1
    2281:	79 81 08 00 00 00 00 00	ldxdw r1, [r8 + 8]
    2282:	7b 1a c8 ff 00 00 00 00	stxdw [r10 - 56], r1
    2283:	79 81 00 00 00 00 00 00	ldxdw r1, [r8 + 0]
    2284:	7b 1a c0 ff 00 00 00 00	stxdw [r10 - 64], r1
    2285:	bf a1 00 00 00 00 00 00	mov64 r1, r10
    2286:	07 01 00 00 e0 ff ff ff	add64 r1, -32
    2287:	85 10 00 00 0a 18 00 00	call 6154
    2288:	bf a3 00 00 00 00 00 00	mov64 r3, r10
    2289:	07 03 00 00 c0 ff ff ff	add64 r3, -64
    2290:	bf 61 00 00 00 00 00 00	mov64 r1, r6
    2291:	bf 72 00 00 00 00 00 00	mov64 r2, r7
    2292:	85 10 00 00 7d 15 00 00	call 5501
    2293:	05 00 c3 ff 00 00 00 00	ja -61 <.text+0x44a8>
    2294:	79 73 10 00 00 00 00 00	ldxdw r3, [r7 + 16]
    2295:	79 34 00 00 00 00 00 00	ldxdw r4, [r3 + 0]
    2296:	07 04 00 00 01 00 00 00	add64 r4, 1
    2297:	b7 05 00 00 01 00 00 00	mov64 r5, 1
    2298:	15 04 01 00 00 00 00 00	jeq r4, 0, +1 <.text+0x46c0>
    2299:	b7 05 00 00 00 00 00 00	mov64 r5, 0
    2300:	7b 43 00 00 00 00 00 00	stxdw [r3 + 0], r4
    2301:	55 05 01 00 01 00 00 00	jne r5, 1, +1 <.text+0x46d8>
    2302:	05 00 df ff 00 00 00 00	ja -33 <.text+0x45d0>
    2303:	79 74 18 00 00 00 00 00	ldxdw r4, [r7 + 24]
    2304:	79 75 20 00 00 00 00 00	ldxdw r5, [r7 + 32]
    2305:	71 70 28 00 00 00 00 00	ldxb r0, [r7 + 40]
    2306:	71 77 29 00 00 00 00 00	ldxb r7, [r7 + 41]
    2307:	73 26 32 00 00 00 00 00	stxb [r6 + 50], r2
    2308:	73 76 31 00 00 00 00 00	stxb [r6 + 49], r7
    2309:	73 06 30 00 00 00 00 00	stxb [r6 + 48], r0
    2310:	7b 56 28 00 00 00 00 00	stxdw [r6 + 40], r5
    2311:	7b 46 20 00 00 00 00 00	stxdw [r6 + 32], r4
    2312:	7b 36 18 00 00 00 00 00	stxdw [r6 + 24], r3
    2313:	7b 16 10 00 00 00 00 00	stxdw [r6 + 16], r1
    2314:	7b 86 08 00 00 00 00 00	stxdw [r6 + 8], r8
    2315:	b7 01 00 00 04 00 00 00	mov64 r1, 4
    2316:	7b 16 00 00 00 00 00 00	stxdw [r6 + 0], r1
    2317:	05 00 ab ff 00 00 00 00	ja -85 <.text+0x44a8>
    2318:	bf 61 00 00 00 00 00 00	mov64 r1, r6
    2319:	b7 02 00 00 c1 0b 00 00	mov64 r2, 3009
    2320:	05 00 a7 ff 00 00 00 00	ja -89 <.text+0x44a0>
    2321:	bf 36 00 00 00 00 00 00	mov64 r6, r3
    2322:	7b 1a e0 f0 00 00 00 00	stxdw [r10 - 3872], r1
    2323:	79 61 08 00 00 00 00 00	ldxdw r1, [r6 + 8]
    2324:	15 01 4e 06 00 00 00 00	jeq r1, 0, +1614 <.text+0x79f8>
    2325:	79 59 10 f0 00 00 00 00	ldxdw r9, [r5 - 4080]
    2326:	79 53 08 f0 00 00 00 00	ldxdw r3, [r5 - 4088]
    2327:	79 57 00 f0 00 00 00 00	ldxdw r7, [r5 - 4096]
    2328:	07 01 00 00 ff ff ff ff	add64 r1, -1
    2329:	7b 16 08 00 00 00 00 00	stxdw [r6 + 8], r1
    2330:	79 61 00 00 00 00 00 00	ldxdw r1, [r6 + 0]
    2331:	7b 1a c0 f0 00 00 00 00	stxdw [r10 - 3904], r1
    2332:	07 01 00 00 30 00 00 00	add64 r1, 48
    2333:	7b 16 00 00 00 00 00 00	stxdw [r6 + 0], r1
    2334:	7b 3a d8 f0 00 00 00 00	stxdw [r10 - 3880], r3
    2335:	7b 3a 08 f0 00 00 00 00	stxdw [r10 - 4088], r3
    2336:	7b 9a 10 f0 00 00 00 00	stxdw [r10 - 4080], r9
    2337:	7b 7a 00 f0 00 00 00 00	stxdw [r10 - 4096], r7
    2338:	bf a1 00 00 00 00 00 00	mov64 r1, r10
    2339:	07 01 00 00 b0 f4 ff ff	add64 r1, -2896
    2340:	bf a5 00 00 00 00 00 00	mov64 r5, r10
    2341:	7b 2a c8 f0 00 00 00 00	stxdw [r10 - 3896], r2
    2342:	bf 63 00 00 00 00 00 00	mov64 r3, r6
    2343:	7b 4a d0 f0 00 00 00 00	stxdw [r10 - 3888], r4
    2344:	85 10 00 00 c3 14 00 00	call 5315
    2345:	79 a1 b0 f4 00 00 00 00	ldxdw r1, [r10 - 2896]
    2346:	55 01 07 00 04 00 00 00	jne r1, 4, +7 <.text+0x4870>
    2347:	bf a1 00 00 00 00 00 00	mov64 r1, r10
    2348:	07 01 00 00 70 f8 ff ff	add64 r1, -1936
    2349:	bf a2 00 00 00 00 00 00	mov64 r2, r10
    2350:	07 02 00 00 b8 f4 ff ff	add64 r2, -2888
    2351:	b7 03 00 00 30 00 00 00	mov64 r3, 48
    2352:	85 10 00 00 69 3e 00 00	call 15977
    2353:	05 00 11 00 00 00 00 00	ja +17 <.text+0x48f8>
    2354:	bf a8 00 00 00 00 00 00	mov64 r8, r10
    2355:	07 08 00 00 88 fb ff ff	add64 r8, -1144
    2356:	bf a2 00 00 00 00 00 00	mov64 r2, r10
    2357:	07 02 00 00 b0 f4 ff ff	add64 r2, -2896
    2358:	bf 81 00 00 00 00 00 00	mov64 r1, r8
    2359:	b7 03 00 00 a0 00 00 00	mov64 r3, 160
    2360:	85 10 00 00 61 3e 00 00	call 15969
    2361:	bf a1 00 00 00 00 00 00	mov64 r1, r10
    2362:	07 01 00 00 68 f8 ff ff	add64 r1, -1944
    2363:	bf 82 00 00 00 00 00 00	mov64 r2, r8
    2364:	18 03 00 00 57 54 02 00 00 00 00 00 00 00 00 00	lddw r3, 152663
    2366:	b7 04 00 00 10 00 00 00	mov64 r4, 16
    2367:	85 10 00 00 e4 f6 ff ff	call -2332
    2368:	79 a8 68 f8 00 00 00 00	ldxdw r8, [r10 - 1944]
    2369:	15 08 01 00 04 00 00 00	jeq r8, 4, +1 <.text+0x48f8>
    2370:	05 00 46 00 00 00 00 00	ja +70 <.text+0x4b28>
    2371:	bf a8 00 00 00 00 00 00	mov64 r8, r10
    2372:	07 08 00 00 90 fe ff ff	add64 r8, -368
    2373:	bf a2 00 00 00 00 00 00	mov64 r2, r10
    2374:	07 02 00 00 70 f8 ff ff	add64 r2, -1936
    2375:	bf 81 00 00 00 00 00 00	mov64 r1, r8
    2376:	b7 03 00 00 30 00 00 00	mov64 r3, 48
    2377:	85 10 00 00 50 3e 00 00	call 15952
    2378:	bf a1 00 00 00 00 00 00	mov64 r1, r10
    2379:	07 01 00 00 f8 f0 ff ff	add64 r1, -3848
    2380:	bf 82 00 00 00 00 00 00	mov64 r2, r8
    2381:	b7 03 00 00 30 00 00 00	mov64 r3, 48
    2382:	85 10 00 00 4b 3e 00 00	call 15947
    2383:	79 61 08 00 00 00 00 00	ldxdw r1, [r6 + 8]
    2384:	15 01 2b 00 00 00 00 00	jeq r1, 0, +43 <.text+0x4ac0>
    2385:	bf 12 00 00 00 00 00 00	mov64 r2, r1
    2386:	07 02 00 00 ff ff ff ff	add64 r2, -1
    2387:	7b 26 08 00 00 00 00 00	stxdw [r6 + 8], r2
    2388:	79 65 00 00 00 00 00 00	ldxdw r5, [r6 + 0]
    2389:	bf 54 00 00 00 00 00 00	mov64 r4, r5
    2390:	07 04 00 00 30 00 00 00	add64 r4, 48
    2391:	7b 46 00 00 00 00 00 00	stxdw [r6 + 0], r4
    2392:	15 02 eb 06 00 00 00 00	jeq r2, 0, +1771 <.text+0x8100>
    2393:	bf 12 00 00 00 00 00 00	mov64 r2, r1
    2394:	07 02 00 00 fe ff ff ff	add64 r2, -2
    2395:	7b 26 08 00 00 00 00 00	stxdw [r6 + 8], r2
    2396:	bf 53 00 00 00 00 00 00	mov64 r3, r5
    2397:	07 03 00 00 60 00 00 00	add64 r3, 96
    2398:	7b 36 00 00 00 00 00 00	stxdw [r6 + 0], r3
    2399:	15 02 ea 06 00 00 00 00	jeq r2, 0, +1770 <.text+0x8130>
    2400:	7b 4a b0 f0 00 00 00 00	stxdw [r10 - 3920], r4
    2401:	7b 3a a8 f0 00 00 00 00	stxdw [r10 - 3928], r3
    2402:	07 01 00 00 fd ff ff ff	add64 r1, -3
    2403:	7b 16 08 00 00 00 00 00	stxdw [r6 + 8], r1
    2404:	7b 5a b8 f0 00 00 00 00	stxdw [r10 - 3912], r5
    2405:	bf 51 00 00 00 00 00 00	mov64 r1, r5
    2406:	07 01 00 00 90 00 00 00	add64 r1, 144
    2407:	7b 16 00 00 00 00 00 00	stxdw [r6 + 0], r1
    2408:	79 a1 d8 f0 00 00 00 00	ldxdw r1, [r10 - 3880]
    2409:	7b 1a 08 f0 00 00 00 00	stxdw [r10 - 4088], r1
    2410:	7b 9a 10 f0 00 00 00 00	stxdw [r10 - 4080], r9
    2411:	7b 7a 00 f0 00 00 00 00	stxdw [r10 - 4096], r7
    2412:	bf a1 00 00 00 00 00 00	mov64 r1, r10
    2413:	07 01 00 00 b0 f4 ff ff	add64 r1, -2896
    2414:	bf a5 00 00 00 00 00 00	mov64 r5, r10
    2415:	79 a2 c8 f0 00 00 00 00	ldxdw r2, [r10 - 3896]
    2416:	bf 63 00 00 00 00 00 00	mov64 r3, r6
    2417:	79 a4 d0 f0 00 00 00 00	ldxdw r4, [r10 - 3888]
    2418:	85 10 00 00 32 14 00 00	call 5170
    2419:	79 a1 b0 f4 00 00 00 00	ldxdw r1, [r10 - 2896]
    2420:	55 01 2b 00 04 00 00 00	jne r1, 4, +43 <.text+0x4be0>
    2421:	bf a1 00 00 00 00 00 00	mov64 r1, r10
    2422:	07 01 00 00 70 f8 ff ff	add64 r1, -1936
    2423:	bf a2 00 00 00 00 00 00	mov64 r2, r10
    2424:	07 02 00 00 b8 f4 ff ff	add64 r2, -2888
    2425:	b7 03 00 00 30 00 00 00	mov64 r3, 48
    2426:	85 10 00 00 1f 3e 00 00	call 15903
    2427:	05 00 35 00 00 00 00 00	ja +53 <.text+0x4c68>
    2428:	bf a6 00 00 00 00 00 00	mov64 r6, r10
    2429:	07 06 00 00 88 fb ff ff	add64 r6, -1144
    2430:	bf 61 00 00 00 00 00 00	mov64 r1, r6
    2431:	b7 02 00 00 bd 0b 00 00	mov64 r2, 3005
    2432:	85 10 00 00 41 1b 00 00	call 6977
    2433:	79 a7 e0 f0 00 00 00 00	ldxdw r7, [r10 - 3872]
    2434:	bf 71 00 00 00 00 00 00	mov64 r1, r7
    2435:	bf 62 00 00 00 00 00 00	mov64 r2, r6
    2436:	b7 03 00 00 a0 00 00 00	mov64 r3, 160
    2437:	85 10 00 00 14 3e 00 00	call 15892
    2438:	b7 01 00 00 02 00 00 00	mov64 r1, 2
    2439:	63 17 d8 03 00 00 00 00	stxw [r7 + 984], r1
    2440:	05 00 2a 05 00 00 00 00	ja +1322 <.text+0x7478>
    2441:	bf a6 00 00 00 00 00 00	mov64 r6, r10
    2442:	07 06 00 00 90 fe ff ff	add64 r6, -368
    2443:	bf a2 00 00 00 00 00 00	mov64 r2, r10
    2444:	07 02 00 00 70 f8 ff ff	add64 r2, -1936
    2445:	bf 61 00 00 00 00 00 00	mov64 r1, r6
    2446:	b7 03 00 00 30 00 00 00	mov64 r3, 48
    2447:	85 10 00 00 0a 3e 00 00	call 15882
    2448:	79 a7 e0 f0 00 00 00 00	ldxdw r7, [r10 - 3872]
    2449:	bf 71 00 00 00 00 00 00	mov64 r1, r7
    2450:	07 01 00 00 38 00 00 00	add64 r1, 56
    2451:	bf a2 00 00 00 00 00 00	mov64 r2, r10
    2452:	07 02 00 00 a0 f8 ff ff	add64 r2, -1888
    2453:	b7 03 00 00 68 00 00 00	mov64 r3, 104
    2454:	85 10 00 00 03 3e 00 00	call 15875
    2455:	bf 71 00 00 00 00 00 00	mov64 r1, r7
    2456:	07 01 00 00 08 00 00 00	add64 r1, 8
    2457:	bf 62 00 00 00 00 00 00	mov64 r2, r6
    2458:	b7 03 00 00 30 00 00 00	mov64 r3, 48
    2459:	85 10 00 00 fe 3d 00 00	call 15870
    2460:	b7 01 00 00 02 00 00 00	mov64 r1, 2
    2461:	63 17 d8 03 00 00 00 00	stxw [r7 + 984], r1
    2462:	7b 87 00 00 00 00 00 00	stxdw [r7 + 0], r8
    2463:	05 00 23 05 00 00 00 00	ja +1315 <.text+0x74f8>
    2464:	bf a7 00 00 00 00 00 00	mov64 r7, r10
    2465:	07 07 00 00 88 fb ff ff	add64 r7, -1144
    2466:	bf a2 00 00 00 00 00 00	mov64 r2, r10
    2467:	07 02 00 00 b0 f4 ff ff	add64 r2, -2896
    2468:	bf 71 00 00 00 00 00 00	mov64 r1, r7
    2469:	b7 03 00 00 a0 00 00 00	mov64 r3, 160
    2470:	85 10 00 00 f3 3d 00 00	call 15859
    2471:	bf a1 00 00 00 00 00 00	mov64 r1, r10
    2472:	07 01 00 00 68 f8 ff ff	add64 r1, -1944
    2473:	bf 72 00 00 00 00 00 00	mov64 r2, r7
    2474:	18 03 00 00 ff 54 02 00 00 00 00 00 00 00 00 00	lddw r3, 152831
    2476:	b7 04 00 00 05 00 00 00	mov64 r4, 5
    2477:	85 10 00 00 76 f6 ff ff	call -2442
    2478:	79 a7 68 f8 00 00 00 00	ldxdw r7, [r10 - 1944]
    2479:	15 07 01 00 04 00 00 00	jeq r7, 4, +1 <.text+0x4c68>
    2480:	05 00 9d 00 00 00 00 00	ja +157 <.text+0x5150>
    2481:	bf a7 00 00 00 00 00 00	mov64 r7, r10
    2482:	07 07 00 00 90 fe ff ff	add64 r7, -368
    2483:	bf a2 00 00 00 00 00 00	mov64 r2, r10
    2484:	07 02 00 00 70 f8 ff ff	add64 r2, -1936
    2485:	bf 71 00 00 00 00 00 00	mov64 r1, r7
    2486:	b7 03 00 00 30 00 00 00	mov64 r3, 48
    2487:	85 10 00 00 e2 3d 00 00	call 15842
    2488:	bf a1 00 00 00 00 00 00	mov64 r1, r10
    2489:	07 01 00 00 28 f1 ff ff	add64 r1, -3800
    2490:	bf 72 00 00 00 00 00 00	mov64 r2, r7
    2491:	b7 03 00 00 30 00 00 00	mov64 r3, 48
    2492:	85 10 00 00 dd 3d 00 00	call 15837
    2493:	79 61 08 00 00 00 00 00	ldxdw r1, [r6 + 8]
    2494:	15 01 b0 06 00 00 00 00	jeq r1, 0, +1712 <.text+0x8258>
    2495:	bf 12 00 00 00 00 00 00	mov64 r2, r1
    2496:	07 02 00 00 ff ff ff ff	add64 r2, -1
    2497:	7b 26 08 00 00 00 00 00	stxdw [r6 + 8], r2
    2498:	79 63 00 00 00 00 00 00	ldxdw r3, [r6 + 0]
    2499:	bf 39 00 00 00 00 00 00	mov64 r9, r3
    2500:	07 09 00 00 30 00 00 00	add64 r9, 48
    2501:	7b 96 00 00 00 00 00 00	stxdw [r6 + 0], r9
    2502:	15 02 ae 06 00 00 00 00	jeq r2, 0, +1710 <.text+0x8288>
    2503:	07 01 00 00 fe ff ff ff	add64 r1, -2
    2504:	7b 16 08 00 00 00 00 00	stxdw [r6 + 8], r1
    2505:	7b 3a c8 f0 00 00 00 00	stxdw [r10 - 3896], r3
    2506:	bf 31 00 00 00 00 00 00	mov64 r1, r3
    2507:	07 01 00 00 60 00 00 00	add64 r1, 96
    2508:	7b 16 00 00 00 00 00 00	stxdw [r6 + 0], r1
    2509:	bf a1 00 00 00 00 00 00	mov64 r1, r10
    2510:	07 01 00 00 b0 f4 ff ff	add64 r1, -2896
    2511:	bf 62 00 00 00 00 00 00	mov64 r2, r6
    2512:	85 10 00 00 18 fe ff ff	call -488
    2513:	79 a7 b0 f4 00 00 00 00	ldxdw r7, [r10 - 2896]
    2514:	55 07 17 00 04 00 00 00	jne r7, 4, +23 <.text+0x4e30>
    2515:	18 01 00 00 00 00 00 00 00 00 00 00 03 00 00 00	lddw r1, 12884901888
    2517:	79 11 00 00 00 00 00 00	ldxdw r1, [r1 + 0]
    2518:	18 02 00 00 00 80 00 00 00 00 00 00 03 00 00 00	lddw r2, 12884934656
    2520:	15 01 01 00 00 00 00 00	jeq r1, 0, +1 <.text+0x4db0>
    2521:	bf 12 00 00 00 00 00 00	mov64 r2, r1
    2522:	bf 24 00 00 00 00 00 00	mov64 r4, r2
    2523:	07 04 00 00 78 ff ff ff	add64 r4, -136
    2524:	b7 01 00 00 00 00 00 00	mov64 r1, 0
    2525:	b7 03 00 00 01 00 00 00	mov64 r3, 1
    2526:	2d 24 01 00 00 00 00 00	jgt r4, r2, +1 <.text+0x4de0>
    2527:	b7 03 00 00 00 00 00 00	mov64 r3, 0
    2528:	55 03 01 00 00 00 00 00	jne r3, 0, +1 <.text+0x4df0>
    2529:	bf 41 00 00 00 00 00 00	mov64 r1, r4
    2530:	57 01 00 00 f8 ff ff ff	and64 r1, -8
    2531:	18 02 00 00 07 00 00 00 00 00 00 00 03 00 00 00	lddw r2, 12884901895
    2533:	2d 21 1a 00 00 00 00 00	jgt r1, r2, +26 <.text+0x4ee0>
    2534:	b7 01 00 00 08 00 00 00	mov64 r1, 8
    2535:	b7 02 00 00 88 00 00 00	mov64 r2, 136
    2536:	85 10 00 00 a7 2c 00 00	call 11431
    2537:	85 10 00 00 ff ff ff ff	call -1
    2538:	79 a8 b8 f4 00 00 00 00	ldxdw r8, [r10 - 2888]
    2539:	bf a1 00 00 00 00 00 00	mov64 r1, r10
    2540:	07 01 00 00 98 fb ff ff	add64 r1, -1128
    2541:	bf a2 00 00 00 00 00 00	mov64 r2, r10
    2542:	07 02 00 00 c0 f4 ff ff	add64 r2, -2880
    2543:	b7 03 00 00 90 00 00 00	mov64 r3, 144
    2544:	85 10 00 00 a9 3d 00 00	call 15785
    2545:	7b 8a 90 fb 00 00 00 00	stxdw [r10 - 1136], r8
    2546:	7b 7a 88 fb 00 00 00 00	stxdw [r10 - 1144], r7
    2547:	bf a1 00 00 00 00 00 00	mov64 r1, r10
    2548:	07 01 00 00 68 f8 ff ff	add64 r1, -1944
    2549:	bf a2 00 00 00 00 00 00	mov64 r2, r10
    2550:	07 02 00 00 88 fb ff ff	add64 r2, -1144
    2551:	18 03 00 00 04 55 02 00 00 00 00 00 00 00 00 00	lddw r3, 152836
    2553:	b7 04 00 00 09 00 00 00	mov64 r4, 9
    2554:	85 10 00 00 29 f6 ff ff	call -2519
    2555:	79 a7 68 f8 00 00 00 00	ldxdw r7, [r10 - 1944]
    2556:	55 07 99 00 04 00 00 00	jne r7, 4, +153 <.text+0x5390>
    2557:	79 a1 70 f8 00 00 00 00	ldxdw r1, [r10 - 1936]
    2558:	7b 1a d0 f0 00 00 00 00	stxdw [r10 - 3888], r1
    2559:	05 00 08 00 00 00 00 00	ja +8 <.text+0x4f20>
    2560:	18 02 00 00 00 00 00 00 00 00 00 00 03 00 00 00	lddw r2, 12884901888
    2562:	7b 12 00 00 00 00 00 00	stxdw [r2 + 0], r1
    2563:	bf a2 00 00 00 00 00 00	mov64 r2, r10
    2564:	07 02 00 00 b8 f4 ff ff	add64 r2, -2888
    2565:	7b 1a d0 f0 00 00 00 00	stxdw [r10 - 3888], r1
    2566:	b7 03 00 00 88 00 00 00	mov64 r3, 136
    2567:	85 10 00 00 92 3d 00 00	call 15762
    2568:	bf a1 00 00 00 00 00 00	mov64 r1, r10
    2569:	07 01 00 00 b0 f4 ff ff	add64 r1, -2896
    2570:	bf 62 00 00 00 00 00 00	mov64 r2, r6
    2571:	85 10 00 00 dd fd ff ff	call -547
    2572:	79 a7 b0 f4 00 00 00 00	ldxdw r7, [r10 - 2896]
    2573:	55 07 15 00 04 00 00 00	jne r7, 4, +21 <.text+0x4ff8>
    2574:	7b 9a 58 f0 00 00 00 00	stxdw [r10 - 4008], r9
    2575:	18 01 00 00 00 00 00 00 00 00 00 00 03 00 00 00	lddw r1, 12884901888
    2577:	79 11 00 00 00 00 00 00	ldxdw r1, [r1 + 0]
    2578:	18 02 00 00 00 80 00 00 00 00 00 00 03 00 00 00	lddw r2, 12884934656
    2580:	15 01 01 00 00 00 00 00	jeq r1, 0, +1 <.text+0x4f90>
    2581:	bf 12 00 00 00 00 00 00	mov64 r2, r1
    2582:	bf 21 00 00 00 00 00 00	mov64 r1, r2
    2583:	07 01 00 00 78 ff ff ff	add64 r1, -136
    2584:	b7 09 00 00 00 00 00 00	mov64 r9, 0
    2585:	b7 03 00 00 01 00 00 00	mov64 r3, 1
    2586:	2d 21 01 00 00 00 00 00	jgt r1, r2, +1 <.text+0x4fc0>
    2587:	b7 03 00 00 00 00 00 00	mov64 r3, 0
    2588:	55 03 01 00 00 00 00 00	jne r3, 0, +1 <.text+0x4fd0>
    2589:	bf 19 00 00 00 00 00 00	mov64 r9, r1
    2590:	57 09 00 00 f8 ff ff ff	and64 r9, -8
    2591:	18 01 00 00 07 00 00 00 00 00 00 00 03 00 00 00	lddw r1, 12884901895
    2593:	2d 19 17 00 00 00 00 00	jgt r9, r1, +23 <.text+0x50a8>
    2594:	05 00 c3 ff 00 00 00 00	ja -61 <.text+0x4e10>
    2595:	79 a8 b8 f4 00 00 00 00	ldxdw r8, [r10 - 2888]
    2596:	bf a1 00 00 00 00 00 00	mov64 r1, r10
    2597:	07 01 00 00 98 fb ff ff	add64 r1, -1128
    2598:	bf a2 00 00 00 00 00 00	mov64 r2, r10
    2599:	07 02 00 00 c0 f4 ff ff	add64 r2, -2880
    2600:	b7 03 00 00 90 00 00 00	mov64 r3, 144
    2601:	85 10 00 00 70 3d 00 00	call 15728
    2602:	7b 8a 90 fb 00 00 00 00	stxdw [r10 - 1136], r8
    2603:	7b 7a 88 fb 00 00 00 00	stxdw [r10 - 1144], r7
    2604:	bf a1 00 00 00 00 00 00	mov64 r1, r10
    2605:	07 01 00 00 68 f8 ff ff	add64 r1, -1944
    2606:	bf a2 00 00 00 00 00 00	mov64 r2, r10
    2607:	07 02 00 00 88 fb ff ff	add64 r2, -1144
    2608:	18 03 00 00 0d 55 02 00 00 00 00 00 00 00 00 00	lddw r3, 152845
    2610:	b7 04 00 00 0a 00 00 00	mov64 r4, 10
    2611:	85 10 00 00 f0 f5 ff ff	call -2576
    2612:	79 a7 68 f8 00 00 00 00	ldxdw r7, [r10 - 1944]
    2613:	55 07 9f 00 04 00 00 00	jne r7, 4, +159 <.text+0x5588>
    2614:	7b 9a 58 f0 00 00 00 00	stxdw [r10 - 4008], r9
    2615:	79 a9 70 f8 00 00 00 00	ldxdw r9, [r10 - 1936]
    2616:	05 00 08 00 00 00 00 00	ja +8 <.text+0x50e8>
    2617:	18 01 00 00 00 00 00 00 00 00 00 00 03 00 00 00	lddw r1, 12884901888
    2619:	7b 91 00 00 00 00 00 00	stxdw [r1 + 0], r9
    2620:	bf a2 00 00 00 00 00 00	mov64 r2, r10
    2621:	07 02 00 00 b8 f4 ff ff	add64 r2, -2888
    2622:	bf 91 00 00 00 00 00 00	mov64 r1, r9
    2623:	b7 03 00 00 88 00 00 00	mov64 r3, 136
    2624:	85 10 00 00 59 3d 00 00	call 15705
    2625:	bf a1 00 00 00 00 00 00	mov64 r1, r10
    2626:	07 01 00 00 b0 f4 ff ff	add64 r1, -2896
    2627:	bf 62 00 00 00 00 00 00	mov64 r2, r6
    2628:	85 10 00 00 6e fe ff ff	call -402
    2629:	79 a1 b0 f4 00 00 00 00	ldxdw r1, [r10 - 2896]
    2630:	55 01 1e 00 04 00 00 00	jne r1, 4, +30 <.text+0x5208>
    2631:	bf a1 00 00 00 00 00 00	mov64 r1, r10
    2632:	07 01 00 00 70 f8 ff ff	add64 r1, -1936
    2633:	bf a2 00 00 00 00 00 00	mov64 r2, r10
    2634:	07 02 00 00 b8 f4 ff ff	add64 r2, -2888
    2635:	b7 03 00 00 30 00 00 00	mov64 r3, 48
    2636:	85 10 00 00 4d 3d 00 00	call 15693
    2637:	05 00 28 00 00 00 00 00	ja +40 <.text+0x5290>
    2638:	bf a6 00 00 00 00 00 00	mov64 r6, r10
    2639:	07 06 00 00 90 fe ff ff	add64 r6, -368
    2640:	bf a2 00 00 00 00 00 00	mov64 r2, r10
    2641:	07 02 00 00 70 f8 ff ff	add64 r2, -1936
    2642:	bf 61 00 00 00 00 00 00	mov64 r1, r6
    2643:	b7 03 00 00 30 00 00 00	mov64 r3, 48
    2644:	85 10 00 00 45 3d 00 00	call 15685
    2645:	79 a8 e0 f0 00 00 00 00	ldxdw r8, [r10 - 3872]
    2646:	bf 81 00 00 00 00 00 00	mov64 r1, r8
    2647:	07 01 00 00 38 00 00 00	add64 r1, 56
    2648:	bf a2 00 00 00 00 00 00	mov64 r2, r10
    2649:	07 02 00 00 a0 f8 ff ff	add64 r2, -1888
    2650:	b7 03 00 00 68 00 00 00	mov64 r3, 104
    2651:	85 10 00 00 3e 3d 00 00	call 15678
    2652:	bf 81 00 00 00 00 00 00	mov64 r1, r8
    2653:	07 01 00 00 08 00 00 00	add64 r1, 8
    2654:	bf 62 00 00 00 00 00 00	mov64 r2, r6
    2655:	b7 03 00 00 30 00 00 00	mov64 r3, 48
    2656:	85 10 00 00 39 3d 00 00	call 15673
    2657:	b7 01 00 00 02 00 00 00	mov64 r1, 2
    2658:	63 18 d8 03 00 00 00 00	stxw [r8 + 984], r1
    2659:	7b 78 00 00 00 00 00 00	stxdw [r8 + 0], r7
    2660:	05 00 4e 04 00 00 00 00	ja +1102 <.text+0x7478>
    2661:	bf a7 00 00 00 00 00 00	mov64 r7, r10
    2662:	07 07 00 00 88 fb ff ff	add64 r7, -1144
    2663:	bf a2 00 00 00 00 00 00	mov64 r2, r10
    2664:	07 02 00 00 b0 f4 ff ff	add64 r2, -2896
    2665:	bf 71 00 00 00 00 00 00	mov64 r1, r7
    2666:	b7 03 00 00 a0 00 00 00	mov64 r3, 160
    2667:	85 10 00 00 2e 3d 00 00	call 15662
    2668:	bf a1 00 00 00 00 00 00	mov64 r1, r10
    2669:	07 01 00 00 68 f8 ff ff	add64 r1, -1944
    2670:	bf 72 00 00 00 00 00 00	mov64 r2, r7
    2671:	18 03 00 00 17 55 02 00 00 00 00 00 00 00 00 00	lddw r3, 152855
    2673:	b7 04 00 00 0e 00 00 00	mov64 r4, 14
    2674:	85 10 00 00 b1 f5 ff ff	call -2639
    2675:	79 a7 68 f8 00 00 00 00	ldxdw r7, [r10 - 1944]
    2676:	15 07 01 00 04 00 00 00	jeq r7, 4, +1 <.text+0x5290>
    2677:	05 00 cb 00 00 00 00 00	ja +203 <.text+0x58e8>
    2678:	61 a1 9b f8 00 00 00 00	ldxw r1, [r10 - 1893]
    2679:	63 1a 58 f1 00 00 00 00	stxw [r10 - 3752], r1
    2680:	71 a1 9f f8 00 00 00 00	ldxb r1, [r10 - 1889]
    2681:	73 1a 5c f1 00 00 00 00	stxb [r10 - 3748], r1
    2682:	71 a1 9a f8 00 00 00 00	ldxb r1, [r10 - 1894]
    2683:	7b 1a 60 f0 00 00 00 00	stxdw [r10 - 4000], r1
    2684:	71 a1 99 f8 00 00 00 00	ldxb r1, [r10 - 1895]
    2685:	7b 1a 68 f0 00 00 00 00	stxdw [r10 - 3992], r1
    2686:	71 a1 98 f8 00 00 00 00	ldxb r1, [r10 - 1896]
    2687:	7b 1a 70 f0 00 00 00 00	stxdw [r10 - 3984], r1
    2688:	79 a1 90 f8 00 00 00 00	ldxdw r1, [r10 - 1904]
    2689:	7b 1a 78 f0 00 00 00 00	stxdw [r10 - 3976], r1
    2690:	79 a1 88 f8 00 00 00 00	ldxdw r1, [r10 - 1912]
    2691:	7b 1a 80 f0 00 00 00 00	stxdw [r10 - 3968], r1
    2692:	79 a8 80 f8 00 00 00 00	ldxdw r8, [r10 - 1920]
    2693:	79 a1 78 f8 00 00 00 00	ldxdw r1, [r10 - 1928]
    2694:	7b 1a a0 f0 00 00 00 00	stxdw [r10 - 3936], r1
    2695:	79 a1 70 f8 00 00 00 00	ldxdw r1, [r10 - 1936]
    2696:	7b 1a 88 f0 00 00 00 00	stxdw [r10 - 3960], r1
    2697:	bf a1 00 00 00 00 00 00	mov64 r1, r10
    2698:	07 01 00 00 b0 f4 ff ff	add64 r1, -2896
    2699:	bf 62 00 00 00 00 00 00	mov64 r2, r6
    2700:	85 10 00 00 c8 fd ff ff	call -568
    2701:	79 a1 b0 f4 00 00 00 00	ldxdw r1, [r10 - 2896]
    2702:	55 01 14 00 04 00 00 00	jne r1, 4, +20 <.text+0x53f8>
    2703:	bf a1 00 00 00 00 00 00	mov64 r1, r10
    2704:	07 01 00 00 70 f8 ff ff	add64 r1, -1936
    2705:	bf a2 00 00 00 00 00 00	mov64 r2, r10
    2706:	07 02 00 00 b8 f4 ff ff	add64 r2, -2888
    2707:	b7 03 00 00 30 00 00 00	mov64 r3, 48
    2708:	85 10 00 00 05 3d 00 00	call 15621
    2709:	05 00 1e 00 00 00 00 00	ja +30 <.text+0x5480>
    2710:	79 a6 70 f8 00 00 00 00	ldxdw r6, [r10 - 1936]
    2711:	79 a8 e0 f0 00 00 00 00	ldxdw r8, [r10 - 3872]
    2712:	bf 81 00 00 00 00 00 00	mov64 r1, r8
    2713:	07 01 00 00 10 00 00 00	add64 r1, 16
    2714:	bf a2 00 00 00 00 00 00	mov64 r2, r10
    2715:	07 02 00 00 78 f8 ff ff	add64 r2, -1928
    2716:	b7 03 00 00 90 00 00 00	mov64 r3, 144
    2717:	85 10 00 00 fc 3c 00 00	call 15612
    2718:	b7 01 00 00 02 00 00 00	mov64 r1, 2
    2719:	63 18 d8 03 00 00 00 00	stxw [r8 + 984], r1
    2720:	7b 68 08 00 00 00 00 00	stxdw [r8 + 8], r6
    2721:	7b 78 00 00 00 00 00 00	stxdw [r8 + 0], r7
    2722:	05 00 00 04 00 00 00 00	ja +1024 <.text+0x73f8>
    2723:	bf a7 00 00 00 00 00 00	mov64 r7, r10
    2724:	07 07 00 00 88 fb ff ff	add64 r7, -1144
    2725:	bf a2 00 00 00 00 00 00	mov64 r2, r10
    2726:	07 02 00 00 b0 f4 ff ff	add64 r2, -2896
    2727:	bf 71 00 00 00 00 00 00	mov64 r1, r7
    2728:	b7 03 00 00 a0 00 00 00	mov64 r3, 160
    2729:	85 10 00 00 f0 3c 00 00	call 15600
    2730:	bf a1 00 00 00 00 00 00	mov64 r1, r10
    2731:	07 01 00 00 68 f8 ff ff	add64 r1, -1944
    2732:	bf 72 00 00 00 00 00 00	mov64 r2, r7
    2733:	18 03 00 00 25 55 02 00 00 00 00 00 00 00 00 00	lddw r3, 152869
    2735:	b7 04 00 00 0d 00 00 00	mov64 r4, 13
    2736:	85 10 00 00 73 f5 ff ff	call -2701
    2737:	79 a7 68 f8 00 00 00 00	ldxdw r7, [r10 - 1944]
    2738:	15 07 01 00 04 00 00 00	jeq r7, 4, +1 <.text+0x5480>
    2739:	05 00 e1 00 00 00 00 00	ja +225 <.text+0x5b88>
    2740:	61 a1 9b f8 00 00 00 00	ldxw r1, [r10 - 1893]
    2741:	63 1a 60 f1 00 00 00 00	stxw [r10 - 3744], r1
    2742:	71 a1 9f f8 00 00 00 00	ldxb r1, [r10 - 1889]
    2743:	73 1a 64 f1 00 00 00 00	stxb [r10 - 3740], r1
    2744:	71 a1 9a f8 00 00 00 00	ldxb r1, [r10 - 1894]
    2745:	7b 1a 18 f0 00 00 00 00	stxdw [r10 - 4072], r1
    2746:	71 a1 99 f8 00 00 00 00	ldxb r1, [r10 - 1895]
    2747:	7b 1a 20 f0 00 00 00 00	stxdw [r10 - 4064], r1
    2748:	71 a1 98 f8 00 00 00 00	ldxb r1, [r10 - 1896]
    2749:	7b 1a 28 f0 00 00 00 00	stxdw [r10 - 4056], r1
    2750:	79 a1 90 f8 00 00 00 00	ldxdw r1, [r10 - 1904]
    2751:	7b 1a 30 f0 00 00 00 00	stxdw [r10 - 4048], r1
    2752:	79 a1 88 f8 00 00 00 00	ldxdw r1, [r10 - 1912]
    2753:	7b 1a 38 f0 00 00 00 00	stxdw [r10 - 4040], r1
    2754:	79 a7 80 f8 00 00 00 00	ldxdw r7, [r10 - 1920]
    2755:	79 a1 78 f8 00 00 00 00	ldxdw r1, [r10 - 1928]
    2756:	7b 1a 90 f0 00 00 00 00	stxdw [r10 - 3952], r1
    2757:	79 a1 70 f8 00 00 00 00	ldxdw r1, [r10 - 1936]
    2758:	7b 1a 40 f0 00 00 00 00	stxdw [r10 - 4032], r1
    2759:	bf a1 00 00 00 00 00 00	mov64 r1, r10
    2760:	07 01 00 00 b0 f4 ff ff	add64 r1, -2896
    2761:	bf 62 00 00 00 00 00 00	mov64 r2, r6
    2762:	85 10 00 00 2c fd ff ff	call -724
    2763:	79 a1 b0 f4 00 00 00 00	ldxdw r1, [r10 - 2896]
    2764:	7b 7a 98 f0 00 00 00 00	stxdw [r10 - 3944], r7
    2765:	55 01 15 00 04 00 00 00	jne r1, 4, +21 <.text+0x55f8>
    2766:	bf a1 00 00 00 00 00 00	mov64 r1, r10
    2767:	07 01 00 00 70 f8 ff ff	add64 r1, -1936
    2768:	bf a2 00 00 00 00 00 00	mov64 r2, r10
    2769:	07 02 00 00 b8 f4 ff ff	add64 r2, -2888
    2770:	b7 03 00 00 30 00 00 00	mov64 r3, 48
    2771:	85 10 00 00 c6 3c 00 00	call 15558
    2772:	05 00 1f 00 00 00 00 00	ja +31 <.text+0x5680>
    2773:	79 a6 70 f8 00 00 00 00	ldxdw r6, [r10 - 1936]
    2774:	79 a8 e0 f0 00 00 00 00	ldxdw r8, [r10 - 3872]
    2775:	bf 81 00 00 00 00 00 00	mov64 r1, r8
    2776:	07 01 00 00 10 00 00 00	add64 r1, 16
    2777:	bf a2 00 00 00 00 00 00	mov64 r2, r10
    2778:	07 02 00 00 78 f8 ff ff	add64 r2, -1928
    2779:	b7 03 00 00 90 00 00 00	mov64 r3, 144
    2780:	85 10 00 00 bd 3c 00 00	call 15549
    2781:	b7 01 00 00 02 00 00 00	mov64 r1, 2
    2782:	63 18 d8 03 00 00 00 00	stxw [r8 + 984], r1
    2783:	7b 68 08 00 00 00 00 00	stxdw [r8 + 8], r6
    2784:	7b 78 00 00 00 00 00 00	stxdw [r8 + 0], r7
    2785:	79 a0 d0 f0 00 00 00 00	ldxdw r0, [r10 - 3888]
    2786:	05 00 b0 03 00 00 00 00	ja +944 <.text+0x7378>
    2787:	bf a6 00 00 00 00 00 00	mov64 r6, r10
    2788:	07 06 00 00 88 fb ff ff	add64 r6, -1144
    2789:	bf a2 00 00 00 00 00 00	mov64 r2, r10
    2790:	07 02 00 00 b0 f4 ff ff	add64 r2, -2896
    2791:	bf 61 00 00 00 00 00 00	mov64 r1, r6
    2792:	b7 03 00 00 a0 00 00 00	mov64 r3, 160
    2793:	85 10 00 00 b0 3c 00 00	call 15536
    2794:	bf a1 00 00 00 00 00 00	mov64 r1, r10
    2795:	07 01 00 00 68 f8 ff ff	add64 r1, -1944
    2796:	bf 62 00 00 00 00 00 00	mov64 r2, r6
    2797:	18 03 00 00 32 55 02 00 00 00 00 00 00 00 00 00	lddw r3, 152882
    2799:	b7 04 00 00 18 00 00 00	mov64 r4, 24
    2800:	85 10 00 00 33 f5 ff ff	call -2765
    2801:	79 a6 68 f8 00 00 00 00	ldxdw r6, [r10 - 1944]
    2802:	15 06 01 00 04 00 00 00	jeq r6, 4, +1 <.text+0x5680>
    2803:	05 00 da 00 00 00 00 00	ja +218 <.text+0x5d50>
    2804:	61 a1 9b f8 00 00 00 00	ldxw r1, [r10 - 1893]
    2805:	63 1a 68 f1 00 00 00 00	stxw [r10 - 3736], r1
    2806:	71 a1 9f f8 00 00 00 00	ldxb r1, [r10 - 1889]
    2807:	73 1a 6c f1 00 00 00 00	stxb [r10 - 3732], r1
    2808:	71 a1 9a f8 00 00 00 00	ldxb r1, [r10 - 1894]
    2809:	7b 1a f0 ef 00 00 00 00	stxdw [r10 - 4112], r1
    2810:	71 a1 99 f8 00 00 00 00	ldxb r1, [r10 - 1895]
    2811:	7b 1a f8 ef 00 00 00 00	stxdw [r10 - 4104], r1
    2812:	71 a1 98 f8 00 00 00 00	ldxb r1, [r10 - 1896]
    2813:	7b 1a 00 f0 00 00 00 00	stxdw [r10 - 4096], r1
    2814:	79 a1 90 f8 00 00 00 00	ldxdw r1, [r10 - 1904]
    2815:	7b 1a 08 f0 00 00 00 00	stxdw [r10 - 4088], r1
    2816:	79 a1 88 f8 00 00 00 00	ldxdw r1, [r10 - 1912]
    2817:	7b 1a 10 f0 00 00 00 00	stxdw [r10 - 4080], r1
    2818:	79 a1 80 f8 00 00 00 00	ldxdw r1, [r10 - 1920]
    2819:	7b 1a 48 f0 00 00 00 00	stxdw [r10 - 4024], r1
    2820:	79 a1 78 f8 00 00 00 00	ldxdw r1, [r10 - 1928]
    2821:	7b 1a 50 f0 00 00 00 00	stxdw [r10 - 4016], r1
    2822:	79 a6 70 f8 00 00 00 00	ldxdw r6, [r10 - 1936]
    2823:	bf a1 00 00 00 00 00 00	mov64 r1, r10
    2824:	07 01 00 00 70 f1 ff ff	add64 r1, -3728
    2825:	b7 02 00 00 02 00 00 00	mov64 r2, 2
    2826:	b7 03 00 00 40 00 00 00	mov64 r3, 64
    2827:	85 10 00 00 f3 3c 00 00	call 15603
    2828:	bf a1 00 00 00 00 00 00	mov64 r1, r10
    2829:	07 01 00 00 b0 f1 ff ff	add64 r1, -3664
    2830:	b7 02 00 00 01 00 00 00	mov64 r2, 1
    2831:	b7 03 00 00 40 00 00 00	mov64 r3, 64
    2832:	85 10 00 00 ee 3c 00 00	call 15598
    2833:	bf a1 00 00 00 00 00 00	mov64 r1, r10
    2834:	07 01 00 00 88 fb ff ff	add64 r1, -1144
    2835:	85 10 00 00 b4 26 00 00	call 9908
    2836:	61 a1 88 fb 00 00 00 00	ldxw r1, [r10 - 1144]
    2837:	15 01 01 00 16 00 00 00	jeq r1, 22, +1 <.text+0x5798>
    2838:	05 00 5e 00 00 00 00 00	ja +94 <.text+0x5a88>
    2839:	bf 87 00 00 00 00 00 00	mov64 r7, r8
    2840:	7b 6a e8 ef 00 00 00 00	stxdw [r10 - 4120], r6
    2841:	79 a1 90 fb 00 00 00 00	ldxdw r1, [r10 - 1136]
    2842:	7b 1a f0 f1 00 00 00 00	stxdw [r10 - 3600], r1
    2843:	79 a1 98 fb 00 00 00 00	ldxdw r1, [r10 - 1128]
    2844:	7b 1a f8 f1 00 00 00 00	stxdw [r10 - 3592], r1
    2845:	79 a1 a0 fb 00 00 00 00	ldxdw r1, [r10 - 1120]
    2846:	7b 1a 00 f2 00 00 00 00	stxdw [r10 - 3584], r1
    2847:	79 a8 c0 f0 00 00 00 00	ldxdw r8, [r10 - 3904]
    2848:	bf 81 00 00 00 00 00 00	mov64 r1, r8
    2849:	85 10 00 00 29 1d 00 00	call 7465
    2850:	bf a1 00 00 00 00 00 00	mov64 r1, r10
    2851:	07 01 00 00 68 f8 ff ff	add64 r1, -1944
    2852:	bf 02 00 00 00 00 00 00	mov64 r2, r0
    2853:	85 10 00 00 a1 fc ff ff	call -863
    2854:	bf 81 00 00 00 00 00 00	mov64 r1, r8
    2855:	85 10 00 00 ee 1c 00 00	call 7406
    2856:	bf 06 00 00 00 00 00 00	mov64 r6, r0
    2857:	bf a1 00 00 00 00 00 00	mov64 r1, r10
    2858:	07 01 00 00 28 f1 ff ff	add64 r1, -3800
    2859:	85 10 00 00 28 13 00 00	call 4904
    2860:	15 06 19 01 00 00 00 00	jeq r6, 0, +281 <.text+0x6110>
    2861:	bf a1 00 00 00 00 00 00	mov64 r1, r10
    2862:	07 01 00 00 80 f2 ff ff	add64 r1, -3456
    2863:	bf 02 00 00 00 00 00 00	mov64 r2, r0
    2864:	85 10 00 00 96 fc ff ff	call -874
    2865:	bf 81 00 00 00 00 00 00	mov64 r1, r8
    2866:	85 10 00 00 18 1d 00 00	call 7448
    2867:	bf a1 00 00 00 00 00 00	mov64 r1, r10
    2868:	07 01 00 00 b0 f2 ff ff	add64 r1, -3408
    2869:	bf 02 00 00 00 00 00 00	mov64 r2, r0
    2870:	85 10 00 00 90 fc ff ff	call -880
    2871:	79 a6 a0 f0 00 00 00 00	ldxdw r6, [r10 - 3936]
    2872:	79 62 00 00 00 00 00 00	ldxdw r2, [r6 + 0]
    2873:	07 02 00 00 01 00 00 00	add64 r2, 1
    2874:	7b 26 00 00 00 00 00 00	stxdw [r6 + 0], r2
    2875:	b7 01 00 00 01 00 00 00	mov64 r1, 1
    2876:	15 02 01 00 00 00 00 00	jeq r2, 0, +1 <.text+0x58d0>
    2877:	b7 01 00 00 00 00 00 00	mov64 r1, 0
    2878:	bf 78 00 00 00 00 00 00	mov64 r8, r7
    2879:	55 01 c7 00 01 00 00 00	jne r1, 1, +199 <.text+0x5f18>
    2880:	05 00 18 01 00 00 00 00	ja +280 <.text+0x61a8>
    2881:	61 a1 9b f8 00 00 00 00	ldxw r1, [r10 - 1893]
    2882:	63 1a 90 fe 00 00 00 00	stxw [r10 - 368], r1
    2883:	71 a1 9f f8 00 00 00 00	ldxb r1, [r10 - 1889]
    2884:	73 1a 94 fe 00 00 00 00	stxb [r10 - 364], r1
    2885:	79 a1 70 f8 00 00 00 00	ldxdw r1, [r10 - 1936]
    2886:	7b 1a d8 f0 00 00 00 00	stxdw [r10 - 3880], r1
    2887:	79 a1 78 f8 00 00 00 00	ldxdw r1, [r10 - 1928]
    2888:	7b 1a c0 f0 00 00 00 00	stxdw [r10 - 3904], r1
    2889:	79 a1 80 f8 00 00 00 00	ldxdw r1, [r10 - 1920]
    2890:	7b 1a b8 f0 00 00 00 00	stxdw [r10 - 3912], r1
    2891:	79 a1 88 f8 00 00 00 00	ldxdw r1, [r10 - 1912]
    2892:	7b 1a b0 f0 00 00 00 00	stxdw [r10 - 3920], r1
    2893:	79 a1 90 f8 00 00 00 00	ldxdw r1, [r10 - 1904]
    2894:	7b 1a a8 f0 00 00 00 00	stxdw [r10 - 3928], r1
    2895:	79 a1 d0 f0 00 00 00 00	ldxdw r1, [r10 - 3888]
    2896:	7b 1a d0 f0 00 00 00 00	stxdw [r10 - 3888], r1
    2897:	71 a1 98 f8 00 00 00 00	ldxb r1, [r10 - 1896]
    2898:	7b 1a a0 f0 00 00 00 00	stxdw [r10 - 3936], r1
    2899:	71 a6 99 f8 00 00 00 00	ldxb r6, [r10 - 1895]
    2900:	71 a8 9a f8 00 00 00 00	ldxb r8, [r10 - 1894]
    2901:	7b 9a c8 f0 00 00 00 00	stxdw [r10 - 3896], r9
    2902:	79 a9 e0 f0 00 00 00 00	ldxdw r9, [r10 - 3872]
    2903:	bf 91 00 00 00 00 00 00	mov64 r1, r9
    2904:	07 01 00 00 38 00 00 00	add64 r1, 56
    2905:	bf a2 00 00 00 00 00 00	mov64 r2, r10
    2906:	07 02 00 00 a0 f8 ff ff	add64 r2, -1888
    2907:	b7 03 00 00 68 00 00 00	mov64 r3, 104
    2908:	85 10 00 00 3d 3c 00 00	call 15421
    2909:	71 a1 94 fe 00 00 00 00	ldxb r1, [r10 - 364]
    2910:	73 19 37 00 00 00 00 00	stxb [r9 + 55], r1
    2911:	61 a1 90 fe 00 00 00 00	ldxw r1, [r10 - 368]
    2912:	63 19 33 00 00 00 00 00	stxw [r9 + 51], r1
    2913:	b7 01 00 00 02 00 00 00	mov64 r1, 2
    2914:	63 19 d8 03 00 00 00 00	stxw [r9 + 984], r1
    2915:	73 89 32 00 00 00 00 00	stxb [r9 + 50], r8
    2916:	73 69 31 00 00 00 00 00	stxb [r9 + 49], r6
    2917:	79 a1 a0 f0 00 00 00 00	ldxdw r1, [r10 - 3936]
    2918:	73 19 30 00 00 00 00 00	stxb [r9 + 48], r1
    2919:	79 a0 d0 f0 00 00 00 00	ldxdw r0, [r10 - 3888]
    2920:	79 a1 a8 f0 00 00 00 00	ldxdw r1, [r10 - 3928]
    2921:	7b 19 28 00 00 00 00 00	stxdw [r9 + 40], r1
    2922:	79 a1 b0 f0 00 00 00 00	ldxdw r1, [r10 - 3920]
    2923:	7b 19 20 00 00 00 00 00	stxdw [r9 + 32], r1
    2924:	79 a1 b8 f0 00 00 00 00	ldxdw r1, [r10 - 3912]
    2925:	7b 19 18 00 00 00 00 00	stxdw [r9 + 24], r1
    2926:	79 a1 c0 f0 00 00 00 00	ldxdw r1, [r10 - 3904]
    2927:	7b 19 10 00 00 00 00 00	stxdw [r9 + 16], r1
    2928:	79 a1 d8 f0 00 00 00 00	ldxdw r1, [r10 - 3880]
    2929:	7b 19 08 00 00 00 00 00	stxdw [r9 + 8], r1
    2930:	7b 79 00 00 00 00 00 00	stxdw [r9 + 0], r7
    2931:	79 a9 c8 f0 00 00 00 00	ldxdw r9, [r10 - 3896]
    2932:	05 00 0e 03 00 00 00 00	ja +782 <.text+0x72f8>
    2933:	bf 87 00 00 00 00 00 00	mov64 r7, r8
    2934:	61 a2 a4 fb 00 00 00 00	ldxw r2, [r10 - 1116]
    2935:	63 2a 80 f8 00 00 00 00	stxw [r10 - 1920], r2
    2936:	79 a3 9c fb 00 00 00 00	ldxdw r3, [r10 - 1124]
    2937:	7b 3a 78 f8 00 00 00 00	stxdw [r10 - 1928], r3
    2938:	79 a4 94 fb 00 00 00 00	ldxdw r4, [r10 - 1132]
    2939:	7b 4a 70 f8 00 00 00 00	stxdw [r10 - 1936], r4
    2940:	79 a5 8c fb 00 00 00 00	ldxdw r5, [r10 - 1140]
    2941:	7b 5a 68 f8 00 00 00 00	stxdw [r10 - 1944], r5
    2942:	63 2a cc f4 00 00 00 00	stxw [r10 - 2868], r2
    2943:	7b 3a c4 f4 00 00 00 00	stxdw [r10 - 2876], r3
    2944:	7b 4a bc f4 00 00 00 00	stxdw [r10 - 2884], r4
    2945:	7b 5a b4 f4 00 00 00 00	stxdw [r10 - 2892], r5
    2946:	63 1a b0 f4 00 00 00 00	stxw [r10 - 2896], r1
    2947:	bf a6 00 00 00 00 00 00	mov64 r6, r10
    2948:	07 06 00 00 88 fb ff ff	add64 r6, -1144
    2949:	bf a2 00 00 00 00 00 00	mov64 r2, r10
    2950:	07 02 00 00 b0 f4 ff ff	add64 r2, -2896
    2951:	bf 61 00 00 00 00 00 00	mov64 r1, r6
    2952:	85 10 00 00 cd 12 00 00	call 4813
    2953:	79 a8 e0 f0 00 00 00 00	ldxdw r8, [r10 - 3872]
    2954:	bf 81 00 00 00 00 00 00	mov64 r1, r8
    2955:	bf 62 00 00 00 00 00 00	mov64 r2, r6
    2956:	b7 03 00 00 a0 00 00 00	mov64 r3, 160
    2957:	85 10 00 00 0c 3c 00 00	call 15372
    2958:	b7 01 00 00 02 00 00 00	mov64 r1, 2
    2959:	63 18 d8 03 00 00 00 00	stxw [r8 + 984], r1
    2960:	79 a3 a0 f0 00 00 00 00	ldxdw r3, [r10 - 3936]
    2961:	79 a4 48 f0 00 00 00 00	ldxdw r4, [r10 - 4024]
    2962:	79 a5 50 f0 00 00 00 00	ldxdw r5, [r10 - 4016]
    2963:	79 a0 d0 f0 00 00 00 00	ldxdw r0, [r10 - 3888]
    2964:	05 00 c1 02 00 00 00 00	ja +705 <.text+0x7190>
    2965:	61 a1 9b f8 00 00 00 00	ldxw r1, [r10 - 1893]
    2966:	63 1a 90 fe 00 00 00 00	stxw [r10 - 368], r1
    2967:	71 a1 9f f8 00 00 00 00	ldxb r1, [r10 - 1889]
    2968:	73 1a 94 fe 00 00 00 00	stxb [r10 - 364], r1
    2969:	79 a1 70 f8 00 00 00 00	ldxdw r1, [r10 - 1936]
    2970:	7b 1a d8 f0 00 00 00 00	stxdw [r10 - 3880], r1
    2971:	79 a1 78 f8 00 00 00 00	ldxdw r1, [r10 - 1928]
    2972:	7b 1a c0 f0 00 00 00 00	stxdw [r10 - 3904], r1
    2973:	79 a1 80 f8 00 00 00 00	ldxdw r1, [r10 - 1920]
    2974:	7b 1a b8 f0 00 00 00 00	stxdw [r10 - 3912], r1
    2975:	79 a1 88 f8 00 00 00 00	ldxdw r1, [r10 - 1912]
    2976:	7b 1a b0 f0 00 00 00 00	stxdw [r10 - 3920], r1
    2977:	79 a1 90 f8 00 00 00 00	ldxdw r1, [r10 - 1904]
    2978:	7b 1a a8 f0 00 00 00 00	stxdw [r10 - 3928], r1
    2979:	79 a1 d0 f0 00 00 00 00	ldxdw r1, [r10 - 3888]
    2980:	7b 1a d0 f0 00 00 00 00	stxdw [r10 - 3888], r1
    2981:	71 a1 98 f8 00 00 00 00	ldxb r1, [r10 - 1896]
    2982:	7b 1a 98 f0 00 00 00 00	stxdw [r10 - 3944], r1
    2983:	71 a1 99 f8 00 00 00 00	ldxb r1, [r10 - 1895]
    2984:	7b 1a 90 f0 00 00 00 00	stxdw [r10 - 3952], r1
    2985:	bf 86 00 00 00 00 00 00	mov64 r6, r8
    2986:	71 a8 9a f8 00 00 00 00	ldxb r8, [r10 - 1894]
    2987:	7b 9a c8 f0 00 00 00 00	stxdw [r10 - 3896], r9
    2988:	79 a9 e0 f0 00 00 00 00	ldxdw r9, [r10 - 3872]
    2989:	bf 91 00 00 00 00 00 00	mov64 r1, r9
    2990:	07 01 00 00 38 00 00 00	add64 r1, 56
    2991:	bf a2 00 00 00 00 00 00	mov64 r2, r10
    2992:	07 02 00 00 a0 f8 ff ff	add64 r2, -1888
    2993:	b7 03 00 00 68 00 00 00	mov64 r3, 104
    2994:	85 10 00 00 e7 3b 00 00	call 15335
    2995:	71 a1 94 fe 00 00 00 00	ldxb r1, [r10 - 364]
    2996:	73 19 37 00 00 00 00 00	stxb [r9 + 55], r1
    2997:	61 a1 90 fe 00 00 00 00	ldxw r1, [r10 - 368]
    2998:	63 19 33 00 00 00 00 00	stxw [r9 + 51], r1
    2999:	b7 01 00 00 02 00 00 00	mov64 r1, 2
    3000:	63 19 d8 03 00 00 00 00	stxw [r9 + 984], r1
    3001:	73 89 32 00 00 00 00 00	stxb [r9 + 50], r8
    3002:	bf 62 00 00 00 00 00 00	mov64 r2, r6
    3003:	79 a1 90 f0 00 00 00 00	ldxdw r1, [r10 - 3952]
    3004:	73 19 31 00 00 00 00 00	stxb [r9 + 49], r1
    3005:	79 a1 98 f0 00 00 00 00	ldxdw r1, [r10 - 3944]
    3006:	73 19 30 00 00 00 00 00	stxb [r9 + 48], r1
    3007:	79 a0 d0 f0 00 00 00 00	ldxdw r0, [r10 - 3888]
    3008:	79 a1 a8 f0 00 00 00 00	ldxdw r1, [r10 - 3928]
    3009:	7b 19 28 00 00 00 00 00	stxdw [r9 + 40], r1
    3010:	79 a1 b0 f0 00 00 00 00	ldxdw r1, [r10 - 3920]
    3011:	7b 19 20 00 00 00 00 00	stxdw [r9 + 32], r1
    3012:	79 a1 b8 f0 00 00 00 00	ldxdw r1, [r10 - 3912]
    3013:	7b 19 18 00 00 00 00 00	stxdw [r9 + 24], r1
    3014:	79 a1 c0 f0 00 00 00 00	ldxdw r1, [r10 - 3904]
    3015:	7b 19 10 00 00 00 00 00	stxdw [r9 + 16], r1
    3016:	79 a1 d8 f0 00 00 00 00	ldxdw r1, [r10 - 3880]
    3017:	7b 19 08 00 00 00 00 00	stxdw [r9 + 8], r1
    3018:	7b 79 00 00 00 00 00 00	stxdw [r9 + 0], r7
    3019:	79 a9 c8 f0 00 00 00 00	ldxdw r9, [r10 - 3896]
    3020:	79 a3 a0 f0 00 00 00 00	ldxdw r3, [r10 - 3936]
    3021:	05 00 a7 02 00 00 00 00	ja +679 <.text+0x7288>
    3022:	61 a1 9b f8 00 00 00 00	ldxw r1, [r10 - 1893]
    3023:	63 1a 90 fe 00 00 00 00	stxw [r10 - 368], r1
    3024:	71 a1 9f f8 00 00 00 00	ldxb r1, [r10 - 1889]
    3025:	73 1a 94 fe 00 00 00 00	stxb [r10 - 364], r1
    3026:	79 a1 70 f8 00 00 00 00	ldxdw r1, [r10 - 1936]
    3027:	7b 1a d8 f0 00 00 00 00	stxdw [r10 - 3880], r1
    3028:	79 a1 78 f8 00 00 00 00	ldxdw r1, [r10 - 1928]
    3029:	7b 1a c0 f0 00 00 00 00	stxdw [r10 - 3904], r1
    3030:	79 a1 80 f8 00 00 00 00	ldxdw r1, [r10 - 1920]
    3031:	7b 1a b8 f0 00 00 00 00	stxdw [r10 - 3912], r1
    3032:	79 a1 88 f8 00 00 00 00	ldxdw r1, [r10 - 1912]
    3033:	7b 1a b0 f0 00 00 00 00	stxdw [r10 - 3920], r1
    3034:	79 a1 90 f8 00 00 00 00	ldxdw r1, [r10 - 1904]
    3035:	7b 1a a8 f0 00 00 00 00	stxdw [r10 - 3928], r1
    3036:	79 a1 d0 f0 00 00 00 00	ldxdw r1, [r10 - 3888]
    3037:	7b 1a d0 f0 00 00 00 00	stxdw [r10 - 3888], r1
    3038:	71 a1 98 f8 00 00 00 00	ldxb r1, [r10 - 1896]
    3039:	7b 1a 88 f0 00 00 00 00	stxdw [r10 - 3960], r1
    3040:	71 a1 99 f8 00 00 00 00	ldxb r1, [r10 - 1895]
    3041:	7b 1a 80 f0 00 00 00 00	stxdw [r10 - 3968], r1
    3042:	bf 87 00 00 00 00 00 00	mov64 r7, r8
    3043:	71 a8 9a f8 00 00 00 00	ldxb r8, [r10 - 1894]
    3044:	7b 9a c8 f0 00 00 00 00	stxdw [r10 - 3896], r9
    3045:	79 a9 e0 f0 00 00 00 00	ldxdw r9, [r10 - 3872]
    3046:	bf 91 00 00 00 00 00 00	mov64 r1, r9
    3047:	07 01 00 00 38 00 00 00	add64 r1, 56
    3048:	bf a2 00 00 00 00 00 00	mov64 r2, r10
    3049:	07 02 00 00 a0 f8 ff ff	add64 r2, -1888
    3050:	b7 03 00 00 68 00 00 00	mov64 r3, 104
    3051:	85 10 00 00 ae 3b 00 00	call 15278
    3052:	71 a1 94 fe 00 00 00 00	ldxb r1, [r10 - 364]
    3053:	73 19 37 00 00 00 00 00	stxb [r9 + 55], r1
    3054:	61 a1 90 fe 00 00 00 00	ldxw r1, [r10 - 368]
    3055:	63 19 33 00 00 00 00 00	stxw [r9 + 51], r1
    3056:	b7 01 00 00 02 00 00 00	mov64 r1, 2
    3057:	63 19 d8 03 00 00 00 00	stxw [r9 + 984], r1
    3058:	73 89 32 00 00 00 00 00	stxb [r9 + 50], r8
    3059:	bf 72 00 00 00 00 00 00	mov64 r2, r7
    3060:	79 a1 80 f0 00 00 00 00	ldxdw r1, [r10 - 3968]
    3061:	73 19 31 00 00 00 00 00	stxb [r9 + 49], r1
    3062:	79 a1 88 f0 00 00 00 00	ldxdw r1, [r10 - 3960]
    3063:	73 19 30 00 00 00 00 00	stxb [r9 + 48], r1
    3064:	79 a0 d0 f0 00 00 00 00	ldxdw r0, [r10 - 3888]
    3065:	79 a1 a8 f0 00 00 00 00	ldxdw r1, [r10 - 3928]
    3066:	7b 19 28 00 00 00 00 00	stxdw [r9 + 40], r1
    3067:	79 a1 b0 f0 00 00 00 00	ldxdw r1, [r10 - 3920]
    3068:	7b 19 20 00 00 00 00 00	stxdw [r9 + 32], r1
    3069:	79 a1 b8 f0 00 00 00 00	ldxdw r1, [r10 - 3912]
    3070:	7b 19 18 00 00 00 00 00	stxdw [r9 + 24], r1
    3071:	79 a1 c0 f0 00 00 00 00	ldxdw r1, [r10 - 3904]
    3072:	7b 19 10 00 00 00 00 00	stxdw [r9 + 16], r1
    3073:	79 a1 d8 f0 00 00 00 00	ldxdw r1, [r10 - 3880]
    3074:	7b 19 08 00 00 00 00 00	stxdw [r9 + 8], r1
    3075:	7b 69 00 00 00 00 00 00	stxdw [r9 + 0], r6
    3076:	79 a9 c8 f0 00 00 00 00	ldxdw r9, [r10 - 3896]
    3077:	79 a3 a0 f0 00 00 00 00	ldxdw r3, [r10 - 3936]
    3078:	05 00 5e 02 00 00 00 00	ja +606 <.text+0x7208>
    3079:	79 82 00 00 00 00 00 00	ldxdw r2, [r8 + 0]
    3080:	07 02 00 00 01 00 00 00	add64 r2, 1
    3081:	7b 28 00 00 00 00 00 00	stxdw [r8 + 0], r2
    3082:	b7 01 00 00 01 00 00 00	mov64 r1, 1
    3083:	15 02 01 00 00 00 00 00	jeq r2, 0, +1 <.text+0x5f48>
    3084:	b7 01 00 00 00 00 00 00	mov64 r1, 0
    3085:	55 01 01 00 01 00 00 00	jne r1, 1, +1 <.text+0x5f58>
    3086:	05 00 4a 00 00 00 00 00	ja +74 <.text+0x61a8>
    3087:	bf a1 00 00 00 00 00 00	mov64 r1, r10
    3088:	07 01 00 00 08 f3 ff ff	add64 r1, -3320
    3089:	bf a2 00 00 00 00 00 00	mov64 r2, r10
    3090:	07 02 00 00 80 f2 ff ff	add64 r2, -3456
    3091:	b7 03 00 00 60 00 00 00	mov64 r3, 96
    3092:	85 10 00 00 85 3b 00 00	call 15237
    3093:	b7 01 00 00 08 00 00 00	mov64 r1, 8
    3094:	7b 1a f0 f2 00 00 00 00	stxdw [r10 - 3344], r1
    3095:	79 a1 60 f0 00 00 00 00	ldxdw r1, [r10 - 4000]
    3096:	73 1a 92 f3 00 00 00 00	stxb [r10 - 3182], r1
    3097:	79 a1 68 f0 00 00 00 00	ldxdw r1, [r10 - 3992]
    3098:	73 1a 91 f3 00 00 00 00	stxb [r10 - 3183], r1
    3099:	79 a1 70 f0 00 00 00 00	ldxdw r1, [r10 - 3984]
    3100:	73 1a 90 f3 00 00 00 00	stxb [r10 - 3184], r1
    3101:	79 a1 78 f0 00 00 00 00	ldxdw r1, [r10 - 3976]
    3102:	7b 1a 88 f3 00 00 00 00	stxdw [r10 - 3192], r1
    3103:	79 a1 80 f0 00 00 00 00	ldxdw r1, [r10 - 3968]
    3104:	7b 1a 80 f3 00 00 00 00	stxdw [r10 - 3200], r1
    3105:	7b 8a 78 f3 00 00 00 00	stxdw [r10 - 3208], r8
    3106:	7b 6a 70 f3 00 00 00 00	stxdw [r10 - 3216], r6
    3107:	79 a1 88 f0 00 00 00 00	ldxdw r1, [r10 - 3960]
    3108:	7b 1a 68 f3 00 00 00 00	stxdw [r10 - 3224], r1
    3109:	b7 01 00 00 00 00 00 00	mov64 r1, 0
    3110:	7b 1a f8 f2 00 00 00 00	stxdw [r10 - 3336], r1
    3111:	7b 1a 00 f3 00 00 00 00	stxdw [r10 - 3328], r1
    3112:	7b 1a e8 f2 00 00 00 00	stxdw [r10 - 3352], r1
    3113:	18 01 00 00 78 52 02 00 00 00 00 00 00 00 00 00	lddw r1, 152184
    3115:	7b 1a e0 f2 00 00 00 00	stxdw [r10 - 3360], r1
    3116:	bf a1 00 00 00 00 00 00	mov64 r1, r10
    3117:	07 01 00 00 88 fb ff ff	add64 r1, -1144
    3118:	bf a2 00 00 00 00 00 00	mov64 r2, r10
    3119:	07 02 00 00 e0 f2 ff ff	add64 r2, -3360
    3120:	b7 03 00 00 14 00 00 00	mov64 r3, 20
    3121:	85 10 00 00 ce 14 00 00	call 5326
    3122:	bf 67 00 00 00 00 00 00	mov64 r7, r6
    3123:	79 a6 88 fb 00 00 00 00	ldxdw r6, [r10 - 1144]
    3124:	15 06 01 00 04 00 00 00	jeq r6, 4, +1 <.text+0x6090>
    3125:	05 00 4f 00 00 00 00 00	ja +79 <.text+0x6308>
    3126:	79 a1 c0 f0 00 00 00 00	ldxdw r1, [r10 - 3904]
    3127:	85 10 00 00 13 1c 00 00	call 7187
    3128:	bf a1 00 00 00 00 00 00	mov64 r1, r10
    3129:	07 01 00 00 98 f3 ff ff	add64 r1, -3176
    3130:	bf 02 00 00 00 00 00 00	mov64 r2, r0
    3131:	85 10 00 00 8b fb ff ff	call -1141
    3132:	79 72 00 00 00 00 00 00	ldxdw r2, [r7 + 0]
    3133:	07 02 00 00 01 00 00 00	add64 r2, 1
    3134:	7b 27 00 00 00 00 00 00	stxdw [r7 + 0], r2
    3135:	b7 01 00 00 01 00 00 00	mov64 r1, 1
    3136:	bf 76 00 00 00 00 00 00	mov64 r6, r7
    3137:	15 02 01 00 00 00 00 00	jeq r2, 0, +1 <.text+0x60f8>
    3138:	b7 01 00 00 00 00 00 00	mov64 r1, 0
    3139:	79 a7 98 f0 00 00 00 00	ldxdw r7, [r10 - 3944]
    3140:	55 01 4b 00 01 00 00 00	jne r1, 1, +75 <.text+0x6360>
    3141:	05 00 13 00 00 00 00 00	ja +19 <.text+0x61a8>
    3142:	bf a1 00 00 00 00 00 00	mov64 r1, r10
    3143:	07 01 00 00 20 f2 ff ff	add64 r1, -3552
    3144:	bf 02 00 00 00 00 00 00	mov64 r2, r0
    3145:	85 10 00 00 7d fb ff ff	call -1155
    3146:	bf 81 00 00 00 00 00 00	mov64 r1, r8
    3147:	85 10 00 00 ff 1b 00 00	call 7167
    3148:	bf a1 00 00 00 00 00 00	mov64 r1, r10
    3149:	07 01 00 00 50 f2 ff ff	add64 r1, -3504
    3150:	bf 02 00 00 00 00 00 00	mov64 r2, r0
    3151:	85 10 00 00 77 fb ff ff	call -1161
    3152:	79 a6 a0 f0 00 00 00 00	ldxdw r6, [r10 - 3936]
    3153:	79 62 00 00 00 00 00 00	ldxdw r2, [r6 + 0]
    3154:	07 02 00 00 01 00 00 00	add64 r2, 1
    3155:	7b 26 00 00 00 00 00 00	stxdw [r6 + 0], r2
    3156:	b7 01 00 00 01 00 00 00	mov64 r1, 1
    3157:	15 02 01 00 00 00 00 00	jeq r2, 0, +1 <.text+0x6198>
    3158:	b7 01 00 00 00 00 00 00	mov64 r1, 0
    3159:	bf 78 00 00 00 00 00 00	mov64 r8, r7
    3160:	55 01 02 00 01 00 00 00	jne r1, 1, +2 <.text+0x61b8>
    3161:	85 10 00 00 ff ff ff ff	call -1
    3162:	85 10 00 00 ff ff ff ff	call -1
    3163:	79 82 00 00 00 00 00 00	ldxdw r2, [r8 + 0]
    3164:	07 02 00 00 01 00 00 00	add64 r2, 1
    3165:	7b 28 00 00 00 00 00 00	stxdw [r8 + 0], r2
    3166:	b7 01 00 00 01 00 00 00	mov64 r1, 1
    3167:	79 a7 98 f0 00 00 00 00	ldxdw r7, [r10 - 3944]
    3168:	15 02 01 00 00 00 00 00	jeq r2, 0, +1 <.text+0x61f0>
    3169:	b7 01 00 00 00 00 00 00	mov64 r1, 0
    3170:	55 01 01 00 01 00 00 00	jne r1, 1, +1 <.text+0x6200>
    3171:	05 00 f5 ff 00 00 00 00	ja -11 <.text+0x61a8>
    3172:	bf a1 00 00 00 00 00 00	mov64 r1, r10
    3173:	07 01 00 00 b0 fb ff ff	add64 r1, -1104
    3174:	bf a2 00 00 00 00 00 00	mov64 r2, r10
    3175:	07 02 00 00 20 f2 ff ff	add64 r2, -3552
    3176:	b7 03 00 00 60 00 00 00	mov64 r3, 96
    3177:	85 10 00 00 30 3b 00 00	call 15152
    3178:	b7 01 00 00 08 00 00 00	mov64 r1, 8
    3179:	7b 1a 98 fb 00 00 00 00	stxdw [r10 - 1128], r1
    3180:	79 a1 60 f0 00 00 00 00	ldxdw r1, [r10 - 4000]
    3181:	73 1a 3a fc 00 00 00 00	stxb [r10 - 966], r1
    3182:	79 a1 68 f0 00 00 00 00	ldxdw r1, [r10 - 3992]
    3183:	73 1a 39 fc 00 00 00 00	stxb [r10 - 967], r1
    3184:	79 a1 70 f0 00 00 00 00	ldxdw r1, [r10 - 3984]
    3185:	73 1a 38 fc 00 00 00 00	stxb [r10 - 968], r1
    3186:	79 a1 78 f0 00 00 00 00	ldxdw r1, [r10 - 3976]
    3187:	7b 1a 30 fc 00 00 00 00	stxdw [r10 - 976], r1
    3188:	79 a1 80 f0 00 00 00 00	ldxdw r1, [r10 - 3968]
    3189:	7b 1a 28 fc 00 00 00 00	stxdw [r10 - 984], r1
    3190:	7b 8a 20 fc 00 00 00 00	stxdw [r10 - 992], r8
    3191:	7b 6a 18 fc 00 00 00 00	stxdw [r10 - 1000], r6
    3192:	79 a1 88 f0 00 00 00 00	ldxdw r1, [r10 - 3960]
    3193:	7b 1a 10 fc 00 00 00 00	stxdw [r10 - 1008], r1
    3194:	b7 01 00 00 00 00 00 00	mov64 r1, 0
    3195:	7b 1a a0 fb 00 00 00 00	stxdw [r10 - 1120], r1
    3196:	7b 1a a8 fb 00 00 00 00	stxdw [r10 - 1112], r1
    3197:	7b 1a 90 fb 00 00 00 00	stxdw [r10 - 1136], r1
    3198:	18 01 00 00 78 52 02 00 00 00 00 00 00 00 00 00	lddw r1, 152184
    3200:	7b 1a 88 fb 00 00 00 00	stxdw [r10 - 1144], r1
    3201:	bf a1 00 00 00 00 00 00	mov64 r1, r10
    3202:	07 01 00 00 88 fb ff ff	add64 r1, -1144
    3203:	85 10 00 00 ea f5 ff ff	call -2582
    3204:	05 00 69 00 00 00 00 00	ja +105 <.text+0x6650>
    3205:	79 a7 e0 f0 00 00 00 00	ldxdw r7, [r10 - 3872]
    3206:	bf 71 00 00 00 00 00 00	mov64 r1, r7
    3207:	07 01 00 00 08 00 00 00	add64 r1, 8
    3208:	bf a2 00 00 00 00 00 00	mov64 r2, r10
    3209:	07 02 00 00 90 fb ff ff	add64 r2, -1136
    3210:	b7 03 00 00 98 00 00 00	mov64 r3, 152
    3211:	85 10 00 00 0e 3b 00 00	call 15118
    3212:	b7 01 00 00 02 00 00 00	mov64 r1, 2
    3213:	63 17 d8 03 00 00 00 00	stxw [r7 + 984], r1
    3214:	7b 67 00 00 00 00 00 00	stxdw [r7 + 0], r6
    3215:	05 00 b9 00 00 00 00 00	ja +185 <.text+0x6928>
    3216:	79 82 00 00 00 00 00 00	ldxdw r2, [r8 + 0]
    3217:	07 02 00 00 01 00 00 00	add64 r2, 1
    3218:	7b 28 00 00 00 00 00 00	stxdw [r8 + 0], r2
    3219:	b7 01 00 00 01 00 00 00	mov64 r1, 1
    3220:	15 02 01 00 00 00 00 00	jeq r2, 0, +1 <.text+0x6390>
    3221:	b7 01 00 00 00 00 00 00	mov64 r1, 0
    3222:	55 01 01 00 01 00 00 00	jne r1, 1, +1 <.text+0x63a0>
    3223:	05 00 c1 ff 00 00 00 00	ja -63 <.text+0x61a8>
    3224:	bf a1 00 00 00 00 00 00	mov64 r1, r10
    3225:	07 01 00 00 d8 f4 ff ff	add64 r1, -2856
    3226:	bf a2 00 00 00 00 00 00	mov64 r2, r10
    3227:	07 02 00 00 98 f3 ff ff	add64 r2, -3176
    3228:	b7 03 00 00 30 00 00 00	mov64 r3, 48
    3229:	85 10 00 00 fc 3a 00 00	call 15100
    3230:	b7 01 00 00 08 00 00 00	mov64 r1, 8
    3231:	7b 1a c0 f4 00 00 00 00	stxdw [r10 - 2880], r1
    3232:	79 a1 60 f0 00 00 00 00	ldxdw r1, [r10 - 4000]
    3233:	73 1a 32 f5 00 00 00 00	stxb [r10 - 2766], r1
    3234:	79 a1 68 f0 00 00 00 00	ldxdw r1, [r10 - 3992]
    3235:	73 1a 31 f5 00 00 00 00	stxb [r10 - 2767], r1
    3236:	79 a1 70 f0 00 00 00 00	ldxdw r1, [r10 - 3984]
    3237:	73 1a 30 f5 00 00 00 00	stxb [r10 - 2768], r1
    3238:	79 a1 78 f0 00 00 00 00	ldxdw r1, [r10 - 3976]
    3239:	7b 1a 28 f5 00 00 00 00	stxdw [r10 - 2776], r1
    3240:	79 a1 80 f0 00 00 00 00	ldxdw r1, [r10 - 3968]
    3241:	7b 1a 20 f5 00 00 00 00	stxdw [r10 - 2784], r1
    3242:	7b 8a 18 f5 00 00 00 00	stxdw [r10 - 2792], r8
    3243:	79 a1 88 f0 00 00 00 00	ldxdw r1, [r10 - 3960]
    3244:	7b 1a 08 f5 00 00 00 00	stxdw [r10 - 2808], r1
    3245:	18 01 00 00 78 52 02 00 00 00 00 00 00 00 00 00	lddw r1, 152184
    3247:	7b 1a b0 f4 00 00 00 00	stxdw [r10 - 2896], r1
    3248:	b7 01 00 00 00 00 00 00	mov64 r1, 0
    3249:	7b 1a c8 f4 00 00 00 00	stxdw [r10 - 2872], r1
    3250:	7b 1a d0 f4 00 00 00 00	stxdw [r10 - 2864], r1
    3251:	7b 6a 10 f5 00 00 00 00	stxdw [r10 - 2800], r6
    3252:	7b 1a b8 f4 00 00 00 00	stxdw [r10 - 2888], r1
    3253:	79 a1 c0 f0 00 00 00 00	ldxdw r1, [r10 - 3904]
    3254:	85 10 00 00 94 1b 00 00	call 7060
    3255:	bf a1 00 00 00 00 00 00	mov64 r1, r10
    3256:	07 01 00 00 c8 f3 ff ff	add64 r1, -3128
    3257:	bf 02 00 00 00 00 00 00	mov64 r2, r0
    3258:	85 10 00 00 0c fb ff ff	call -1268
    3259:	79 62 00 00 00 00 00 00	ldxdw r2, [r6 + 0]
    3260:	07 02 00 00 01 00 00 00	add64 r2, 1
    3261:	7b 26 00 00 00 00 00 00	stxdw [r6 + 0], r2
    3262:	b7 01 00 00 01 00 00 00	mov64 r1, 1
    3263:	15 02 01 00 00 00 00 00	jeq r2, 0, +1 <.text+0x64e8>
    3264:	b7 01 00 00 00 00 00 00	mov64 r1, 0
    3265:	55 01 01 00 01 00 00 00	jne r1, 1, +1 <.text+0x64f8>
    3266:	05 00 96 ff 00 00 00 00	ja -106 <.text+0x61a8>
    3267:	79 82 00 00 00 00 00 00	ldxdw r2, [r8 + 0]
    3268:	07 02 00 00 01 00 00 00	add64 r2, 1
    3269:	7b 28 00 00 00 00 00 00	stxdw [r8 + 0], r2
    3270:	b7 01 00 00 01 00 00 00	mov64 r1, 1
    3271:	15 02 01 00 00 00 00 00	jeq r2, 0, +1 <.text+0x6528>
    3272:	b7 01 00 00 00 00 00 00	mov64 r1, 0
    3273:	55 01 01 00 01 00 00 00	jne r1, 1, +1 <.text+0x6538>
    3274:	05 00 8e ff 00 00 00 00	ja -114 <.text+0x61a8>
    3275:	bf a1 00 00 00 00 00 00	mov64 r1, r10
    3276:	07 01 00 00 b0 fb ff ff	add64 r1, -1104
    3277:	bf a2 00 00 00 00 00 00	mov64 r2, r10
    3278:	07 02 00 00 c8 f3 ff ff	add64 r2, -3128
    3279:	b7 03 00 00 30 00 00 00	mov64 r3, 48
    3280:	85 10 00 00 c9 3a 00 00	call 15049
    3281:	b7 01 00 00 08 00 00 00	mov64 r1, 8
    3282:	7b 1a 98 fb 00 00 00 00	stxdw [r10 - 1128], r1
    3283:	79 a1 60 f0 00 00 00 00	ldxdw r1, [r10 - 4000]
    3284:	73 1a 0a fc 00 00 00 00	stxb [r10 - 1014], r1
    3285:	79 a1 68 f0 00 00 00 00	ldxdw r1, [r10 - 3992]
    3286:	73 1a 09 fc 00 00 00 00	stxb [r10 - 1015], r1
    3287:	79 a1 70 f0 00 00 00 00	ldxdw r1, [r10 - 3984]
    3288:	73 1a 08 fc 00 00 00 00	stxb [r10 - 1016], r1
    3289:	79 a1 78 f0 00 00 00 00	ldxdw r1, [r10 - 3976]
    3290:	7b 1a 00 fc 00 00 00 00	stxdw [r10 - 1024], r1
    3291:	79 a1 80 f0 00 00 00 00	ldxdw r1, [r10 - 3968]
    3292:	7b 1a f8 fb 00 00 00 00	stxdw [r10 - 1032], r1
    3293:	7b 8a f0 fb 00 00 00 00	stxdw [r10 - 1040], r8
    3294:	7b 6a e8 fb 00 00 00 00	stxdw [r10 - 1048], r6
    3295:	79 a1 88 f0 00 00 00 00	ldxdw r1, [r10 - 3960]
    3296:	7b 1a e0 fb 00 00 00 00	stxdw [r10 - 1056], r1
    3297:	b7 01 00 00 00 00 00 00	mov64 r1, 0
    3298:	7b 1a a0 fb 00 00 00 00	stxdw [r10 - 1120], r1
    3299:	7b 1a a8 fb 00 00 00 00	stxdw [r10 - 1112], r1
    3300:	7b 1a 90 fb 00 00 00 00	stxdw [r10 - 1136], r1
    3301:	18 01 00 00 78 52 02 00 00 00 00 00 00 00 00 00	lddw r1, 152184
    3303:	7b 1a 88 fb 00 00 00 00	stxdw [r10 - 1144], r1
    3304:	bf a1 00 00 00 00 00 00	mov64 r1, r10
    3305:	07 01 00 00 88 fb ff ff	add64 r1, -1144
    3306:	85 10 00 00 0f f6 ff ff	call -2545
    3307:	bf a1 00 00 00 00 00 00	mov64 r1, r10
    3308:	07 01 00 00 b0 f4 ff ff	add64 r1, -2896
    3309:	85 10 00 00 0c f6 ff ff	call -2548
    3310:	18 01 00 00 0e 54 02 00 00 00 00 00 00 00 00 00	lddw r1, 152590
    3312:	b7 02 00 00 0d 00 00 00	mov64 r2, 13
    3313:	85 10 00 00 ff ff ff ff	call -1
    3314:	bf a1 00 00 00 00 00 00	mov64 r1, r10
    3315:	07 01 00 00 b0 f4 ff ff	add64 r1, -2896
    3316:	79 a2 c0 f0 00 00 00 00	ldxdw r2, [r10 - 3904]
    3317:	85 10 00 00 89 f3 ff ff	call -3191
    3318:	79 a1 b0 f4 00 00 00 00	ldxdw r1, [r10 - 2896]
    3319:	15 01 01 00 04 00 00 00	jeq r1, 4, +1 <.text+0x66a8>
    3320:	05 00 3a 00 00 00 00 00	ja +58 <.text+0x6878>
    3321:	79 a1 d0 f4 00 00 00 00	ldxdw r1, [r10 - 2864]
    3322:	7b 1a 08 f2 00 00 00 00	stxdw [r10 - 3576], r1
    3323:	79 a1 d8 f4 00 00 00 00	ldxdw r1, [r10 - 2856]
    3324:	7b 1a 10 f2 00 00 00 00	stxdw [r10 - 3568], r1
    3325:	79 a1 e0 f4 00 00 00 00	ldxdw r1, [r10 - 2848]
    3326:	7b 1a 18 f2 00 00 00 00	stxdw [r10 - 3560], r1
    3327:	79 a1 c8 f4 00 00 00 00	ldxdw r1, [r10 - 2872]
    3328:	7b 1a c0 f0 00 00 00 00	stxdw [r10 - 3904], r1
    3329:	79 a1 c0 f4 00 00 00 00	ldxdw r1, [r10 - 2880]
    3330:	7b 1a e0 ef 00 00 00 00	stxdw [r10 - 4128], r1
    3331:	79 a1 b8 f4 00 00 00 00	ldxdw r1, [r10 - 2888]
    3332:	7b 1a d8 ef 00 00 00 00	stxdw [r10 - 4136], r1
    3333:	18 01 00 00 1b 54 02 00 00 00 00 00 00 00 00 00	lddw r1, 152603
    3335:	b7 02 00 00 0c 00 00 00	mov64 r2, 12
    3336:	85 10 00 00 ff ff ff ff	call -1
    3337:	79 a1 78 f8 00 00 00 00	ldxdw r1, [r10 - 1928]
    3338:	79 a2 70 f8 00 00 00 00	ldxdw r2, [r10 - 1936]
    3339:	79 23 00 00 00 00 00 00	ldxdw r3, [r2 + 0]
    3340:	07 03 00 00 ff ff ff ff	add64 r3, -1
    3341:	7b 32 00 00 00 00 00 00	stxdw [r2 + 0], r3
    3342:	55 03 03 00 00 00 00 00	jne r3, 0, +3 <.text+0x6770>
    3343:	79 23 08 00 00 00 00 00	ldxdw r3, [r2 + 8]
    3344:	07 03 00 00 ff ff ff ff	add64 r3, -1
    3345:	7b 32 08 00 00 00 00 00	stxdw [r2 + 8], r3
    3346:	79 12 00 00 00 00 00 00	ldxdw r2, [r1 + 0]
    3347:	07 02 00 00 ff ff ff ff	add64 r2, -1
    3348:	7b 21 00 00 00 00 00 00	stxdw [r1 + 0], r2
    3349:	55 02 03 00 00 00 00 00	jne r2, 0, +3 <.text+0x67a8>
    3350:	79 12 08 00 00 00 00 00	ldxdw r2, [r1 + 8]
    3351:	07 02 00 00 ff ff ff ff	add64 r2, -1
    3352:	7b 21 08 00 00 00 00 00	stxdw [r1 + 8], r2
    3353:	bf a1 00 00 00 00 00 00	mov64 r1, r10
    3354:	07 01 00 00 f0 f1 ff ff	add64 r1, -3600
    3355:	b7 02 00 00 19 00 00 00	mov64 r2, 25
    3356:	b7 03 00 00 19 00 00 00	mov64 r3, 25
    3357:	85 10 00 00 e3 22 00 00	call 8931
    3358:	bf a1 00 00 00 00 00 00	mov64 r1, r10
    3359:	07 01 00 00 88 fb ff ff	add64 r1, -1144
    3360:	85 10 00 00 a7 24 00 00	call 9383
    3361:	61 a1 88 fb 00 00 00 00	ldxw r1, [r10 - 1144]
    3362:	15 01 01 00 16 00 00 00	jeq r1, 22, +1 <.text+0x6800>
    3363:	05 00 3a 00 00 00 00 00	ja +58 <.text+0x69d0>
    3364:	79 a1 90 fb 00 00 00 00	ldxdw r1, [r10 - 1136]
    3365:	7b 1a 98 f4 00 00 00 00	stxdw [r10 - 2920], r1
    3366:	79 a1 98 fb 00 00 00 00	ldxdw r1, [r10 - 1128]
    3367:	7b 1a a0 f4 00 00 00 00	stxdw [r10 - 2912], r1
    3368:	79 a1 a0 fb 00 00 00 00	ldxdw r1, [r10 - 1120]
    3369:	7b 1a a8 f4 00 00 00 00	stxdw [r10 - 2904], r1
    3370:	79 a1 50 f0 00 00 00 00	ldxdw r1, [r10 - 4016]
    3371:	79 12 00 00 00 00 00 00	ldxdw r2, [r1 + 0]
    3372:	07 02 00 00 01 00 00 00	add64 r2, 1
    3373:	7b 21 00 00 00 00 00 00	stxdw [r1 + 0], r2
    3374:	b7 01 00 00 01 00 00 00	mov64 r1, 1
    3375:	15 02 01 00 00 00 00 00	jeq r2, 0, +1 <.text+0x6868>
    3376:	b7 01 00 00 00 00 00 00	mov64 r1, 0
    3377:	55 01 47 00 01 00 00 00	jne r1, 1, +71 <.text+0x6aa8>
    3378:	05 00 26 ff 00 00 00 00	ja -218 <.text+0x61a8>
    3379:	bf a6 00 00 00 00 00 00	mov64 r6, r10
    3380:	07 06 00 00 f8 f3 ff ff	add64 r6, -3080
    3381:	bf a2 00 00 00 00 00 00	mov64 r2, r10
    3382:	07 02 00 00 b0 f4 ff ff	add64 r2, -2896
    3383:	bf 61 00 00 00 00 00 00	mov64 r1, r6
    3384:	b7 03 00 00 a0 00 00 00	mov64 r3, 160
    3385:	85 10 00 00 60 3a 00 00	call 14944
    3386:	bf a7 00 00 00 00 00 00	mov64 r7, r10
    3387:	07 07 00 00 88 fb ff ff	add64 r7, -1144
    3388:	bf 71 00 00 00 00 00 00	mov64 r1, r7
    3389:	bf 62 00 00 00 00 00 00	mov64 r2, r6
    3390:	18 03 00 00 f8 54 02 00 00 00 00 00 00 00 00 00	lddw r3, 152824
    3392:	b7 04 00 00 07 00 00 00	mov64 r4, 7
    3393:	85 10 00 00 e2 f2 ff ff	call -3358
    3394:	79 a6 e0 f0 00 00 00 00	ldxdw r6, [r10 - 3872]
    3395:	bf 61 00 00 00 00 00 00	mov64 r1, r6
    3396:	bf 72 00 00 00 00 00 00	mov64 r2, r7
    3397:	b7 03 00 00 a0 00 00 00	mov64 r3, 160
    3398:	85 10 00 00 53 3a 00 00	call 14931
    3399:	b7 01 00 00 02 00 00 00	mov64 r1, 2
    3400:	63 16 d8 03 00 00 00 00	stxw [r6 + 984], r1
    3401:	79 a1 78 f8 00 00 00 00	ldxdw r1, [r10 - 1928]
    3402:	79 a2 70 f8 00 00 00 00	ldxdw r2, [r10 - 1936]
    3403:	79 23 00 00 00 00 00 00	ldxdw r3, [r2 + 0]
    3404:	07 03 00 00 ff ff ff ff	add64 r3, -1
    3405:	7b 32 00 00 00 00 00 00	stxdw [r2 + 0], r3
    3406:	79 a4 48 f0 00 00 00 00	ldxdw r4, [r10 - 4024]
    3407:	79 a5 50 f0 00 00 00 00	ldxdw r5, [r10 - 4016]
    3408:	79 a0 d0 f0 00 00 00 00	ldxdw r0, [r10 - 3888]
    3409:	55 03 03 00 00 00 00 00	jne r3, 0, +3 <.text+0x6988>
    3410:	79 23 08 00 00 00 00 00	ldxdw r3, [r2 + 8]
    3411:	07 03 00 00 ff ff ff ff	add64 r3, -1
    3412:	7b 32 08 00 00 00 00 00	stxdw [r2 + 8], r3
    3413:	79 12 00 00 00 00 00 00	ldxdw r2, [r1 + 0]
    3414:	07 02 00 00 ff ff ff ff	add64 r2, -1
    3415:	7b 21 00 00 00 00 00 00	stxdw [r1 + 0], r2
    3416:	79 a3 a0 f0 00 00 00 00	ldxdw r3, [r10 - 3936]
    3417:	55 02 fb 00 00 00 00 00	jne r2, 0, +251 <.text+0x7188>
    3418:	79 12 08 00 00 00 00 00	ldxdw r2, [r1 + 8]
    3419:	07 02 00 00 ff ff ff ff	add64 r2, -1
    3420:	7b 21 08 00 00 00 00 00	stxdw [r1 + 8], r2
    3421:	05 00 f7 00 00 00 00 00	ja +247 <.text+0x7188>
    3422:	61 a2 a4 fb 00 00 00 00	ldxw r2, [r10 - 1116]
    3423:	63 2a 80 f8 00 00 00 00	stxw [r10 - 1920], r2
    3424:	79 a3 9c fb 00 00 00 00	ldxdw r3, [r10 - 1124]
    3425:	7b 3a 78 f8 00 00 00 00	stxdw [r10 - 1928], r3
    3426:	79 a4 94 fb 00 00 00 00	ldxdw r4, [r10 - 1132]
    3427:	7b 4a 70 f8 00 00 00 00	stxdw [r10 - 1936], r4
    3428:	79 a5 8c fb 00 00 00 00	ldxdw r5, [r10 - 1140]
    3429:	7b 5a 68 f8 00 00 00 00	stxdw [r10 - 1944], r5
    3430:	63 2a cc f4 00 00 00 00	stxw [r10 - 2868], r2
    3431:	7b 3a c4 f4 00 00 00 00	stxdw [r10 - 2876], r3
    3432:	7b 4a bc f4 00 00 00 00	stxdw [r10 - 2884], r4
    3433:	7b 5a b4 f4 00 00 00 00	stxdw [r10 - 2892], r5
    3434:	63 1a b0 f4 00 00 00 00	stxw [r10 - 2896], r1
    3435:	bf a6 00 00 00 00 00 00	mov64 r6, r10
    3436:	07 06 00 00 88 fb ff ff	add64 r6, -1144
    3437:	bf a2 00 00 00 00 00 00	mov64 r2, r10
    3438:	07 02 00 00 b0 f4 ff ff	add64 r2, -2896
    3439:	bf 61 00 00 00 00 00 00	mov64 r1, r6
    3440:	85 10 00 00 e5 10 00 00	call 4325
    3441:	79 a7 e0 f0 00 00 00 00	ldxdw r7, [r10 - 3872]
    3442:	bf 71 00 00 00 00 00 00	mov64 r1, r7
    3443:	bf 62 00 00 00 00 00 00	mov64 r2, r6
    3444:	b7 03 00 00 a0 00 00 00	mov64 r3, 160
    3445:	85 10 00 00 24 3a 00 00	call 14884
    3446:	b7 01 00 00 02 00 00 00	mov64 r1, 2
    3447:	63 17 d8 03 00 00 00 00	stxw [r7 + 984], r1
    3448:	05 00 c8 00 00 00 00 00	ja +200 <.text+0x70e8>
    3449:	79 a1 48 f0 00 00 00 00	ldxdw r1, [r10 - 4024]
    3450:	79 12 00 00 00 00 00 00	ldxdw r2, [r1 + 0]
    3451:	07 02 00 00 01 00 00 00	add64 r2, 1
    3452:	7b 21 00 00 00 00 00 00	stxdw [r1 + 0], r2
    3453:	b7 01 00 00 01 00 00 00	mov64 r1, 1
    3454:	15 02 01 00 00 00 00 00	jeq r2, 0, +1 <.text+0x6ae0>
    3455:	b7 01 00 00 00 00 00 00	mov64 r1, 0
    3456:	55 01 01 00 01 00 00 00	jne r1, 1, +1 <.text+0x6af0>
    3457:	05 00 d7 fe 00 00 00 00	ja -297 <.text+0x61a8>
    3458:	bf a1 00 00 00 00 00 00	mov64 r1, r10
    3459:	07 01 00 00 28 f1 ff ff	add64 r1, -3800
    3460:	85 10 00 00 cf 10 00 00	call 4303
    3461:	bf a1 00 00 00 00 00 00	mov64 r1, r10
    3462:	07 01 00 00 d0 ff ff ff	add64 r1, -48
    3463:	bf 02 00 00 00 00 00 00	mov64 r2, r0
    3464:	85 10 00 00 3e fa ff ff	call -1474
    3465:	79 a1 c8 f0 00 00 00 00	ldxdw r1, [r10 - 3896]
    3466:	85 10 00 00 c0 1a 00 00	call 6848
    3467:	bf a1 00 00 00 00 00 00	mov64 r1, r10
    3468:	07 01 00 00 90 fe ff ff	add64 r1, -368
    3469:	bf 02 00 00 00 00 00 00	mov64 r2, r0
    3470:	85 10 00 00 38 fa ff ff	call -1480
    3471:	bf a1 00 00 00 00 00 00	mov64 r1, r10
    3472:	07 01 00 00 f8 f0 ff ff	add64 r1, -3848
    3473:	85 10 00 00 c2 10 00 00	call 4290
    3474:	bf a1 00 00 00 00 00 00	mov64 r1, r10
    3475:	07 01 00 00 68 f8 ff ff	add64 r1, -1944
    3476:	bf 02 00 00 00 00 00 00	mov64 r2, r0
    3477:	85 10 00 00 31 fa ff ff	call -1487
    3478:	79 a2 d0 f0 00 00 00 00	ldxdw r2, [r10 - 3888]
    3479:	07 02 00 00 58 00 00 00	add64 r2, 88
    3480:	bf a1 00 00 00 00 00 00	mov64 r1, r10
    3481:	07 01 00 00 88 fb ff ff	add64 r1, -1144
    3482:	85 10 00 00 2c fa ff ff	call -1492
    3483:	79 62 00 00 00 00 00 00	ldxdw r2, [r6 + 0]
    3484:	07 02 00 00 01 00 00 00	add64 r2, 1
    3485:	7b 26 00 00 00 00 00 00	stxdw [r6 + 0], r2
    3486:	b7 01 00 00 01 00 00 00	mov64 r1, 1
    3487:	15 02 01 00 00 00 00 00	jeq r2, 0, +1 <.text+0x6be8>
    3488:	b7 01 00 00 00 00 00 00	mov64 r1, 0
    3489:	55 01 01 00 01 00 00 00	jne r1, 1, +1 <.text+0x6bf8>
    3490:	05 00 b6 fe 00 00 00 00	ja -330 <.text+0x61a8>
    3491:	79 82 00 00 00 00 00 00	ldxdw r2, [r8 + 0]
    3492:	07 02 00 00 01 00 00 00	add64 r2, 1
    3493:	7b 28 00 00 00 00 00 00	stxdw [r8 + 0], r2
    3494:	b7 01 00 00 01 00 00 00	mov64 r1, 1
    3495:	15 02 01 00 00 00 00 00	jeq r2, 0, +1 <.text+0x6c28>
    3496:	b7 01 00 00 00 00 00 00	mov64 r1, 0
    3497:	55 01 01 00 01 00 00 00	jne r1, 1, +1 <.text+0x6c38>
    3498:	05 00 ae fe 00 00 00 00	ja -338 <.text+0x61a8>
    3499:	79 a1 90 f0 00 00 00 00	ldxdw r1, [r10 - 3952]
    3500:	79 12 00 00 00 00 00 00	ldxdw r2, [r1 + 0]
    3501:	07 02 00 00 01 00 00 00	add64 r2, 1
    3502:	7b 21 00 00 00 00 00 00	stxdw [r1 + 0], r2
    3503:	b7 01 00 00 01 00 00 00	mov64 r1, 1
    3504:	15 02 01 00 00 00 00 00	jeq r2, 0, +1 <.text+0x6c70>
    3505:	b7 01 00 00 00 00 00 00	mov64 r1, 0
    3506:	55 01 01 00 01 00 00 00	jne r1, 1, +1 <.text+0x6c80>
    3507:	05 00 a5 fe 00 00 00 00	ja -347 <.text+0x61a8>
    3508:	79 72 00 00 00 00 00 00	ldxdw r2, [r7 + 0]
    3509:	07 02 00 00 01 00 00 00	add64 r2, 1
    3510:	7b 27 00 00 00 00 00 00	stxdw [r7 + 0], r2
    3511:	b7 01 00 00 01 00 00 00	mov64 r1, 1
    3512:	15 02 01 00 00 00 00 00	jeq r2, 0, +1 <.text+0x6cb0>
    3513:	b7 01 00 00 00 00 00 00	mov64 r1, 0
    3514:	55 01 01 00 01 00 00 00	jne r1, 1, +1 <.text+0x6cc0>
    3515:	05 00 9d fe 00 00 00 00	ja -355 <.text+0x61a8>
    3516:	bf a6 00 00 00 00 00 00	mov64 r6, r10
    3517:	07 06 00 00 78 f5 ff ff	add64 r6, -2696
    3518:	bf a2 00 00 00 00 00 00	mov64 r2, r10
    3519:	07 02 00 00 d0 ff ff ff	add64 r2, -48
    3520:	bf 61 00 00 00 00 00 00	mov64 r1, r6
    3521:	b7 03 00 00 30 00 00 00	mov64 r3, 48
    3522:	85 10 00 00 d7 39 00 00	call 14807
    3523:	bf a1 00 00 00 00 00 00	mov64 r1, r10
    3524:	07 01 00 00 a8 f5 ff ff	add64 r1, -2648
    3525:	bf a2 00 00 00 00 00 00	mov64 r2, r10
    3526:	07 02 00 00 90 fe ff ff	add64 r2, -368
    3527:	b7 03 00 00 30 00 00 00	mov64 r3, 48
    3528:	85 10 00 00 d1 39 00 00	call 14801
    3529:	bf a1 00 00 00 00 00 00	mov64 r1, r10
    3530:	07 01 00 00 d8 f5 ff ff	add64 r1, -2600
    3531:	bf a2 00 00 00 00 00 00	mov64 r2, r10
    3532:	07 02 00 00 68 f8 ff ff	add64 r2, -1944
    3533:	b7 03 00 00 30 00 00 00	mov64 r3, 48
    3534:	85 10 00 00 cb 39 00 00	call 14795
    3535:	bf a1 00 00 00 00 00 00	mov64 r1, r10
    3536:	07 01 00 00 08 f6 ff ff	add64 r1, -2552
    3537:	bf a2 00 00 00 00 00 00	mov64 r2, r10
    3538:	07 02 00 00 88 fb ff ff	add64 r2, -1144
    3539:	b7 03 00 00 30 00 00 00	mov64 r3, 48
    3540:	85 10 00 00 c5 39 00 00	call 14789
    3541:	bf a1 00 00 00 00 00 00	mov64 r1, r10
    3542:	07 01 00 00 60 f6 ff ff	add64 r1, -2464
    3543:	bf 62 00 00 00 00 00 00	mov64 r2, r6
    3544:	b7 03 00 00 c0 00 00 00	mov64 r3, 192
    3545:	85 10 00 00 c0 39 00 00	call 14784
    3546:	79 a1 18 f0 00 00 00 00	ldxdw r1, [r10 - 4072]
    3547:	73 1a 7a f7 00 00 00 00	stxb [r10 - 2182], r1
    3548:	79 a1 20 f0 00 00 00 00	ldxdw r1, [r10 - 4064]
    3549:	73 1a 79 f7 00 00 00 00	stxb [r10 - 2183], r1
    3550:	79 a1 28 f0 00 00 00 00	ldxdw r1, [r10 - 4056]
    3551:	73 1a 78 f7 00 00 00 00	stxb [r10 - 2184], r1
    3552:	79 a1 30 f0 00 00 00 00	ldxdw r1, [r10 - 4048]
    3553:	7b 1a 70 f7 00 00 00 00	stxdw [r10 - 2192], r1
    3554:	79 a1 38 f0 00 00 00 00	ldxdw r1, [r10 - 4040]
    3555:	7b 1a 68 f7 00 00 00 00	stxdw [r10 - 2200], r1
    3556:	7b 7a 60 f7 00 00 00 00	stxdw [r10 - 2208], r7
    3557:	79 a1 90 f0 00 00 00 00	ldxdw r1, [r10 - 3952]
    3558:	7b 1a 58 f7 00 00 00 00	stxdw [r10 - 2216], r1
    3559:	79 a1 40 f0 00 00 00 00	ldxdw r1, [r10 - 4032]
    3560:	7b 1a 50 f7 00 00 00 00	stxdw [r10 - 2224], r1
    3561:	79 a1 60 f0 00 00 00 00	ldxdw r1, [r10 - 4000]
    3562:	73 1a 4a f7 00 00 00 00	stxb [r10 - 2230], r1
    3563:	79 a1 68 f0 00 00 00 00	ldxdw r1, [r10 - 3992]
    3564:	73 1a 49 f7 00 00 00 00	stxb [r10 - 2231], r1
    3565:	79 a1 70 f0 00 00 00 00	ldxdw r1, [r10 - 3984]
    3566:	73 1a 48 f7 00 00 00 00	stxb [r10 - 2232], r1
    3567:	79 a1 78 f0 00 00 00 00	ldxdw r1, [r10 - 3976]
    3568:	7b 1a 40 f7 00 00 00 00	stxdw [r10 - 2240], r1
    3569:	79 a1 80 f0 00 00 00 00	ldxdw r1, [r10 - 3968]
    3570:	7b 1a 38 f7 00 00 00 00	stxdw [r10 - 2248], r1
    3571:	7b 8a 30 f7 00 00 00 00	stxdw [r10 - 2256], r8
    3572:	79 a1 a0 f0 00 00 00 00	ldxdw r1, [r10 - 3936]
    3573:	7b 1a 28 f7 00 00 00 00	stxdw [r10 - 2264], r1
    3574:	79 a1 88 f0 00 00 00 00	ldxdw r1, [r10 - 3960]
    3575:	7b 1a 20 f7 00 00 00 00	stxdw [r10 - 2272], r1
    3576:	b7 01 00 00 08 00 00 00	mov64 r1, 8
    3577:	7b 1a 48 f6 00 00 00 00	stxdw [r10 - 2488], r1
    3578:	b7 01 00 00 00 00 00 00	mov64 r1, 0
    3579:	7b 1a 50 f6 00 00 00 00	stxdw [r10 - 2480], r1
    3580:	7b 1a 58 f6 00 00 00 00	stxdw [r10 - 2472], r1
    3581:	79 a2 f0 ef 00 00 00 00	ldxdw r2, [r10 - 4112]
    3582:	73 2a aa f7 00 00 00 00	stxb [r10 - 2134], r2
    3583:	79 a2 f8 ef 00 00 00 00	ldxdw r2, [r10 - 4104]
    3584:	73 2a a9 f7 00 00 00 00	stxb [r10 - 2135], r2
    3585:	79 a2 00 f0 00 00 00 00	ldxdw r2, [r10 - 4096]
    3586:	73 2a a8 f7 00 00 00 00	stxb [r10 - 2136], r2
    3587:	79 a2 08 f0 00 00 00 00	ldxdw r2, [r10 - 4088]
    3588:	7b 2a a0 f7 00 00 00 00	stxdw [r10 - 2144], r2
    3589:	79 a2 10 f0 00 00 00 00	ldxdw r2, [r10 - 4080]
    3590:	7b 2a 98 f7 00 00 00 00	stxdw [r10 - 2152], r2
    3591:	79 a2 48 f0 00 00 00 00	ldxdw r2, [r10 - 4024]
    3592:	7b 2a 90 f7 00 00 00 00	stxdw [r10 - 2160], r2
    3593:	79 a2 50 f0 00 00 00 00	ldxdw r2, [r10 - 4016]
    3594:	7b 2a 88 f7 00 00 00 00	stxdw [r10 - 2168], r2
    3595:	79 a2 e8 ef 00 00 00 00	ldxdw r2, [r10 - 4120]
    3596:	7b 2a 80 f7 00 00 00 00	stxdw [r10 - 2176], r2
    3597:	18 02 00 00 78 52 02 00 00 00 00 00 00 00 00 00	lddw r2, 152184
    3599:	7b 2a 38 f6 00 00 00 00	stxdw [r10 - 2504], r2
    3600:	7b 1a 40 f6 00 00 00 00	stxdw [r10 - 2496], r1
    3601:	bf a1 00 00 00 00 00 00	mov64 r1, r10
    3602:	07 01 00 00 88 fb ff ff	add64 r1, -1144
    3603:	bf a2 00 00 00 00 00 00	mov64 r2, r10
    3604:	07 02 00 00 38 f6 ff ff	add64 r2, -2504
    3605:	85 10 00 00 5b 09 00 00	call 2395
    3606:	79 a6 88 fb 00 00 00 00	ldxdw r6, [r10 - 1144]
    3607:	15 06 01 00 04 00 00 00	jeq r6, 4, +1 <.text+0x6fa8>
    3608:	05 00 1e 00 00 00 00 00	ja +30 <.text+0x7098>
    3609:	bf a1 00 00 00 00 00 00	mov64 r1, r10
    3610:	07 01 00 00 88 fb ff ff	add64 r1, -1144
    3611:	79 a2 c8 f0 00 00 00 00	ldxdw r2, [r10 - 3896]
    3612:	85 10 00 00 ba f2 ff ff	call -3398
    3613:	61 a1 40 fc 00 00 00 00	ldxw r1, [r10 - 960]
    3614:	15 01 01 00 02 00 00 00	jeq r1, 2, +1 <.text+0x6fe0>
    3615:	05 00 a4 00 00 00 00 00	ja +164 <.text+0x7500>
    3616:	bf a6 00 00 00 00 00 00	mov64 r6, r10
    3617:	07 06 00 00 b0 f7 ff ff	add64 r6, -2128
    3618:	bf a2 00 00 00 00 00 00	mov64 r2, r10
    3619:	07 02 00 00 88 fb ff ff	add64 r2, -1144
    3620:	bf 61 00 00 00 00 00 00	mov64 r1, r6
    3621:	b7 03 00 00 a0 00 00 00	mov64 r3, 160
    3622:	85 10 00 00 73 39 00 00	call 14707
    3623:	bf a7 00 00 00 00 00 00	mov64 r7, r10
    3624:	07 07 00 00 68 f8 ff ff	add64 r7, -1944
    3625:	bf 71 00 00 00 00 00 00	mov64 r1, r7
    3626:	bf 62 00 00 00 00 00 00	mov64 r2, r6
    3627:	18 03 00 00 e7 54 02 00 00 00 00 00 00 00 00 00	lddw r3, 152807
    3629:	b7 04 00 00 11 00 00 00	mov64 r4, 17
    3630:	85 10 00 00 f5 f1 ff ff	call -3595
    3631:	79 a6 e0 f0 00 00 00 00	ldxdw r6, [r10 - 3872]
    3632:	bf 61 00 00 00 00 00 00	mov64 r1, r6
    3633:	bf 72 00 00 00 00 00 00	mov64 r2, r7
    3634:	b7 03 00 00 a0 00 00 00	mov64 r3, 160
    3635:	85 10 00 00 66 39 00 00	call 14694
    3636:	b7 01 00 00 02 00 00 00	mov64 r1, 2
    3637:	63 16 d8 03 00 00 00 00	stxw [r6 + 984], r1
    3638:	05 00 0a 00 00 00 00 00	ja +10 <.text+0x70e8>
    3639:	79 a7 e0 f0 00 00 00 00	ldxdw r7, [r10 - 3872]
    3640:	bf 71 00 00 00 00 00 00	mov64 r1, r7
    3641:	07 01 00 00 08 00 00 00	add64 r1, 8
    3642:	bf a2 00 00 00 00 00 00	mov64 r2, r10
    3643:	07 02 00 00 90 fb ff ff	add64 r2, -1136
    3644:	b7 03 00 00 98 00 00 00	mov64 r3, 152
    3645:	85 10 00 00 5c 39 00 00	call 14684
    3646:	b7 01 00 00 02 00 00 00	mov64 r1, 2
    3647:	63 17 d8 03 00 00 00 00	stxw [r7 + 984], r1
    3648:	7b 67 00 00 00 00 00 00	stxdw [r7 + 0], r6
    3649:	79 a4 48 f0 00 00 00 00	ldxdw r4, [r10 - 4024]
    3650:	79 a0 d0 f0 00 00 00 00	ldxdw r0, [r10 - 3888]
    3651:	79 a2 c0 f0 00 00 00 00	ldxdw r2, [r10 - 3904]
    3652:	79 a3 e0 ef 00 00 00 00	ldxdw r3, [r10 - 4128]
    3653:	79 31 00 00 00 00 00 00	ldxdw r1, [r3 + 0]
    3654:	07 01 00 00 ff ff ff ff	add64 r1, -1
    3655:	7b 13 00 00 00 00 00 00	stxdw [r3 + 0], r1
    3656:	55 01 03 00 00 00 00 00	jne r1, 0, +3 <.text+0x7140>
    3657:	79 31 08 00 00 00 00 00	ldxdw r1, [r3 + 8]
    3658:	07 01 00 00 ff ff ff ff	add64 r1, -1
    3659:	7b 13 08 00 00 00 00 00	stxdw [r3 + 8], r1
    3660:	79 21 00 00 00 00 00 00	ldxdw r1, [r2 + 0]
    3661:	07 01 00 00 ff ff ff ff	add64 r1, -1
    3662:	7b 12 00 00 00 00 00 00	stxdw [r2 + 0], r1
    3663:	79 a3 a0 f0 00 00 00 00	ldxdw r3, [r10 - 3936]
    3664:	79 a5 50 f0 00 00 00 00	ldxdw r5, [r10 - 4016]
    3665:	55 01 03 00 00 00 00 00	jne r1, 0, +3 <.text+0x7188>
    3666:	79 21 08 00 00 00 00 00	ldxdw r1, [r2 + 8]
    3667:	07 01 00 00 ff ff ff ff	add64 r1, -1
    3668:	7b 12 08 00 00 00 00 00	stxdw [r2 + 8], r1
    3669:	bf 87 00 00 00 00 00 00	mov64 r7, r8
    3670:	79 51 00 00 00 00 00 00	ldxdw r1, [r5 + 0]
    3671:	07 01 00 00 ff ff ff ff	add64 r1, -1
    3672:	7b 15 00 00 00 00 00 00	stxdw [r5 + 0], r1
    3673:	55 01 03 00 00 00 00 00	jne r1, 0, +3 <.text+0x71c8>
    3674:	79 51 08 00 00 00 00 00	ldxdw r1, [r5 + 8]
    3675:	07 01 00 00 ff ff ff ff	add64 r1, -1
    3676:	7b 15 08 00 00 00 00 00	stxdw [r5 + 8], r1
    3677:	79 41 00 00 00 00 00 00	ldxdw r1, [r4 + 0]
    3678:	07 01 00 00 ff ff ff ff	add64 r1, -1
    3679:	7b 14 00 00 00 00 00 00	stxdw [r4 + 0], r1
    3680:	bf 72 00 00 00 00 00 00	mov64 r2, r7
    3681:	55 01 03 00 00 00 00 00	jne r1, 0, +3 <.text+0x7208>
    3682:	79 41 08 00 00 00 00 00	ldxdw r1, [r4 + 8]
    3683:	07 01 00 00 ff ff ff ff	add64 r1, -1
    3684:	7b 14 08 00 00 00 00 00	stxdw [r4 + 8], r1
    3685:	79 a5 90 f0 00 00 00 00	ldxdw r5, [r10 - 3952]
    3686:	79 51 00 00 00 00 00 00	ldxdw r1, [r5 + 0]
    3687:	07 01 00 00 ff ff ff ff	add64 r1, -1
    3688:	7b 15 00 00 00 00 00 00	stxdw [r5 + 0], r1
    3689:	79 a4 98 f0 00 00 00 00	ldxdw r4, [r10 - 3944]
    3690:	55 01 03 00 00 00 00 00	jne r1, 0, +3 <.text+0x7250>
    3691:	79 51 08 00 00 00 00 00	ldxdw r1, [r5 + 8]
    3692:	07 01 00 00 ff ff ff ff	add64 r1, -1
    3693:	7b 15 08 00 00 00 00 00	stxdw [r5 + 8], r1
    3694:	79 41 00 00 00 00 00 00	ldxdw r1, [r4 + 0]
    3695:	07 01 00 00 ff ff ff ff	add64 r1, -1
    3696:	7b 14 00 00 00 00 00 00	stxdw [r4 + 0], r1
    3697:	55 01 03 00 00 00 00 00	jne r1, 0, +3 <.text+0x7288>
    3698:	79 41 08 00 00 00 00 00	ldxdw r1, [r4 + 8]
    3699:	07 01 00 00 ff ff ff ff	add64 r1, -1
    3700:	7b 14 08 00 00 00 00 00	stxdw [r4 + 8], r1
    3701:	79 31 00 00 00 00 00 00	ldxdw r1, [r3 + 0]
    3702:	07 01 00 00 ff ff ff ff	add64 r1, -1
    3703:	7b 13 00 00 00 00 00 00	stxdw [r3 + 0], r1
    3704:	55 01 03 00 00 00 00 00	jne r1, 0, +3 <.text+0x72c0>
    3705:	79 31 08 00 00 00 00 00	ldxdw r1, [r3 + 8]
    3706:	07 01 00 00 ff ff ff ff	add64 r1, -1
    3707:	7b 13 08 00 00 00 00 00	stxdw [r3 + 8], r1
    3708:	79 21 00 00 00 00 00 00	ldxdw r1, [r2 + 0]
    3709:	07 01 00 00 ff ff ff ff	add64 r1, -1
    3710:	7b 12 00 00 00 00 00 00	stxdw [r2 + 0], r1
    3711:	55 01 03 00 00 00 00 00	jne r1, 0, +3 <.text+0x72f8>
    3712:	79 21 08 00 00 00 00 00	ldxdw r1, [r2 + 8]
    3713:	07 01 00 00 ff ff ff ff	add64 r1, -1
    3714:	7b 12 08 00 00 00 00 00	stxdw [r2 + 8], r1
    3715:	79 91 68 00 00 00 00 00	ldxdw r1, [r9 + 104]
    3716:	79 92 60 00 00 00 00 00	ldxdw r2, [r9 + 96]
    3717:	79 23 00 00 00 00 00 00	ldxdw r3, [r2 + 0]
    3718:	07 03 00 00 ff ff ff ff	add64 r3, -1
    3719:	7b 32 00 00 00 00 00 00	stxdw [r2 + 0], r3
    3720:	55 03 03 00 00 00 00 00	jne r3, 0, +3 <.text+0x7340>
    3721:	79 23 08 00 00 00 00 00	ldxdw r3, [r2 + 8]
    3722:	07 03 00 00 ff ff ff ff	add64 r3, -1
    3723:	7b 32 08 00 00 00 00 00	stxdw [r2 + 8], r3
    3724:	79 12 00 00 00 00 00 00	ldxdw r2, [r1 + 0]
    3725:	07 02 00 00 ff ff ff ff	add64 r2, -1
    3726:	7b 21 00 00 00 00 00 00	stxdw [r1 + 0], r2
    3727:	55 02 03 00 00 00 00 00	jne r2, 0, +3 <.text+0x7378>
    3728:	79 12 08 00 00 00 00 00	ldxdw r2, [r1 + 8]
    3729:	07 02 00 00 ff ff ff ff	add64 r2, -1
    3730:	7b 21 08 00 00 00 00 00	stxdw [r1 + 8], r2
    3731:	79 01 68 00 00 00 00 00	ldxdw r1, [r0 + 104]
    3732:	79 02 60 00 00 00 00 00	ldxdw r2, [r0 + 96]
    3733:	79 23 00 00 00 00 00 00	ldxdw r3, [r2 + 0]
    3734:	07 03 00 00 ff ff ff ff	add64 r3, -1
    3735:	7b 32 00 00 00 00 00 00	stxdw [r2 + 0], r3
    3736:	55 03 03 00 00 00 00 00	jne r3, 0, +3 <.text+0x73c0>
    3737:	79 23 08 00 00 00 00 00	ldxdw r3, [r2 + 8]
    3738:	07 03 00 00 ff ff ff ff	add64 r3, -1
    3739:	7b 32 08 00 00 00 00 00	stxdw [r2 + 8], r3
    3740:	79 12 00 00 00 00 00 00	ldxdw r2, [r1 + 0]
    3741:	07 02 00 00 ff ff ff ff	add64 r2, -1
    3742:	7b 21 00 00 00 00 00 00	stxdw [r1 + 0], r2
    3743:	55 02 03 00 00 00 00 00	jne r2, 0, +3 <.text+0x73f8>
    3744:	79 12 08 00 00 00 00 00	ldxdw r2, [r1 + 8]
    3745:	07 02 00 00 ff ff ff ff	add64 r2, -1
    3746:	7b 21 08 00 00 00 00 00	stxdw [r1 + 8], r2
    3747:	79 a1 38 f1 00 00 00 00	ldxdw r1, [r10 - 3784]
    3748:	79 a2 30 f1 00 00 00 00	ldxdw r2, [r10 - 3792]
    3749:	79 23 00 00 00 00 00 00	ldxdw r3, [r2 + 0]
    3750:	07 03 00 00 ff ff ff ff	add64 r3, -1
    3751:	7b 32 00 00 00 00 00 00	stxdw [r2 + 0], r3
    3752:	55 03 03 00 00 00 00 00	jne r3, 0, +3 <.text+0x7440>
    3753:	79 23 08 00 00 00 00 00	ldxdw r3, [r2 + 8]
    3754:	07 03 00 00 ff ff ff ff	add64 r3, -1
    3755:	7b 32 08 00 00 00 00 00	stxdw [r2 + 8], r3
    3756:	79 12 00 00 00 00 00 00	ldxdw r2, [r1 + 0]
    3757:	07 02 00 00 ff ff ff ff	add64 r2, -1
    3758:	7b 21 00 00 00 00 00 00	stxdw [r1 + 0], r2
    3759:	55 02 03 00 00 00 00 00	jne r2, 0, +3 <.text+0x7478>
    3760:	79 12 08 00 00 00 00 00	ldxdw r2, [r1 + 8]
    3761:	07 02 00 00 ff ff ff ff	add64 r2, -1
    3762:	7b 21 08 00 00 00 00 00	stxdw [r1 + 8], r2
    3763:	79 a1 08 f1 00 00 00 00	ldxdw r1, [r10 - 3832]
    3764:	79 a2 00 f1 00 00 00 00	ldxdw r2, [r10 - 3840]
    3765:	79 23 00 00 00 00 00 00	ldxdw r3, [r2 + 0]
    3766:	07 03 00 00 ff ff ff ff	add64 r3, -1
    3767:	7b 32 00 00 00 00 00 00	stxdw [r2 + 0], r3
    3768:	55 03 03 00 00 00 00 00	jne r3, 0, +3 <.text+0x74c0>
    3769:	79 23 08 00 00 00 00 00	ldxdw r3, [r2 + 8]
    3770:	07 03 00 00 ff ff ff ff	add64 r3, -1
    3771:	7b 32 08 00 00 00 00 00	stxdw [r2 + 8], r3
    3772:	79 12 00 00 00 00 00 00	ldxdw r2, [r1 + 0]
    3773:	07 02 00 00 ff ff ff ff	add64 r2, -1
    3774:	7b 21 00 00 00 00 00 00	stxdw [r1 + 0], r2
    3775:	55 02 03 00 00 00 00 00	jne r2, 0, +3 <.text+0x74f8>
    3776:	79 12 08 00 00 00 00 00	ldxdw r2, [r1 + 8]
    3777:	07 02 00 00 ff ff ff ff	add64 r2, -1
    3778:	7b 21 08 00 00 00 00 00	stxdw [r1 + 8], r2
    3779:	95 00 00 00 00 00 00 00	exit
    3780:	79 a1 98 fb 00 00 00 00	ldxdw r1, [r10 - 1128]
    3781:	7b 1a d0 ef 00 00 00 00	stxdw [r10 - 4144], r1
    3782:	79 a1 90 fb 00 00 00 00	ldxdw r1, [r10 - 1136]
    3783:	7b 1a c8 ef 00 00 00 00	stxdw [r10 - 4152], r1
    3784:	79 a1 88 fb 00 00 00 00	ldxdw r1, [r10 - 1144]
    3785:	7b 1a c0 ef 00 00 00 00	stxdw [r10 - 4160], r1
    3786:	bf a1 00 00 00 00 00 00	mov64 r1, r10
    3787:	07 01 00 00 b0 f4 ff ff	add64 r1, -2896
    3788:	bf a2 00 00 00 00 00 00	mov64 r2, r10
    3789:	07 02 00 00 a0 fb ff ff	add64 r2, -1120
    3790:	b7 03 00 00 c8 00 00 00	mov64 r3, 200
    3791:	85 10 00 00 ca 38 00 00	call 14538
    3792:	79 a7 58 f0 00 00 00 00	ldxdw r7, [r10 - 4008]
    3793:	bf 71 00 00 00 00 00 00	mov64 r1, r7
    3794:	85 10 00 00 78 19 00 00	call 6520
    3795:	bf a6 00 00 00 00 00 00	mov64 r6, r10
    3796:	07 06 00 00 90 fe ff ff	add64 r6, -368
    3797:	bf 61 00 00 00 00 00 00	mov64 r1, r6
    3798:	bf 02 00 00 00 00 00 00	mov64 r2, r0
    3799:	85 10 00 00 ef f8 ff ff	call -1809
    3800:	bf 61 00 00 00 00 00 00	mov64 r1, r6
    3801:	85 10 00 00 3c 19 00 00	call 6460
    3802:	bf 06 00 00 00 00 00 00	mov64 r6, r0
    3803:	7b 7a 58 f0 00 00 00 00	stxdw [r10 - 4008], r7
    3804:	bf 71 00 00 00 00 00 00	mov64 r1, r7
    3805:	85 10 00 00 6d 19 00 00	call 6509
    3806:	bf a7 00 00 00 00 00 00	mov64 r7, r10
    3807:	07 07 00 00 68 f8 ff ff	add64 r7, -1944
    3808:	bf 71 00 00 00 00 00 00	mov64 r1, r7
    3809:	bf 02 00 00 00 00 00 00	mov64 r2, r0
    3810:	85 10 00 00 e4 f8 ff ff	call -1820
    3811:	bf a1 00 00 00 00 00 00	mov64 r1, r10
    3812:	07 01 00 00 88 fb ff ff	add64 r1, -1144
    3813:	bf 72 00 00 00 00 00 00	mov64 r2, r7
    3814:	85 10 00 00 46 19 00 00	call 6470
    3815:	61 a1 88 fb 00 00 00 00	ldxw r1, [r10 - 1144]
    3816:	15 01 01 00 16 00 00 00	jeq r1, 22, +1 <.text+0x7630>
    3817:	05 00 3c 00 00 00 00 00	ja +60 <.text+0x7810>
    3818:	79 a3 90 fb 00 00 00 00	ldxdw r3, [r10 - 1136]
    3819:	bf a1 00 00 00 00 00 00	mov64 r1, r10
    3820:	07 01 00 00 98 f4 ff ff	add64 r1, -2920
    3821:	bf 62 00 00 00 00 00 00	mov64 r2, r6
    3822:	85 10 00 00 12 21 00 00	call 8466
    3823:	79 a1 78 f8 00 00 00 00	ldxdw r1, [r10 - 1928]
    3824:	79 a2 70 f8 00 00 00 00	ldxdw r2, [r10 - 1936]
    3825:	79 23 00 00 00 00 00 00	ldxdw r3, [r2 + 0]
    3826:	07 03 00 00 ff ff ff ff	add64 r3, -1
    3827:	7b 32 00 00 00 00 00 00	stxdw [r2 + 0], r3
    3828:	55 03 03 00 00 00 00 00	jne r3, 0, +3 <.text+0x76a0>
    3829:	79 23 08 00 00 00 00 00	ldxdw r3, [r2 + 8]
    3830:	07 03 00 00 ff ff ff ff	add64 r3, -1
    3831:	7b 32 08 00 00 00 00 00	stxdw [r2 + 8], r3
    3832:	79 12 00 00 00 00 00 00	ldxdw r2, [r1 + 0]
    3833:	07 02 00 00 ff ff ff ff	add64 r2, -1
    3834:	7b 21 00 00 00 00 00 00	stxdw [r1 + 0], r2
    3835:	79 a6 a0 f0 00 00 00 00	ldxdw r6, [r10 - 3936]
    3836:	79 a7 98 f0 00 00 00 00	ldxdw r7, [r10 - 3944]
    3837:	55 02 03 00 00 00 00 00	jne r2, 0, +3 <.text+0x76e8>
    3838:	79 12 08 00 00 00 00 00	ldxdw r2, [r1 + 8]
    3839:	07 02 00 00 ff ff ff ff	add64 r2, -1
    3840:	7b 21 08 00 00 00 00 00	stxdw [r1 + 8], r2
    3841:	79 a1 a0 fe 00 00 00 00	ldxdw r1, [r10 - 352]
    3842:	79 a2 98 fe 00 00 00 00	ldxdw r2, [r10 - 360]
    3843:	79 23 00 00 00 00 00 00	ldxdw r3, [r2 + 0]
    3844:	07 03 00 00 ff ff ff ff	add64 r3, -1
    3845:	7b 32 00 00 00 00 00 00	stxdw [r2 + 0], r3
    3846:	55 03 03 00 00 00 00 00	jne r3, 0, +3 <.text+0x7730>
    3847:	79 23 08 00 00 00 00 00	ldxdw r3, [r2 + 8]
    3848:	07 03 00 00 ff ff ff ff	add64 r3, -1
    3849:	7b 32 08 00 00 00 00 00	stxdw [r2 + 8], r3
    3850:	79 12 00 00 00 00 00 00	ldxdw r2, [r1 + 0]
    3851:	07 02 00 00 ff ff ff ff	add64 r2, -1
    3852:	7b 21 00 00 00 00 00 00	stxdw [r1 + 0], r2
    3853:	55 02 03 00 00 00 00 00	jne r2, 0, +3 <.text+0x7768>
    3854:	79 12 08 00 00 00 00 00	ldxdw r2, [r1 + 8]
    3855:	07 02 00 00 ff ff ff ff	add64 r2, -1
    3856:	7b 21 08 00 00 00 00 00	stxdw [r1 + 8], r2
    3857:	bf a1 00 00 00 00 00 00	mov64 r1, r10
    3858:	07 01 00 00 88 fb ff ff	add64 r1, -1144
    3859:	85 10 00 00 b4 22 00 00	call 8884
    3860:	61 a1 88 fb 00 00 00 00	ldxw r1, [r10 - 1144]
    3861:	15 01 01 00 16 00 00 00	jeq r1, 22, +1 <.text+0x7798>
    3862:	05 00 52 00 00 00 00 00	ja +82 <.text+0x7a28>
    3863:	79 a1 90 fb 00 00 00 00	ldxdw r1, [r10 - 1136]
    3864:	7b 1a 50 f8 00 00 00 00	stxdw [r10 - 1968], r1
    3865:	79 a1 98 fb 00 00 00 00	ldxdw r1, [r10 - 1128]
    3866:	7b 1a 58 f8 00 00 00 00	stxdw [r10 - 1960], r1
    3867:	79 a1 a0 fb 00 00 00 00	ldxdw r1, [r10 - 1120]
    3868:	7b 1a 60 f8 00 00 00 00	stxdw [r10 - 1952], r1
    3869:	79 a1 50 f0 00 00 00 00	ldxdw r1, [r10 - 4016]
    3870:	79 12 00 00 00 00 00 00	ldxdw r2, [r1 + 0]
    3871:	07 02 00 00 01 00 00 00	add64 r2, 1
    3872:	7b 21 00 00 00 00 00 00	stxdw [r1 + 0], r2
    3873:	b7 01 00 00 01 00 00 00	mov64 r1, 1
    3874:	15 02 01 00 00 00 00 00	jeq r2, 0, +1 <.text+0x7800>
    3875:	b7 01 00 00 00 00 00 00	mov64 r1, 0
    3876:	55 01 61 00 01 00 00 00	jne r1, 1, +97 <.text+0x7b10>
    3877:	05 00 33 fd 00 00 00 00	ja -717 <.text+0x61a8>
    3878:	61 a2 8c fb 00 00 00 00	ldxw r2, [r10 - 1140]
    3879:	79 a3 90 fb 00 00 00 00	ldxdw r3, [r10 - 1136]
    3880:	79 a4 a0 fb 00 00 00 00	ldxdw r4, [r10 - 1120]
    3881:	7b 4a e8 ff 00 00 00 00	stxdw [r10 - 24], r4
    3882:	79 a4 98 fb 00 00 00 00	ldxdw r4, [r10 - 1128]
    3883:	7b 4a e0 ff 00 00 00 00	stxdw [r10 - 32], r4
    3884:	7b 3a d8 ff 00 00 00 00	stxdw [r10 - 40], r3
    3885:	63 2a d4 ff 00 00 00 00	stxw [r10 - 44], r2
    3886:	63 1a d0 ff 00 00 00 00	stxw [r10 - 48], r1
    3887:	bf a6 00 00 00 00 00 00	mov64 r6, r10
    3888:	07 06 00 00 88 fb ff ff	add64 r6, -1144
    3889:	bf a2 00 00 00 00 00 00	mov64 r2, r10
    3890:	07 02 00 00 d0 ff ff ff	add64 r2, -48
    3891:	bf 61 00 00 00 00 00 00	mov64 r1, r6
    3892:	85 10 00 00 21 0f 00 00	call 3873
    3893:	79 a7 e0 f0 00 00 00 00	ldxdw r7, [r10 - 3872]
    3894:	bf 71 00 00 00 00 00 00	mov64 r1, r7
    3895:	bf 62 00 00 00 00 00 00	mov64 r2, r6
    3896:	b7 03 00 00 a0 00 00 00	mov64 r3, 160
    3897:	85 10 00 00 60 38 00 00	call 14432
    3898:	b7 01 00 00 02 00 00 00	mov64 r1, 2
    3899:	63 17 d8 03 00 00 00 00	stxw [r7 + 984], r1
    3900:	79 a1 78 f8 00 00 00 00	ldxdw r1, [r10 - 1928]
    3901:	79 a2 70 f8 00 00 00 00	ldxdw r2, [r10 - 1936]
    3902:	79 23 00 00 00 00 00 00	ldxdw r3, [r2 + 0]
    3903:	07 03 00 00 ff ff ff ff	add64 r3, -1
    3904:	7b 32 00 00 00 00 00 00	stxdw [r2 + 0], r3
    3905:	55 03 03 00 00 00 00 00	jne r3, 0, +3 <.text+0x7908>
    3906:	79 23 08 00 00 00 00 00	ldxdw r3, [r2 + 8]
    3907:	07 03 00 00 ff ff ff ff	add64 r3, -1
    3908:	7b 32 08 00 00 00 00 00	stxdw [r2 + 8], r3
    3909:	79 12 00 00 00 00 00 00	ldxdw r2, [r1 + 0]
    3910:	07 02 00 00 ff ff ff ff	add64 r2, -1
    3911:	7b 21 00 00 00 00 00 00	stxdw [r1 + 0], r2
    3912:	79 a4 48 f0 00 00 00 00	ldxdw r4, [r10 - 4024]
    3913:	79 a0 d0 f0 00 00 00 00	ldxdw r0, [r10 - 3888]
    3914:	79 a5 d0 ef 00 00 00 00	ldxdw r5, [r10 - 4144]
    3915:	79 a6 c8 ef 00 00 00 00	ldxdw r6, [r10 - 4152]
    3916:	55 02 03 00 00 00 00 00	jne r2, 0, +3 <.text+0x7960>
    3917:	79 12 08 00 00 00 00 00	ldxdw r2, [r1 + 8]
    3918:	07 02 00 00 ff ff ff ff	add64 r2, -1
    3919:	7b 21 08 00 00 00 00 00	stxdw [r1 + 8], r2
    3920:	79 a1 a0 fe 00 00 00 00	ldxdw r1, [r10 - 352]
    3921:	79 a2 98 fe 00 00 00 00	ldxdw r2, [r10 - 360]
    3922:	79 23 00 00 00 00 00 00	ldxdw r3, [r2 + 0]
    3923:	07 03 00 00 ff ff ff ff	add64 r3, -1
    3924:	7b 32 00 00 00 00 00 00	stxdw [r2 + 0], r3
    3925:	55 03 03 00 00 00 00 00	jne r3, 0, +3 <.text+0x79a8>
    3926:	79 23 08 00 00 00 00 00	ldxdw r3, [r2 + 8]
    3927:	07 03 00 00 ff ff ff ff	add64 r3, -1
    3928:	7b 32 08 00 00 00 00 00	stxdw [r2 + 8], r3
    3929:	79 12 00 00 00 00 00 00	ldxdw r2, [r1 + 0]
    3930:	07 02 00 00 ff ff ff ff	add64 r2, -1
    3931:	7b 21 00 00 00 00 00 00	stxdw [r1 + 0], r2
    3932:	55 02 03 00 00 00 00 00	jne r2, 0, +3 <.text+0x79e0>
    3933:	79 12 08 00 00 00 00 00	ldxdw r2, [r1 + 8]
    3934:	07 02 00 00 ff ff ff ff	add64 r2, -1
    3935:	7b 21 08 00 00 00 00 00	stxdw [r1 + 8], r2
    3936:	79 a2 c0 f0 00 00 00 00	ldxdw r2, [r10 - 3904]
    3937:	79 a3 e0 ef 00 00 00 00	ldxdw r3, [r10 - 4128]
    3938:	05 00 fd 00 00 00 00 00	ja +253 <.text+0x81e0>
    3939:	b7 01 00 00 00 00 00 00	mov64 r1, 0
    3940:	b7 02 00 00 00 00 00 00	mov64 r2, 0
    3941:	18 03 00 00 20 7b 02 00 00 00 00 00 00 00 00 00	lddw r3, 162592
    3943:	85 10 00 00 11 2a 00 00	call 10769
    3944:	85 10 00 00 ff ff ff ff	call -1
    3945:	61 a2 a4 fb 00 00 00 00	ldxw r2, [r10 - 1116]
    3946:	63 2a a8 fe 00 00 00 00	stxw [r10 - 344], r2
    3947:	79 a3 9c fb 00 00 00 00	ldxdw r3, [r10 - 1124]
    3948:	7b 3a a0 fe 00 00 00 00	stxdw [r10 - 352], r3
    3949:	79 a4 94 fb 00 00 00 00	ldxdw r4, [r10 - 1132]
    3950:	7b 4a 98 fe 00 00 00 00	stxdw [r10 - 360], r4
    3951:	79 a5 8c fb 00 00 00 00	ldxdw r5, [r10 - 1140]
    3952:	7b 5a 90 fe 00 00 00 00	stxdw [r10 - 368], r5
    3953:	63 2a 84 f8 00 00 00 00	stxw [r10 - 1916], r2
    3954:	7b 3a 7c f8 00 00 00 00	stxdw [r10 - 1924], r3
    3955:	7b 4a 74 f8 00 00 00 00	stxdw [r10 - 1932], r4
    3956:	7b 5a 6c f8 00 00 00 00	stxdw [r10 - 1940], r5
    3957:	63 1a 68 f8 00 00 00 00	stxw [r10 - 1944], r1
    3958:	bf a6 00 00 00 00 00 00	mov64 r6, r10
    3959:	07 06 00 00 88 fb ff ff	add64 r6, -1144
    3960:	bf a2 00 00 00 00 00 00	mov64 r2, r10
    3961:	07 02 00 00 68 f8 ff ff	add64 r2, -1944
    3962:	bf 61 00 00 00 00 00 00	mov64 r1, r6
    3963:	85 10 00 00 da 0e 00 00	call 3802
    3964:	79 a7 e0 f0 00 00 00 00	ldxdw r7, [r10 - 3872]
    3965:	bf 71 00 00 00 00 00 00	mov64 r1, r7
    3966:	bf 62 00 00 00 00 00 00	mov64 r2, r6
    3967:	b7 03 00 00 a0 00 00 00	mov64 r3, 160
    3968:	85 10 00 00 19 38 00 00	call 14361
    3969:	b7 01 00 00 02 00 00 00	mov64 r1, 2
    3970:	63 17 d8 03 00 00 00 00	stxw [r7 + 984], r1
    3971:	79 a4 48 f0 00 00 00 00	ldxdw r4, [r10 - 4024]
    3972:	79 a0 d0 f0 00 00 00 00	ldxdw r0, [r10 - 3888]
    3973:	05 00 d6 00 00 00 00 00	ja +214 <.text+0x81c0>
    3974:	79 a1 48 f0 00 00 00 00	ldxdw r1, [r10 - 4024]
    3975:	79 12 00 00 00 00 00 00	ldxdw r2, [r1 + 0]
    3976:	07 02 00 00 01 00 00 00	add64 r2, 1
    3977:	7b 21 00 00 00 00 00 00	stxdw [r1 + 0], r2
    3978:	b7 01 00 00 01 00 00 00	mov64 r1, 1
    3979:	15 02 01 00 00 00 00 00	jeq r2, 0, +1 <.text+0x7b48>
    3980:	b7 01 00 00 00 00 00 00	mov64 r1, 0
    3981:	55 01 01 00 01 00 00 00	jne r1, 1, +1 <.text+0x7b58>
    3982:	05 00 ca fc 00 00 00 00	ja -822 <.text+0x61a8>
    3983:	bf a1 00 00 00 00 00 00	mov64 r1, r10
    3984:	07 01 00 00 28 f1 ff ff	add64 r1, -3800
    3985:	85 10 00 00 c2 0e 00 00	call 3778
    3986:	bf a1 00 00 00 00 00 00	mov64 r1, r10
    3987:	07 01 00 00 e0 f9 ff ff	add64 r1, -1568
    3988:	bf 02 00 00 00 00 00 00	mov64 r2, r0
    3989:	85 10 00 00 31 f8 ff ff	call -1999
    3990:	79 a1 58 f0 00 00 00 00	ldxdw r1, [r10 - 4008]
    3991:	85 10 00 00 b3 18 00 00	call 6323
    3992:	bf a1 00 00 00 00 00 00	mov64 r1, r10
    3993:	07 01 00 00 d0 ff ff ff	add64 r1, -48
    3994:	bf 02 00 00 00 00 00 00	mov64 r2, r0
    3995:	85 10 00 00 2b f8 ff ff	call -2005
    3996:	bf a1 00 00 00 00 00 00	mov64 r1, r10
    3997:	07 01 00 00 f8 f0 ff ff	add64 r1, -3848
    3998:	85 10 00 00 b5 0e 00 00	call 3765
    3999:	bf a1 00 00 00 00 00 00	mov64 r1, r10
    4000:	07 01 00 00 90 fe ff ff	add64 r1, -368
    4001:	bf 02 00 00 00 00 00 00	mov64 r2, r0
    4002:	85 10 00 00 24 f8 ff ff	call -2012
    4003:	bf 92 00 00 00 00 00 00	mov64 r2, r9
    4004:	07 02 00 00 58 00 00 00	add64 r2, 88
    4005:	bf a1 00 00 00 00 00 00	mov64 r1, r10
    4006:	07 01 00 00 88 fb ff ff	add64 r1, -1144
    4007:	85 10 00 00 1f f8 ff ff	call -2017
    4008:	79 62 00 00 00 00 00 00	ldxdw r2, [r6 + 0]
    4009:	07 02 00 00 01 00 00 00	add64 r2, 1
    4010:	7b 26 00 00 00 00 00 00	stxdw [r6 + 0], r2
    4011:	b7 01 00 00 01 00 00 00	mov64 r1, 1
    4012:	15 02 01 00 00 00 00 00	jeq r2, 0, +1 <.text+0x7c50>
    4013:	b7 01 00 00 00 00 00 00	mov64 r1, 0
    4014:	55 01 01 00 01 00 00 00	jne r1, 1, +1 <.text+0x7c60>
    4015:	05 00 a9 fc 00 00 00 00	ja -855 <.text+0x61a8>
    4016:	79 82 00 00 00 00 00 00	ldxdw r2, [r8 + 0]
    4017:	07 02 00 00 01 00 00 00	add64 r2, 1
    4018:	7b 28 00 00 00 00 00 00	stxdw [r8 + 0], r2
    4019:	b7 01 00 00 01 00 00 00	mov64 r1, 1
    4020:	15 02 01 00 00 00 00 00	jeq r2, 0, +1 <.text+0x7c90>
    4021:	b7 01 00 00 00 00 00 00	mov64 r1, 0
    4022:	55 01 01 00 01 00 00 00	jne r1, 1, +1 <.text+0x7ca0>
    4023:	05 00 a1 fc 00 00 00 00	ja -863 <.text+0x61a8>
    4024:	79 a1 90 f0 00 00 00 00	ldxdw r1, [r10 - 3952]
    4025:	79 12 00 00 00 00 00 00	ldxdw r2, [r1 + 0]
    4026:	07 02 00 00 01 00 00 00	add64 r2, 1
    4027:	7b 21 00 00 00 00 00 00	stxdw [r1 + 0], r2
    4028:	b7 01 00 00 01 00 00 00	mov64 r1, 1
    4029:	15 02 01 00 00 00 00 00	jeq r2, 0, +1 <.text+0x7cd8>
    4030:	b7 01 00 00 00 00 00 00	mov64 r1, 0
    4031:	55 01 01 00 01 00 00 00	jne r1, 1, +1 <.text+0x7ce8>
    4032:	05 00 98 fc 00 00 00 00	ja -872 <.text+0x61a8>
    4033:	79 72 00 00 00 00 00 00	ldxdw r2, [r7 + 0]
    4034:	07 02 00 00 01 00 00 00	add64 r2, 1
    4035:	7b 27 00 00 00 00 00 00	stxdw [r7 + 0], r2
    4036:	b7 01 00 00 01 00 00 00	mov64 r1, 1
    4037:	15 02 01 00 00 00 00 00	jeq r2, 0, +1 <.text+0x7d18>
    4038:	b7 01 00 00 00 00 00 00	mov64 r1, 0
    4039:	55 01 01 00 01 00 00 00	jne r1, 1, +1 <.text+0x7d28>
    4040:	05 00 90 fc 00 00 00 00	ja -880 <.text+0x61a8>
    4041:	bf a6 00 00 00 00 00 00	mov64 r6, r10
    4042:	07 06 00 00 20 f9 ff ff	add64 r6, -1760
    4043:	bf a2 00 00 00 00 00 00	mov64 r2, r10
    4044:	07 02 00 00 e0 f9 ff ff	add64 r2, -1568
    4045:	bf 61 00 00 00 00 00 00	mov64 r1, r6
    4046:	b7 03 00 00 30 00 00 00	mov64 r3, 48
    4047:	85 10 00 00 ca 37 00 00	call 14282
    4048:	bf a1 00 00 00 00 00 00	mov64 r1, r10
    4049:	07 01 00 00 50 f9 ff ff	add64 r1, -1712
    4050:	bf a2 00 00 00 00 00 00	mov64 r2, r10
    4051:	07 02 00 00 d0 ff ff ff	add64 r2, -48
    4052:	b7 03 00 00 30 00 00 00	mov64 r3, 48
    4053:	85 10 00 00 c4 37 00 00	call 14276
    4054:	bf a1 00 00 00 00 00 00	mov64 r1, r10
    4055:	07 01 00 00 80 f9 ff ff	add64 r1, -1664
    4056:	bf a2 00 00 00 00 00 00	mov64 r2, r10
    4057:	07 02 00 00 90 fe ff ff	add64 r2, -368
    4058:	b7 03 00 00 30 00 00 00	mov64 r3, 48
    4059:	85 10 00 00 be 37 00 00	call 14270
    4060:	bf a1 00 00 00 00 00 00	mov64 r1, r10
    4061:	07 01 00 00 b0 f9 ff ff	add64 r1, -1616
    4062:	bf a2 00 00 00 00 00 00	mov64 r2, r10
    4063:	07 02 00 00 88 fb ff ff	add64 r2, -1144
    4064:	b7 03 00 00 30 00 00 00	mov64 r3, 48
    4065:	85 10 00 00 b8 37 00 00	call 14264
    4066:	bf a1 00 00 00 00 00 00	mov64 r1, r10
    4067:	07 01 00 00 38 fa ff ff	add64 r1, -1480
    4068:	bf 62 00 00 00 00 00 00	mov64 r2, r6
    4069:	b7 03 00 00 c0 00 00 00	mov64 r3, 192
    4070:	85 10 00 00 b3 37 00 00	call 14259
    4071:	79 a1 18 f0 00 00 00 00	ldxdw r1, [r10 - 4072]
    4072:	73 1a 52 fb 00 00 00 00	stxb [r10 - 1198], r1
    4073:	79 a1 20 f0 00 00 00 00	ldxdw r1, [r10 - 4064]
    4074:	73 1a 51 fb 00 00 00 00	stxb [r10 - 1199], r1
    4075:	79 a1 28 f0 00 00 00 00	ldxdw r1, [r10 - 4056]
    4076:	73 1a 50 fb 00 00 00 00	stxb [r10 - 1200], r1
    4077:	79 a1 30 f0 00 00 00 00	ldxdw r1, [r10 - 4048]
    4078:	7b 1a 48 fb 00 00 00 00	stxdw [r10 - 1208], r1
    4079:	79 a1 38 f0 00 00 00 00	ldxdw r1, [r10 - 4040]
    4080:	7b 1a 40 fb 00 00 00 00	stxdw [r10 - 1216], r1
    4081:	7b 7a 38 fb 00 00 00 00	stxdw [r10 - 1224], r7
    4082:	79 a1 90 f0 00 00 00 00	ldxdw r1, [r10 - 3952]
    4083:	7b 1a 30 fb 00 00 00 00	stxdw [r10 - 1232], r1
    4084:	79 a1 40 f0 00 00 00 00	ldxdw r1, [r10 - 4032]
    4085:	7b 1a 28 fb 00 00 00 00	stxdw [r10 - 1240], r1
    4086:	79 a1 60 f0 00 00 00 00	ldxdw r1, [r10 - 4000]
    4087:	73 1a 22 fb 00 00 00 00	stxb [r10 - 1246], r1
    4088:	79 a1 68 f0 00 00 00 00	ldxdw r1, [r10 - 3992]
    4089:	73 1a 21 fb 00 00 00 00	stxb [r10 - 1247], r1
    4090:	79 a1 70 f0 00 00 00 00	ldxdw r1, [r10 - 3984]
    4091:	73 1a 20 fb 00 00 00 00	stxb [r10 - 1248], r1
    4092:	79 a1 78 f0 00 00 00 00	ldxdw r1, [r10 - 3976]
    4093:	7b 1a 18 fb 00 00 00 00	stxdw [r10 - 1256], r1
    4094:	79 a1 80 f0 00 00 00 00	ldxdw r1, [r10 - 3968]
    4095:	7b 1a 10 fb 00 00 00 00	stxdw [r10 - 1264], r1
    4096:	7b 8a 08 fb 00 00 00 00	stxdw [r10 - 1272], r8
    4097:	79 a1 a0 f0 00 00 00 00	ldxdw r1, [r10 - 3936]
    4098:	7b 1a 00 fb 00 00 00 00	stxdw [r10 - 1280], r1
    4099:	79 a1 88 f0 00 00 00 00	ldxdw r1, [r10 - 3960]
    4100:	7b 1a f8 fa 00 00 00 00	stxdw [r10 - 1288], r1
    4101:	b7 01 00 00 08 00 00 00	mov64 r1, 8
    4102:	7b 1a 20 fa 00 00 00 00	stxdw [r10 - 1504], r1
    4103:	b7 01 00 00 00 00 00 00	mov64 r1, 0
    4104:	7b 1a 28 fa 00 00 00 00	stxdw [r10 - 1496], r1
    4105:	7b 1a 30 fa 00 00 00 00	stxdw [r10 - 1488], r1
    4106:	79 a2 f0 ef 00 00 00 00	ldxdw r2, [r10 - 4112]
    4107:	73 2a 82 fb 00 00 00 00	stxb [r10 - 1150], r2
    4108:	79 a2 f8 ef 00 00 00 00	ldxdw r2, [r10 - 4104]
    4109:	73 2a 81 fb 00 00 00 00	stxb [r10 - 1151], r2
    4110:	79 a2 00 f0 00 00 00 00	ldxdw r2, [r10 - 4096]
    4111:	73 2a 80 fb 00 00 00 00	stxb [r10 - 1152], r2
    4112:	79 a2 08 f0 00 00 00 00	ldxdw r2, [r10 - 4088]
    4113:	7b 2a 78 fb 00 00 00 00	stxdw [r10 - 1160], r2
    4114:	79 a2 10 f0 00 00 00 00	ldxdw r2, [r10 - 4080]
    4115:	7b 2a 70 fb 00 00 00 00	stxdw [r10 - 1168], r2
    4116:	79 a2 48 f0 00 00 00 00	ldxdw r2, [r10 - 4024]
    4117:	7b 2a 68 fb 00 00 00 00	stxdw [r10 - 1176], r2
    4118:	79 a2 50 f0 00 00 00 00	ldxdw r2, [r10 - 4016]
    4119:	7b 2a 60 fb 00 00 00 00	stxdw [r10 - 1184], r2
    4120:	79 a2 e8 ef 00 00 00 00	ldxdw r2, [r10 - 4120]
    4121:	7b 2a 58 fb 00 00 00 00	stxdw [r10 - 1192], r2
    4122:	18 02 00 00 78 52 02 00 00 00 00 00 00 00 00 00	lddw r2, 152184
    4124:	7b 2a 10 fa 00 00 00 00	stxdw [r10 - 1520], r2
    4125:	7b 1a 18 fa 00 00 00 00	stxdw [r10 - 1512], r1
    4126:	bf a1 00 00 00 00 00 00	mov64 r1, r10
    4127:	07 01 00 00 88 fb ff ff	add64 r1, -1144
    4128:	bf a2 00 00 00 00 00 00	mov64 r2, r10
    4129:	07 02 00 00 10 fa ff ff	add64 r2, -1520
    4130:	85 10 00 00 4e 07 00 00	call 1870
    4131:	79 a6 88 fb 00 00 00 00	ldxdw r6, [r10 - 1144]
    4132:	15 06 01 00 04 00 00 00	jeq r6, 4, +1 <.text+0x8010>
    4133:	05 00 2a 00 00 00 00 00	ja +42 <.text+0x8160>
    4134:	bf a1 00 00 00 00 00 00	mov64 r1, r10
    4135:	07 01 00 00 88 fb ff ff	add64 r1, -1144
    4136:	79 a2 58 f0 00 00 00 00	ldxdw r2, [r10 - 4008]
    4137:	85 10 00 00 ad f0 ff ff	call -3923
    4138:	61 a1 40 fc 00 00 00 00	ldxw r1, [r10 - 960]
    4139:	15 01 01 00 02 00 00 00	jeq r1, 2, +1 <.text+0x8048>
    4140:	05 00 4e 00 00 00 00 00	ja +78 <.text+0x82b8>
    4141:	bf a6 00 00 00 00 00 00	mov64 r6, r10
    4142:	07 06 00 00 68 fc ff ff	add64 r6, -920
    4143:	bf a2 00 00 00 00 00 00	mov64 r2, r10
    4144:	07 02 00 00 88 fb ff ff	add64 r2, -1144
    4145:	bf 61 00 00 00 00 00 00	mov64 r1, r6
    4146:	b7 03 00 00 a0 00 00 00	mov64 r3, 160
    4147:	85 10 00 00 66 37 00 00	call 14182
    4148:	bf a7 00 00 00 00 00 00	mov64 r7, r10
    4149:	07 07 00 00 90 fe ff ff	add64 r7, -368
    4150:	bf 71 00 00 00 00 00 00	mov64 r1, r7
    4151:	bf 62 00 00 00 00 00 00	mov64 r2, r6
    4152:	18 03 00 00 d5 54 02 00 00 00 00 00 00 00 00 00	lddw r3, 152789
    4154:	b7 04 00 00 12 00 00 00	mov64 r4, 18
    4155:	85 10 00 00 e8 ef ff ff	call -4120
    4156:	79 a6 e0 f0 00 00 00 00	ldxdw r6, [r10 - 3872]
    4157:	bf 61 00 00 00 00 00 00	mov64 r1, r6
    4158:	bf 72 00 00 00 00 00 00	mov64 r2, r7
    4159:	b7 03 00 00 a0 00 00 00	mov64 r3, 160
    4160:	85 10 00 00 59 37 00 00	call 14169
    4161:	b7 01 00 00 02 00 00 00	mov64 r1, 2
    4162:	63 16 d8 03 00 00 00 00	stxw [r6 + 984], r1
    4163:	05 00 16 00 00 00 00 00	ja +22 <.text+0x81b0>
    4164:	b7 01 00 00 00 00 00 00	mov64 r1, 0
    4165:	b7 02 00 00 00 00 00 00	mov64 r2, 0
    4166:	18 03 00 00 38 7b 02 00 00 00 00 00 00 00 00 00	lddw r3, 162616
    4168:	85 10 00 00 30 29 00 00	call 10544
    4169:	85 10 00 00 ff ff ff ff	call -1
    4170:	b7 01 00 00 00 00 00 00	mov64 r1, 0
    4171:	b7 02 00 00 00 00 00 00	mov64 r2, 0
    4172:	18 03 00 00 50 7b 02 00 00 00 00 00 00 00 00 00	lddw r3, 162640
    4174:	85 10 00 00 2a 29 00 00	call 10538
    4175:	85 10 00 00 ff ff ff ff	call -1
    4176:	79 a7 e0 f0 00 00 00 00	ldxdw r7, [r10 - 3872]
    4177:	bf 71 00 00 00 00 00 00	mov64 r1, r7
    4178:	07 01 00 00 08 00 00 00	add64 r1, 8
    4179:	bf a2 00 00 00 00 00 00	mov64 r2, r10
    4180:	07 02 00 00 90 fb ff ff	add64 r2, -1136
    4181:	b7 03 00 00 98 00 00 00	mov64 r3, 152
    4182:	85 10 00 00 43 37 00 00	call 14147
    4183:	b7 01 00 00 02 00 00 00	mov64 r1, 2
    4184:	63 17 d8 03 00 00 00 00	stxw [r7 + 984], r1
    4185:	7b 67 00 00 00 00 00 00	stxdw [r7 + 0], r6
    4186:	79 a0 d0 f0 00 00 00 00	ldxdw r0, [r10 - 3888]
    4187:	79 a4 48 f0 00 00 00 00	ldxdw r4, [r10 - 4024]
    4188:	79 a2 c0 f0 00 00 00 00	ldxdw r2, [r10 - 3904]
    4189:	79 a3 e0 ef 00 00 00 00	ldxdw r3, [r10 - 4128]
    4190:	79 a5 d0 ef 00 00 00 00	ldxdw r5, [r10 - 4144]
    4191:	79 a6 c8 ef 00 00 00 00	ldxdw r6, [r10 - 4152]
    4192:	79 61 00 00 00 00 00 00	ldxdw r1, [r6 + 0]
    4193:	07 01 00 00 ff ff ff ff	add64 r1, -1
    4194:	7b 16 00 00 00 00 00 00	stxdw [r6 + 0], r1
    4195:	55 01 03 00 00 00 00 00	jne r1, 0, +3 <.text+0x8218>
    4196:	79 61 08 00 00 00 00 00	ldxdw r1, [r6 + 8]
    4197:	07 01 00 00 ff ff ff ff	add64 r1, -1
    4198:	7b 16 08 00 00 00 00 00	stxdw [r6 + 8], r1
    4199:	79 51 00 00 00 00 00 00	ldxdw r1, [r5 + 0]
    4200:	07 01 00 00 ff ff ff ff	add64 r1, -1
    4201:	7b 15 00 00 00 00 00 00	stxdw [r5 + 0], r1
    4202:	55 01 da fd 00 00 00 00	jne r1, 0, -550 <.text+0x7108>
    4203:	79 51 08 00 00 00 00 00	ldxdw r1, [r5 + 8]
    4204:	07 01 00 00 ff ff ff ff	add64 r1, -1
    4205:	7b 15 08 00 00 00 00 00	stxdw [r5 + 8], r1
    4206:	05 00 d6 fd 00 00 00 00	ja -554 <.text+0x7108>
    4207:	b7 01 00 00 00 00 00 00	mov64 r1, 0
    4208:	b7 02 00 00 00 00 00 00	mov64 r2, 0
    4209:	18 03 00 00 68 7b 02 00 00 00 00 00 00 00 00 00	lddw r3, 162664
    4211:	85 10 00 00 05 29 00 00	call 10501
    4212:	85 10 00 00 ff ff ff ff	call -1
    4213:	b7 01 00 00 00 00 00 00	mov64 r1, 0
    4214:	b7 02 00 00 00 00 00 00	mov64 r2, 0
    4215:	18 03 00 00 80 7b 02 00 00 00 00 00 00 00 00 00	lddw r3, 162688
    4217:	85 10 00 00 ff 28 00 00	call 10495
    4218:	85 10 00 00 ff ff ff ff	call -1
    4219:	7b 8a 90 ef 00 00 00 00	stxdw [r10 - 4208], r8
    4220:	7b 9a c8 f0 00 00 00 00	stxdw [r10 - 3896], r9
    4221:	79 a1 d0 f0 00 00 00 00	ldxdw r1, [r10 - 3888]
    4222:	7b 1a d0 f0 00 00 00 00	stxdw [r10 - 3888], r1
    4223:	71 a1 b2 fb 00 00 00 00	ldxb r1, [r10 - 1102]
    4224:	7b 1a 98 ef 00 00 00 00	stxdw [r10 - 4200], r1
    4225:	71 a1 b1 fb 00 00 00 00	ldxb r1, [r10 - 1103]
    4226:	7b 1a a0 ef 00 00 00 00	stxdw [r10 - 4192], r1
    4227:	71 a1 b0 fb 00 00 00 00	ldxb r1, [r10 - 1104]
    4228:	7b 1a a8 ef 00 00 00 00	stxdw [r10 - 4184], r1
    4229:	79 a1 a8 fb 00 00 00 00	ldxdw r1, [r10 - 1112]
    4230:	7b 1a b0 ef 00 00 00 00	stxdw [r10 - 4176], r1
    4231:	79 a1 a0 fb 00 00 00 00	ldxdw r1, [r10 - 1120]
    4232:	7b 1a b8 ef 00 00 00 00	stxdw [r10 - 4168], r1
    4233:	79 a9 98 fb 00 00 00 00	ldxdw r9, [r10 - 1128]
    4234:	79 a1 88 fb 00 00 00 00	ldxdw r1, [r10 - 1144]
    4235:	7b 1a 58 f0 00 00 00 00	stxdw [r10 - 4008], r1
    4236:	79 a7 90 fb 00 00 00 00	ldxdw r7, [r10 - 1136]
    4237:	bf a1 00 00 00 00 00 00	mov64 r1, r10
    4238:	07 01 00 00 68 f8 ff ff	add64 r1, -1944
    4239:	bf a2 00 00 00 00 00 00	mov64 r2, r10
    4240:	07 02 00 00 b3 fb ff ff	add64 r2, -1101
    4241:	b7 03 00 00 b5 00 00 00	mov64 r3, 181
    4242:	85 10 00 00 07 37 00 00	call 14087
    4243:	79 71 00 00 00 00 00 00	ldxdw r1, [r7 + 0]
    4244:	07 01 00 00 01 00 00 00	add64 r1, 1
    4245:	b7 02 00 00 01 00 00 00	mov64 r2, 1
    4246:	15 01 01 00 00 00 00 00	jeq r1, 0, +1 <.text+0x83a0>
    4247:	b7 02 00 00 00 00 00 00	mov64 r2, 0
    4248:	7b 17 00 00 00 00 00 00	stxdw [r7 + 0], r1
    4249:	55 02 01 00 01 00 00 00	jne r2, 1, +1 <.text+0x83b8>
    4250:	05 00 be fb 00 00 00 00	ja -1090 <.text+0x61a8>
    4251:	bf 91 00 00 00 00 00 00	mov64 r1, r9
    4252:	79 12 00 00 00 00 00 00	ldxdw r2, [r1 + 0]
    4253:	07 02 00 00 01 00 00 00	add64 r2, 1
    4254:	7b 21 00 00 00 00 00 00	stxdw [r1 + 0], r2
    4255:	b7 01 00 00 01 00 00 00	mov64 r1, 1
    4256:	15 02 01 00 00 00 00 00	jeq r2, 0, +1 <.text+0x83f0>
    4257:	b7 01 00 00 00 00 00 00	mov64 r1, 0
    4258:	55 01 01 00 01 00 00 00	jne r1, 1, +1 <.text+0x8400>
    4259:	05 00 b5 fb 00 00 00 00	ja -1099 <.text+0x61a8>
    4260:	79 a1 98 ef 00 00 00 00	ldxdw r1, [r10 - 4200]
    4261:	73 1a fa ff 00 00 00 00	stxb [r10 - 6], r1
    4262:	79 a1 a0 ef 00 00 00 00	ldxdw r1, [r10 - 4192]
    4263:	73 1a f9 ff 00 00 00 00	stxb [r10 - 7], r1
    4264:	79 a1 a8 ef 00 00 00 00	ldxdw r1, [r10 - 4184]
    4265:	73 1a f8 ff 00 00 00 00	stxb [r10 - 8], r1
    4266:	79 a1 b0 ef 00 00 00 00	ldxdw r1, [r10 - 4176]
    4267:	7b 1a f0 ff 00 00 00 00	stxdw [r10 - 16], r1
    4268:	79 a1 b8 ef 00 00 00 00	ldxdw r1, [r10 - 4168]
    4269:	7b 1a e8 ff 00 00 00 00	stxdw [r10 - 24], r1
    4270:	7b 9a e0 ff 00 00 00 00	stxdw [r10 - 32], r9
    4271:	79 a1 58 f0 00 00 00 00	ldxdw r1, [r10 - 4008]
    4272:	7b 1a d0 ff 00 00 00 00	stxdw [r10 - 48], r1
    4273:	7b 7a d8 ff 00 00 00 00	stxdw [r10 - 40], r7
    4274:	bf a1 00 00 00 00 00 00	mov64 r1, r10
    4275:	07 01 00 00 d0 ff ff ff	add64 r1, -48
    4276:	85 10 00 00 61 17 00 00	call 5985
    4277:	bf 06 00 00 00 00 00 00	mov64 r6, r0
    4278:	79 72 00 00 00 00 00 00	ldxdw r2, [r7 + 0]
    4279:	07 02 00 00 01 00 00 00	add64 r2, 1
    4280:	7b 27 00 00 00 00 00 00	stxdw [r7 + 0], r2
    4281:	b7 01 00 00 01 00 00 00	mov64 r1, 1
    4282:	15 02 01 00 00 00 00 00	jeq r2, 0, +1 <.text+0x84c0>
    4283:	b7 01 00 00 00 00 00 00	mov64 r1, 0
    4284:	55 01 01 00 01 00 00 00	jne r1, 1, +1 <.text+0x84d0>
    4285:	05 00 9b fb 00 00 00 00	ja -1125 <.text+0x61a8>
    4286:	bf 91 00 00 00 00 00 00	mov64 r1, r9
    4287:	79 12 00 00 00 00 00 00	ldxdw r2, [r1 + 0]
    4288:	07 02 00 00 01 00 00 00	add64 r2, 1
    4289:	7b 21 00 00 00 00 00 00	stxdw [r1 + 0], r2
    4290:	b7 01 00 00 01 00 00 00	mov64 r1, 1
    4291:	15 02 01 00 00 00 00 00	jeq r2, 0, +1 <.text+0x8508>
    4292:	b7 01 00 00 00 00 00 00	mov64 r1, 0
    4293:	55 01 01 00 01 00 00 00	jne r1, 1, +1 <.text+0x8518>
    4294:	05 00 92 fb 00 00 00 00	ja -1134 <.text+0x61a8>
    4295:	79 a1 98 ef 00 00 00 00	ldxdw r1, [r10 - 4200]
    4296:	73 1a ba fe 00 00 00 00	stxb [r10 - 326], r1
    4297:	79 a1 a0 ef 00 00 00 00	ldxdw r1, [r10 - 4192]
    4298:	73 1a b9 fe 00 00 00 00	stxb [r10 - 327], r1
    4299:	79 a1 a8 ef 00 00 00 00	ldxdw r1, [r10 - 4184]
    4300:	73 1a b8 fe 00 00 00 00	stxb [r10 - 328], r1
    4301:	79 a1 b0 ef 00 00 00 00	ldxdw r1, [r10 - 4176]
    4302:	7b 1a b0 fe 00 00 00 00	stxdw [r10 - 336], r1
    4303:	79 a1 b8 ef 00 00 00 00	ldxdw r1, [r10 - 4168]
    4304:	7b 1a a8 fe 00 00 00 00	stxdw [r10 - 344], r1
    4305:	7b 9a a0 fe 00 00 00 00	stxdw [r10 - 352], r9
    4306:	7b 7a 98 fe 00 00 00 00	stxdw [r10 - 360], r7
    4307:	79 a1 58 f0 00 00 00 00	ldxdw r1, [r10 - 4008]
    4308:	7b 1a 90 fe 00 00 00 00	stxdw [r10 - 368], r1
    4309:	bf a1 00 00 00 00 00 00	mov64 r1, r10
    4310:	07 01 00 00 88 fb ff ff	add64 r1, -1144
    4311:	bf a2 00 00 00 00 00 00	mov64 r2, r10
    4312:	07 02 00 00 90 fe ff ff	add64 r2, -368
    4313:	85 10 00 00 53 17 00 00	call 5971
    4314:	61 a1 88 fb 00 00 00 00	ldxw r1, [r10 - 1144]
    4315:	15 01 01 00 16 00 00 00	jeq r1, 22, +1 <.text+0x85c8>
    4316:	05 00 b1 00 00 00 00 00	ja +177 <.text+0x8b50>
    4317:	79 a3 90 fb 00 00 00 00	ldxdw r3, [r10 - 1136]
    4318:	bf a1 00 00 00 00 00 00	mov64 r1, r10
    4319:	07 01 00 00 50 f8 ff ff	add64 r1, -1968
    4320:	bf 62 00 00 00 00 00 00	mov64 r2, r6
    4321:	85 10 00 00 1f 1f 00 00	call 7967
    4322:	79 a1 a0 fe 00 00 00 00	ldxdw r1, [r10 - 352]
    4323:	79 a2 98 fe 00 00 00 00	ldxdw r2, [r10 - 360]
    4324:	79 23 00 00 00 00 00 00	ldxdw r3, [r2 + 0]
    4325:	07 03 00 00 ff ff ff ff	add64 r3, -1
    4326:	7b 32 00 00 00 00 00 00	stxdw [r2 + 0], r3
    4327:	55 03 03 00 00 00 00 00	jne r3, 0, +3 <.text+0x8638>
    4328:	79 23 08 00 00 00 00 00	ldxdw r3, [r2 + 8]
    4329:	07 03 00 00 ff ff ff ff	add64 r3, -1
    4330:	7b 32 08 00 00 00 00 00	stxdw [r2 + 8], r3
    4331:	79 12 00 00 00 00 00 00	ldxdw r2, [r1 + 0]
    4332:	07 02 00 00 ff ff ff ff	add64 r2, -1
    4333:	7b 21 00 00 00 00 00 00	stxdw [r1 + 0], r2
    4334:	55 02 03 00 00 00 00 00	jne r2, 0, +3 <.text+0x8670>
    4335:	79 12 08 00 00 00 00 00	ldxdw r2, [r1 + 8]
    4336:	07 02 00 00 ff ff ff ff	add64 r2, -1
    4337:	7b 21 08 00 00 00 00 00	stxdw [r1 + 8], r2
    4338:	79 a1 e0 ff 00 00 00 00	ldxdw r1, [r10 - 32]
    4339:	79 a2 d8 ff 00 00 00 00	ldxdw r2, [r10 - 40]
    4340:	79 23 00 00 00 00 00 00	ldxdw r3, [r2 + 0]
    4341:	07 03 00 00 ff ff ff ff	add64 r3, -1
    4342:	7b 32 00 00 00 00 00 00	stxdw [r2 + 0], r3
    4343:	55 03 03 00 00 00 00 00	jne r3, 0, +3 <.text+0x86b8>
    4344:	79 23 08 00 00 00 00 00	ldxdw r3, [r2 + 8]
    4345:	07 03 00 00 ff ff ff ff	add64 r3, -1
    4346:	7b 32 08 00 00 00 00 00	stxdw [r2 + 8], r3
    4347:	79 12 00 00 00 00 00 00	ldxdw r2, [r1 + 0]
    4348:	07 02 00 00 ff ff ff ff	add64 r2, -1
    4349:	7b 21 00 00 00 00 00 00	stxdw [r1 + 0], r2
    4350:	55 02 03 00 00 00 00 00	jne r2, 0, +3 <.text+0x86f0>
    4351:	79 12 08 00 00 00 00 00	ldxdw r2, [r1 + 8]
    4352:	07 02 00 00 ff ff ff ff	add64 r2, -1
    4353:	7b 21 08 00 00 00 00 00	stxdw [r1 + 8], r2
    4354:	bf a1 00 00 00 00 00 00	mov64 r1, r10
    4355:	07 01 00 00 e8 f0 ff ff	add64 r1, -3864
    4356:	b7 06 00 00 10 00 00 00	mov64 r6, 16
    4357:	b7 02 00 00 10 00 00 00	mov64 r2, 16
    4358:	b7 03 00 00 00 00 00 00	mov64 r3, 0
    4359:	85 10 00 00 31 f6 ff ff	call -2511
    4360:	79 a1 f0 f0 00 00 00 00	ldxdw r1, [r10 - 3856]
    4361:	79 a2 e8 f0 00 00 00 00	ldxdw r2, [r10 - 3864]
    4362:	18 03 00 00 75 74 68 6f 00 00 00 00 72 69 74 79	lddw r3, 8751735916104021109
    4364:	7b 32 08 00 00 00 00 00	stxdw [r2 + 8], r3
    4365:	18 03 00 00 6d 61 72 6b 00 00 00 00 65 74 5f 61	lddw r3, 7016454723409699181
    4367:	7b 32 00 00 00 00 00 00	stxdw [r2 + 0], r3
    4368:	7b 6a 98 fb 00 00 00 00	stxdw [r10 - 1128], r6
    4369:	7b 1a 90 fb 00 00 00 00	stxdw [r10 - 1136], r1
    4370:	7b 2a 88 fb 00 00 00 00	stxdw [r10 - 1144], r2
    4371:	bf a2 00 00 00 00 00 00	mov64 r2, r10
    4372:	07 02 00 00 88 fb ff ff	add64 r2, -1144
    4373:	79 a1 d8 f0 00 00 00 00	ldxdw r1, [r10 - 3880]
    4374:	85 10 00 00 bf f2 ff ff	call -3393
    4375:	bf a1 00 00 00 00 00 00	mov64 r1, r10
    4376:	07 01 00 00 88 fb ff ff	add64 r1, -1144
    4377:	85 10 00 00 ae 20 00 00	call 8366
    4378:	61 a1 88 fb 00 00 00 00	ldxw r1, [r10 - 1144]
    4379:	15 01 01 00 16 00 00 00	jeq r1, 22, +1 <.text+0x87c8>
    4380:	05 00 a8 00 00 00 00 00	ja +168 <.text+0x8d08>
    4381:	79 a1 90 fb 00 00 00 00	ldxdw r1, [r10 - 1136]
    4382:	7b 1a 08 fd 00 00 00 00	stxdw [r10 - 760], r1
    4383:	79 a1 98 fb 00 00 00 00	ldxdw r1, [r10 - 1128]
    4384:	7b 1a 10 fd 00 00 00 00	stxdw [r10 - 752], r1
    4385:	79 a1 a0 fb 00 00 00 00	ldxdw r1, [r10 - 1120]
    4386:	7b 1a 18 fd 00 00 00 00	stxdw [r10 - 744], r1
    4387:	bf a1 00 00 00 00 00 00	mov64 r1, r10
    4388:	07 01 00 00 90 fe ff ff	add64 r1, -368
    4389:	79 a2 b8 f0 00 00 00 00	ldxdw r2, [r10 - 3912]
    4390:	85 10 00 00 58 ef ff ff	call -4264
    4391:	79 a1 90 fe 00 00 00 00	ldxdw r1, [r10 - 368]
    4392:	15 01 01 00 04 00 00 00	jeq r1, 4, +1 <.text+0x8830>
    4393:	05 00 af 00 00 00 00 00	ja +175 <.text+0x8da8>
    4394:	79 a1 b0 fe 00 00 00 00	ldxdw r1, [r10 - 336]
    4395:	7b 1a 20 fd 00 00 00 00	stxdw [r10 - 736], r1
    4396:	79 a1 b8 fe 00 00 00 00	ldxdw r1, [r10 - 328]
    4397:	7b 1a 28 fd 00 00 00 00	stxdw [r10 - 728], r1
    4398:	79 a1 c0 fe 00 00 00 00	ldxdw r1, [r10 - 320]
    4399:	7b 1a 30 fd 00 00 00 00	stxdw [r10 - 720], r1
    4400:	79 a1 a8 fe 00 00 00 00	ldxdw r1, [r10 - 344]
    4401:	7b 1a d8 f0 00 00 00 00	stxdw [r10 - 3880], r1
    4402:	79 a1 a0 fe 00 00 00 00	ldxdw r1, [r10 - 352]
    4403:	7b 1a b8 f0 00 00 00 00	stxdw [r10 - 3912], r1
    4404:	79 a1 98 fe 00 00 00 00	ldxdw r1, [r10 - 360]
    4405:	7b 1a 88 ef 00 00 00 00	stxdw [r10 - 4216], r1
    4406:	bf a1 00 00 00 00 00 00	mov64 r1, r10
    4407:	07 01 00 00 08 fd ff ff	add64 r1, -760
    4408:	b7 02 00 00 19 00 00 00	mov64 r2, 25
    4409:	b7 03 00 00 19 00 00 00	mov64 r3, 25
    4410:	85 10 00 00 c6 1e 00 00	call 7878
    4411:	bf a1 00 00 00 00 00 00	mov64 r1, r10
    4412:	07 01 00 00 88 fb ff ff	add64 r1, -1144
    4413:	85 10 00 00 8a 20 00 00	call 8330
    4414:	61 a1 88 fb 00 00 00 00	ldxw r1, [r10 - 1144]
    4415:	15 01 01 00 16 00 00 00	jeq r1, 22, +1 <.text+0x88e8>
    4416:	05 00 c1 00 00 00 00 00	ja +193 <.text+0x8ef0>
    4417:	79 a1 90 fb 00 00 00 00	ldxdw r1, [r10 - 1136]
    4418:	7b 1a d8 fd 00 00 00 00	stxdw [r10 - 552], r1
    4419:	79 a1 98 fb 00 00 00 00	ldxdw r1, [r10 - 1128]
    4420:	7b 1a e0 fd 00 00 00 00	stxdw [r10 - 544], r1
    4421:	79 a1 a0 fb 00 00 00 00	ldxdw r1, [r10 - 1120]
    4422:	7b 1a e8 fd 00 00 00 00	stxdw [r10 - 536], r1
    4423:	bf a1 00 00 00 00 00 00	mov64 r1, r10
    4424:	07 01 00 00 90 fe ff ff	add64 r1, -368
    4425:	79 a2 b0 f0 00 00 00 00	ldxdw r2, [r10 - 3920]
    4426:	85 10 00 00 34 ef ff ff	call -4300
    4427:	79 a1 90 fe 00 00 00 00	ldxdw r1, [r10 - 368]
    4428:	15 01 01 00 04 00 00 00	jeq r1, 4, +1 <.text+0x8950>
    4429:	05 00 c8 00 00 00 00 00	ja +200 <.text+0x8f90>
    4430:	79 a1 b0 fe 00 00 00 00	ldxdw r1, [r10 - 336]
    4431:	7b 1a e0 f9 00 00 00 00	stxdw [r10 - 1568], r1
    4432:	79 a1 b8 fe 00 00 00 00	ldxdw r1, [r10 - 328]
    4433:	7b 1a e8 f9 00 00 00 00	stxdw [r10 - 1560], r1
    4434:	79 a1 c0 fe 00 00 00 00	ldxdw r1, [r10 - 320]
    4435:	7b 1a f0 f9 00 00 00 00	stxdw [r10 - 1552], r1
    4436:	79 a1 a8 fe 00 00 00 00	ldxdw r1, [r10 - 344]
    4437:	7b 1a b0 f0 00 00 00 00	stxdw [r10 - 3920], r1
    4438:	79 a1 a0 fe 00 00 00 00	ldxdw r1, [r10 - 352]
    4439:	7b 1a 80 ef 00 00 00 00	stxdw [r10 - 4224], r1
    4440:	79 a1 98 fe 00 00 00 00	ldxdw r1, [r10 - 360]
    4441:	7b 1a 78 ef 00 00 00 00	stxdw [r10 - 4232], r1
    4442:	bf a1 00 00 00 00 00 00	mov64 r1, r10
    4443:	07 01 00 00 d8 fd ff ff	add64 r1, -552
    4444:	b7 02 00 00 19 00 00 00	mov64 r2, 25
    4445:	b7 03 00 00 19 00 00 00	mov64 r3, 25
    4446:	85 10 00 00 a2 1e 00 00	call 7842
    4447:	bf a1 00 00 00 00 00 00	mov64 r1, r10
    4448:	07 01 00 00 90 fe ff ff	add64 r1, -368
    4449:	79 a2 a8 f0 00 00 00 00	ldxdw r2, [r10 - 3928]
    4450:	85 10 00 00 1c ef ff ff	call -4324
    4451:	79 a1 90 fe 00 00 00 00	ldxdw r1, [r10 - 368]
    4452:	15 01 da 00 04 00 00 00	jeq r1, 4, +218 <.text+0x90d8>
    4453:	bf a8 00 00 00 00 00 00	mov64 r8, r10
    4454:	07 08 00 00 30 ff ff ff	add64 r8, -208
    4455:	bf a2 00 00 00 00 00 00	mov64 r2, r10
    4456:	07 02 00 00 90 fe ff ff	add64 r2, -368
    4457:	bf 81 00 00 00 00 00 00	mov64 r1, r8
    4458:	b7 03 00 00 a0 00 00 00	mov64 r3, 160
    4459:	85 10 00 00 2e 36 00 00	call 13870
    4460:	bf a6 00 00 00 00 00 00	mov64 r6, r10
    4461:	07 06 00 00 88 fb ff ff	add64 r6, -1144
    4462:	bf 61 00 00 00 00 00 00	mov64 r1, r6
    4463:	bf 82 00 00 00 00 00 00	mov64 r2, r8
    4464:	18 03 00 00 a7 54 02 00 00 00 00 00 00 00 00 00	lddw r3, 152743
    4466:	b7 04 00 00 0a 00 00 00	mov64 r4, 10
    4467:	85 10 00 00 b0 ee ff ff	call -4432
    4468:	79 a8 e0 f0 00 00 00 00	ldxdw r8, [r10 - 3872]
    4469:	bf 81 00 00 00 00 00 00	mov64 r1, r8
    4470:	bf 62 00 00 00 00 00 00	mov64 r2, r6
    4471:	b7 03 00 00 a0 00 00 00	mov64 r3, 160
    4472:	85 10 00 00 21 36 00 00	call 13857
    4473:	b7 01 00 00 02 00 00 00	mov64 r1, 2
    4474:	63 18 d8 03 00 00 00 00	stxw [r8 + 984], r1
    4475:	79 a2 80 ef 00 00 00 00	ldxdw r2, [r10 - 4224]
    4476:	79 21 00 00 00 00 00 00	ldxdw r1, [r2 + 0]
    4477:	07 01 00 00 ff ff ff ff	add64 r1, -1
    4478:	7b 12 00 00 00 00 00 00	stxdw [r2 + 0], r1
    4479:	55 01 04 00 00 00 00 00	jne r1, 0, +4 <.text+0x8b00>
    4480:	79 a2 80 ef 00 00 00 00	ldxdw r2, [r10 - 4224]
    4481:	79 21 08 00 00 00 00 00	ldxdw r1, [r2 + 8]
    4482:	07 01 00 00 ff ff ff ff	add64 r1, -1
    4483:	7b 12 08 00 00 00 00 00	stxdw [r2 + 8], r1
    4484:	79 a2 b0 f0 00 00 00 00	ldxdw r2, [r10 - 3920]
    4485:	79 21 00 00 00 00 00 00	ldxdw r1, [r2 + 0]
    4486:	07 01 00 00 ff ff ff ff	add64 r1, -1
    4487:	7b 12 00 00 00 00 00 00	stxdw [r2 + 0], r1
    4488:	55 01 a3 00 00 00 00 00	jne r1, 0, +163 <.text+0x9040>
    4489:	79 a2 b0 f0 00 00 00 00	ldxdw r2, [r10 - 3920]
    4490:	79 21 08 00 00 00 00 00	ldxdw r1, [r2 + 8]
    4491:	07 01 00 00 ff ff ff ff	add64 r1, -1
    4492:	7b 12 08 00 00 00 00 00	stxdw [r2 + 8], r1
    4493:	05 00 9e 00 00 00 00 00	ja +158 <.text+0x9040>
    4494:	61 a2 8c fb 00 00 00 00	ldxw r2, [r10 - 1140]
    4495:	79 a3 90 fb 00 00 00 00	ldxdw r3, [r10 - 1136]
    4496:	79 a4 a0 fb 00 00 00 00	ldxdw r4, [r10 - 1120]
    4497:	7b 4a f8 f9 00 00 00 00	stxdw [r10 - 1544], r4
    4498:	79 a4 98 fb 00 00 00 00	ldxdw r4, [r10 - 1128]
    4499:	7b 4a f0 f9 00 00 00 00	stxdw [r10 - 1552], r4
    4500:	7b 3a e8 f9 00 00 00 00	stxdw [r10 - 1560], r3
    4501:	63 2a e4 f9 00 00 00 00	stxw [r10 - 1564], r2
    4502:	63 1a e0 f9 00 00 00 00	stxw [r10 - 1568], r1
    4503:	bf a6 00 00 00 00 00 00	mov64 r6, r10
    4504:	07 06 00 00 88 fb ff ff	add64 r6, -1144
    4505:	bf a2 00 00 00 00 00 00	mov64 r2, r10
    4506:	07 02 00 00 e0 f9 ff ff	add64 r2, -1568
    4507:	bf 61 00 00 00 00 00 00	mov64 r1, r6
    4508:	85 10 00 00 b9 0c 00 00	call 3257
    4509:	79 a8 e0 f0 00 00 00 00	ldxdw r8, [r10 - 3872]
    4510:	bf 81 00 00 00 00 00 00	mov64 r1, r8
    4511:	bf 62 00 00 00 00 00 00	mov64 r2, r6
    4512:	b7 03 00 00 a0 00 00 00	mov64 r3, 160
    4513:	85 10 00 00 f8 35 00 00	call 13816
    4514:	b7 01 00 00 02 00 00 00	mov64 r1, 2
    4515:	63 18 d8 03 00 00 00 00	stxw [r8 + 984], r1
    4516:	79 a1 a0 fe 00 00 00 00	ldxdw r1, [r10 - 352]
    4517:	79 a2 98 fe 00 00 00 00	ldxdw r2, [r10 - 360]
    4518:	79 23 00 00 00 00 00 00	ldxdw r3, [r2 + 0]
    4519:	07 03 00 00 ff ff ff ff	add64 r3, -1
    4520:	7b 32 00 00 00 00 00 00	stxdw [r2 + 0], r3
    4521:	55 03 03 00 00 00 00 00	jne r3, 0, +3 <.text+0x8c48>
    4522:	79 23 08 00 00 00 00 00	ldxdw r3, [r2 + 8]
    4523:	07 03 00 00 ff ff ff ff	add64 r3, -1
    4524:	7b 32 08 00 00 00 00 00	stxdw [r2 + 8], r3
    4525:	79 12 00 00 00 00 00 00	ldxdw r2, [r1 + 0]
    4526:	07 02 00 00 ff ff ff ff	add64 r2, -1
    4527:	7b 21 00 00 00 00 00 00	stxdw [r1 + 0], r2
    4528:	55 02 03 00 00 00 00 00	jne r2, 0, +3 <.text+0x8c80>
    4529:	79 12 08 00 00 00 00 00	ldxdw r2, [r1 + 8]
    4530:	07 02 00 00 ff ff ff ff	add64 r2, -1
    4531:	7b 21 08 00 00 00 00 00	stxdw [r1 + 8], r2
    4532:	79 a1 e0 ff 00 00 00 00	ldxdw r1, [r10 - 32]
    4533:	79 a2 d8 ff 00 00 00 00	ldxdw r2, [r10 - 40]
    4534:	79 23 00 00 00 00 00 00	ldxdw r3, [r2 + 0]
    4535:	07 03 00 00 ff ff ff ff	add64 r3, -1
    4536:	7b 32 00 00 00 00 00 00	stxdw [r2 + 0], r3
    4537:	55 03 03 00 00 00 00 00	jne r3, 0, +3 <.text+0x8cc8>
    4538:	79 23 08 00 00 00 00 00	ldxdw r3, [r2 + 8]
    4539:	07 03 00 00 ff ff ff ff	add64 r3, -1
    4540:	7b 32 08 00 00 00 00 00	stxdw [r2 + 8], r3
    4541:	79 12 00 00 00 00 00 00	ldxdw r2, [r1 + 0]
    4542:	07 02 00 00 ff ff ff ff	add64 r2, -1
    4543:	7b 21 00 00 00 00 00 00	stxdw [r1 + 0], r2
    4544:	55 02 2e 00 00 00 00 00	jne r2, 0, +46 <.text+0x8e58>
    4545:	79 12 08 00 00 00 00 00	ldxdw r2, [r1 + 8]
    4546:	07 02 00 00 ff ff ff ff	add64 r2, -1
    4547:	7b 21 08 00 00 00 00 00	stxdw [r1 + 8], r2
    4548:	05 00 2a 00 00 00 00 00	ja +42 <.text+0x8e58>
    4549:	61 a2 a4 fb 00 00 00 00	ldxw r2, [r10 - 1116]
    4550:	63 2a e8 ff 00 00 00 00	stxw [r10 - 24], r2
    4551:	79 a3 9c fb 00 00 00 00	ldxdw r3, [r10 - 1124]
    4552:	7b 3a e0 ff 00 00 00 00	stxdw [r10 - 32], r3
    4553:	79 a4 94 fb 00 00 00 00	ldxdw r4, [r10 - 1132]
    4554:	7b 4a d8 ff 00 00 00 00	stxdw [r10 - 40], r4
    4555:	79 a5 8c fb 00 00 00 00	ldxdw r5, [r10 - 1140]
    4556:	7b 5a d0 ff 00 00 00 00	stxdw [r10 - 48], r5
    4557:	63 2a ac fe 00 00 00 00	stxw [r10 - 340], r2
    4558:	7b 3a a4 fe 00 00 00 00	stxdw [r10 - 348], r3
    4559:	7b 4a 9c fe 00 00 00 00	stxdw [r10 - 356], r4
    4560:	7b 5a 94 fe 00 00 00 00	stxdw [r10 - 364], r5
    4561:	63 1a 90 fe 00 00 00 00	stxw [r10 - 368], r1
    4562:	bf a6 00 00 00 00 00 00	mov64 r6, r10
    4563:	07 06 00 00 88 fb ff ff	add64 r6, -1144
    4564:	bf a2 00 00 00 00 00 00	mov64 r2, r10
    4565:	07 02 00 00 90 fe ff ff	add64 r2, -368
    4566:	bf 61 00 00 00 00 00 00	mov64 r1, r6
    4567:	85 10 00 00 7e 0c 00 00	call 3198
    4568:	05 00 0f 00 00 00 00 00	ja +15 <.text+0x8e20>
    4569:	bf a8 00 00 00 00 00 00	mov64 r8, r10
    4570:	07 08 00 00 38 fd ff ff	add64 r8, -712
    4571:	bf a2 00 00 00 00 00 00	mov64 r2, r10
    4572:	07 02 00 00 90 fe ff ff	add64 r2, -368
    4573:	bf 81 00 00 00 00 00 00	mov64 r1, r8
    4574:	b7 03 00 00 a0 00 00 00	mov64 r3, 160
    4575:	85 10 00 00 ba 35 00 00	call 13754
    4576:	bf a6 00 00 00 00 00 00	mov64 r6, r10
    4577:	07 06 00 00 88 fb ff ff	add64 r6, -1144
    4578:	bf 61 00 00 00 00 00 00	mov64 r1, r6
    4579:	bf 82 00 00 00 00 00 00	mov64 r2, r8
    4580:	18 03 00 00 d1 54 02 00 00 00 00 00 00 00 00 00	lddw r3, 152785
    4582:	b7 04 00 00 04 00 00 00	mov64 r4, 4
    4583:	85 10 00 00 3c ee ff ff	call -4548
    4584:	79 a8 e0 f0 00 00 00 00	ldxdw r8, [r10 - 3872]
    4585:	bf 81 00 00 00 00 00 00	mov64 r1, r8
    4586:	bf 62 00 00 00 00 00 00	mov64 r2, r6
    4587:	b7 03 00 00 a0 00 00 00	mov64 r3, 160
    4588:	85 10 00 00 ad 35 00 00	call 13741
    4589:	b7 01 00 00 02 00 00 00	mov64 r1, 2
    4590:	63 18 d8 03 00 00 00 00	stxw [r8 + 984], r1
    4591:	79 71 00 00 00 00 00 00	ldxdw r1, [r7 + 0]
    4592:	07 01 00 00 ff ff ff ff	add64 r1, -1
    4593:	7b 17 00 00 00 00 00 00	stxdw [r7 + 0], r1
    4594:	55 01 03 00 00 00 00 00	jne r1, 0, +3 <.text+0x8e90>
    4595:	79 71 08 00 00 00 00 00	ldxdw r1, [r7 + 8]
    4596:	07 01 00 00 ff ff ff ff	add64 r1, -1
    4597:	7b 17 08 00 00 00 00 00	stxdw [r7 + 8], r1
    4598:	bf 92 00 00 00 00 00 00	mov64 r2, r9
    4599:	79 21 00 00 00 00 00 00	ldxdw r1, [r2 + 0]
    4600:	07 01 00 00 ff ff ff ff	add64 r1, -1
    4601:	7b 12 00 00 00 00 00 00	stxdw [r2 + 0], r1
    4602:	79 a0 d0 f0 00 00 00 00	ldxdw r0, [r10 - 3888]
    4603:	79 a9 c8 f0 00 00 00 00	ldxdw r9, [r10 - 3896]
    4604:	79 a8 90 ef 00 00 00 00	ldxdw r8, [r10 - 4208]
    4605:	55 01 5d fe 00 00 00 00	jne r1, 0, -419 <.text+0x81b8>
    4606:	79 21 08 00 00 00 00 00	ldxdw r1, [r2 + 8]
    4607:	07 01 00 00 ff ff ff ff	add64 r1, -1
    4608:	7b 12 08 00 00 00 00 00	stxdw [r2 + 8], r1
    4609:	05 00 59 fe 00 00 00 00	ja -423 <.text+0x81b8>
    4610:	61 a2 a4 fb 00 00 00 00	ldxw r2, [r10 - 1116]
    4611:	63 2a e8 ff 00 00 00 00	stxw [r10 - 24], r2
    4612:	79 a3 9c fb 00 00 00 00	ldxdw r3, [r10 - 1124]
    4613:	7b 3a e0 ff 00 00 00 00	stxdw [r10 - 32], r3
    4614:	79 a4 94 fb 00 00 00 00	ldxdw r4, [r10 - 1132]
    4615:	7b 4a d8 ff 00 00 00 00	stxdw [r10 - 40], r4
    4616:	79 a5 8c fb 00 00 00 00	ldxdw r5, [r10 - 1140]
    4617:	7b 5a d0 ff 00 00 00 00	stxdw [r10 - 48], r5
    4618:	63 2a ac fe 00 00 00 00	stxw [r10 - 340], r2
    4619:	7b 3a a4 fe 00 00 00 00	stxdw [r10 - 348], r3
    4620:	7b 4a 9c fe 00 00 00 00	stxdw [r10 - 356], r4
    4621:	7b 5a 94 fe 00 00 00 00	stxdw [r10 - 364], r5
    4622:	63 1a 90 fe 00 00 00 00	stxw [r10 - 368], r1
    4623:	bf a6 00 00 00 00 00 00	mov64 r6, r10
    4624:	07 06 00 00 88 fb ff ff	add64 r6, -1144
    4625:	bf a2 00 00 00 00 00 00	mov64 r2, r10
    4626:	07 02 00 00 90 fe ff ff	add64 r2, -368
    4627:	bf 61 00 00 00 00 00 00	mov64 r1, r6
    4628:	85 10 00 00 41 0c 00 00	call 3137
    4629:	05 00 0f 00 00 00 00 00	ja +15 <.text+0x9008>
    4630:	bf a8 00 00 00 00 00 00	mov64 r8, r10
    4631:	07 08 00 00 f0 fd ff ff	add64 r8, -528
    4632:	bf a2 00 00 00 00 00 00	mov64 r2, r10
    4633:	07 02 00 00 90 fe ff ff	add64 r2, -368
    4634:	bf 81 00 00 00 00 00 00	mov64 r1, r8
    4635:	b7 03 00 00 a0 00 00 00	mov64 r3, 160
    4636:	85 10 00 00 7d 35 00 00	call 13693
    4637:	bf a6 00 00 00 00 00 00	mov64 r6, r10
    4638:	07 06 00 00 88 fb ff ff	add64 r6, -1144
    4639:	bf 61 00 00 00 00 00 00	mov64 r1, r6
    4640:	bf 82 00 00 00 00 00 00	mov64 r2, r8
    4641:	18 03 00 00 b1 54 02 00 00 00 00 00 00 00 00 00	lddw r3, 152753
    4643:	b7 04 00 00 04 00 00 00	mov64 r4, 4
    4644:	85 10 00 00 ff ed ff ff	call -4609
    4645:	79 a8 e0 f0 00 00 00 00	ldxdw r8, [r10 - 3872]
    4646:	bf 81 00 00 00 00 00 00	mov64 r1, r8
    4647:	bf 62 00 00 00 00 00 00	mov64 r2, r6
    4648:	b7 03 00 00 a0 00 00 00	mov64 r3, 160
    4649:	85 10 00 00 70 35 00 00	call 13680
    4650:	b7 01 00 00 02 00 00 00	mov64 r1, 2
    4651:	63 18 d8 03 00 00 00 00	stxw [r8 + 984], r1
    4652:	79 a2 b8 f0 00 00 00 00	ldxdw r2, [r10 - 3912]
    4653:	79 21 00 00 00 00 00 00	ldxdw r1, [r2 + 0]
    4654:	07 01 00 00 ff ff ff ff	add64 r1, -1
    4655:	7b 12 00 00 00 00 00 00	stxdw [r2 + 0], r1
    4656:	55 01 04 00 00 00 00 00	jne r1, 0, +4 <.text+0x9088>
    4657:	79 a2 b8 f0 00 00 00 00	ldxdw r2, [r10 - 3912]
    4658:	79 21 08 00 00 00 00 00	ldxdw r1, [r2 + 8]
    4659:	07 01 00 00 ff ff ff ff	add64 r1, -1
    4660:	7b 12 08 00 00 00 00 00	stxdw [r2 + 8], r1
    4661:	79 a2 d8 f0 00 00 00 00	ldxdw r2, [r10 - 3880]
    4662:	79 21 00 00 00 00 00 00	ldxdw r1, [r2 + 0]
    4663:	07 01 00 00 ff ff ff ff	add64 r1, -1
    4664:	7b 12 00 00 00 00 00 00	stxdw [r2 + 0], r1
    4665:	55 01 b5 ff 00 00 00 00	jne r1, 0, -75 <.text+0x8e58>
    4666:	79 a2 d8 f0 00 00 00 00	ldxdw r2, [r10 - 3880]
    4667:	79 21 08 00 00 00 00 00	ldxdw r1, [r2 + 8]
    4668:	07 01 00 00 ff ff ff ff	add64 r1, -1
    4669:	7b 12 08 00 00 00 00 00	stxdw [r2 + 8], r1
    4670:	05 00 b0 ff 00 00 00 00	ja -80 <.text+0x8e58>
    4671:	bf a1 00 00 00 00 00 00	mov64 r1, r10
    4672:	07 01 00 00 d0 ff ff ff	add64 r1, -48
    4673:	7b 1a a8 f0 00 00 00 00	stxdw [r10 - 3928], r1
    4674:	bf a2 00 00 00 00 00 00	mov64 r2, r10
    4675:	07 02 00 00 98 fe ff ff	add64 r2, -360
    4676:	b7 03 00 00 30 00 00 00	mov64 r3, 48
    4677:	85 10 00 00 54 35 00 00	call 13652
    4678:	bf a1 00 00 00 00 00 00	mov64 r1, r10
    4679:	07 01 00 00 d8 fd ff ff	add64 r1, -552
    4680:	b7 02 00 00 19 00 00 00	mov64 r2, 25
    4681:	b7 03 00 00 19 00 00 00	mov64 r3, 25
    4682:	85 10 00 00 b6 1d 00 00	call 7606
    4683:	79 a1 18 f2 00 00 00 00	ldxdw r1, [r10 - 3560]
    4684:	79 a8 e0 f0 00 00 00 00	ldxdw r8, [r10 - 3872]
    4685:	7b 18 a8 00 00 00 00 00	stxdw [r8 + 168], r1
    4686:	79 a1 10 f2 00 00 00 00	ldxdw r1, [r10 - 3568]
    4687:	7b 18 a0 00 00 00 00 00	stxdw [r8 + 160], r1
    4688:	79 a1 08 f2 00 00 00 00	ldxdw r1, [r10 - 3576]
    4689:	7b 18 98 00 00 00 00 00	stxdw [r8 + 152], r1
    4690:	bf 81 00 00 00 00 00 00	mov64 r1, r8
    4691:	07 01 00 00 b0 00 00 00	add64 r1, 176
    4692:	bf a2 00 00 00 00 00 00	mov64 r2, r10
    4693:	07 02 00 00 f8 f0 ff ff	add64 r2, -3848
    4694:	b7 03 00 00 30 00 00 00	mov64 r3, 48
    4695:	85 10 00 00 42 35 00 00	call 13634
    4696:	79 a1 20 fd 00 00 00 00	ldxdw r1, [r10 - 736]
    4697:	7b 18 f8 00 00 00 00 00	stxdw [r8 + 248], r1
    4698:	79 a1 28 fd 00 00 00 00	ldxdw r1, [r10 - 728]
    4699:	7b 18 00 01 00 00 00 00	stxdw [r8 + 256], r1
    4700:	79 a1 30 fd 00 00 00 00	ldxdw r1, [r10 - 720]
    4701:	7b 18 08 01 00 00 00 00	stxdw [r8 + 264], r1
    4702:	79 a1 e0 f9 00 00 00 00	ldxdw r1, [r10 - 1568]
    4703:	7b 18 28 01 00 00 00 00	stxdw [r8 + 296], r1
    4704:	79 a1 e8 f9 00 00 00 00	ldxdw r1, [r10 - 1560]
    4705:	7b 18 30 01 00 00 00 00	stxdw [r8 + 304], r1
    4706:	79 a1 f0 f9 00 00 00 00	ldxdw r1, [r10 - 1552]
    4707:	7b 18 38 01 00 00 00 00	stxdw [r8 + 312], r1
    4708:	bf 81 00 00 00 00 00 00	mov64 r1, r8
    4709:	07 01 00 00 70 01 00 00	add64 r1, 368
    4710:	bf a2 00 00 00 00 00 00	mov64 r2, r10
    4711:	07 02 00 00 28 f1 ff ff	add64 r2, -3800
    4712:	b7 03 00 00 30 00 00 00	mov64 r3, 48
    4713:	85 10 00 00 30 35 00 00	call 13616
    4714:	bf 81 00 00 00 00 00 00	mov64 r1, r8
    4715:	07 01 00 00 58 02 00 00	add64 r1, 600
    4716:	bf a2 00 00 00 00 00 00	mov64 r2, r10
    4717:	07 02 00 00 b0 f4 ff ff	add64 r2, -2896
    4718:	b7 03 00 00 c8 00 00 00	mov64 r3, 200
    4719:	85 10 00 00 2a 35 00 00	call 13610
    4720:	bf 81 00 00 00 00 00 00	mov64 r1, r8
    4721:	07 01 00 00 4b 03 00 00	add64 r1, 843
    4722:	bf a2 00 00 00 00 00 00	mov64 r2, r10
    4723:	07 02 00 00 68 f8 ff ff	add64 r2, -1944
    4724:	b7 03 00 00 b5 00 00 00	mov64 r3, 181
    4725:	85 10 00 00 24 35 00 00	call 13604
    4726:	71 a1 5c f1 00 00 00 00	ldxb r1, [r10 - 3748]
    4727:	73 18 cf 01 00 00 00 00	stxb [r8 + 463], r1
    4728:	61 a1 58 f1 00 00 00 00	ldxw r1, [r10 - 3752]
    4729:	63 18 cb 01 00 00 00 00	stxw [r8 + 459], r1
    4730:	61 a1 60 f1 00 00 00 00	ldxw r1, [r10 - 3744]
    4731:	63 18 fb 01 00 00 00 00	stxw [r8 + 507], r1
    4732:	71 a1 64 f1 00 00 00 00	ldxb r1, [r10 - 3740]
    4733:	73 18 ff 01 00 00 00 00	stxb [r8 + 511], r1
    4734:	71 a1 6c f1 00 00 00 00	ldxb r1, [r10 - 3732]
    4735:	73 18 2f 02 00 00 00 00	stxb [r8 + 559], r1
    4736:	61 a1 68 f1 00 00 00 00	ldxw r1, [r10 - 3736]
    4737:	63 18 2b 02 00 00 00 00	stxw [r8 + 555], r1
    4738:	bf a6 00 00 00 00 00 00	mov64 r6, r10
    4739:	07 06 00 00 88 fb ff ff	add64 r6, -1144
    4740:	bf a2 00 00 00 00 00 00	mov64 r2, r10
    4741:	07 02 00 00 70 f1 ff ff	add64 r2, -3728
    4742:	bf 61 00 00 00 00 00 00	mov64 r1, r6
    4743:	b7 03 00 00 40 00 00 00	mov64 r3, 64
    4744:	85 10 00 00 11 35 00 00	call 13585
    4745:	bf a1 00 00 00 00 00 00	mov64 r1, r10
    4746:	07 01 00 00 c8 fb ff ff	add64 r1, -1080
    4747:	bf a2 00 00 00 00 00 00	mov64 r2, r10
    4748:	07 02 00 00 b0 f1 ff ff	add64 r2, -3664
    4749:	b7 03 00 00 40 00 00 00	mov64 r3, 64
    4750:	85 10 00 00 0b 35 00 00	call 13579
    4751:	bf 81 00 00 00 00 00 00	mov64 r1, r8
    4752:	bf 62 00 00 00 00 00 00	mov64 r2, r6
    4753:	b7 03 00 00 80 00 00 00	mov64 r3, 128
    4754:	85 10 00 00 07 35 00 00	call 13575
    4755:	79 a1 b0 f0 00 00 00 00	ldxdw r1, [r10 - 3920]
    4756:	7b 18 20 01 00 00 00 00	stxdw [r8 + 288], r1
    4757:	79 a1 80 ef 00 00 00 00	ldxdw r1, [r10 - 4224]
    4758:	7b 18 18 01 00 00 00 00	stxdw [r8 + 280], r1
    4759:	79 a1 78 ef 00 00 00 00	ldxdw r1, [r10 - 4232]
    4760:	7b 18 10 01 00 00 00 00	stxdw [r8 + 272], r1
    4761:	79 a1 d8 f0 00 00 00 00	ldxdw r1, [r10 - 3880]
    4762:	7b 18 f0 00 00 00 00 00	stxdw [r8 + 240], r1
    4763:	79 a1 b8 f0 00 00 00 00	ldxdw r1, [r10 - 3912]
    4764:	7b 18 e8 00 00 00 00 00	stxdw [r8 + 232], r1
    4765:	79 a1 88 ef 00 00 00 00	ldxdw r1, [r10 - 4216]
    4766:	7b 18 e0 00 00 00 00 00	stxdw [r8 + 224], r1
    4767:	79 a1 c0 f0 00 00 00 00	ldxdw r1, [r10 - 3904]
    4768:	7b 18 90 00 00 00 00 00	stxdw [r8 + 144], r1
    4769:	79 a1 e0 ef 00 00 00 00	ldxdw r1, [r10 - 4128]
    4770:	7b 18 88 00 00 00 00 00	stxdw [r8 + 136], r1
    4771:	79 a1 d8 ef 00 00 00 00	ldxdw r1, [r10 - 4136]
    4772:	7b 18 80 00 00 00 00 00	stxdw [r8 + 128], r1
    4773:	bf 81 00 00 00 00 00 00	mov64 r1, r8
    4774:	07 01 00 00 40 01 00 00	add64 r1, 320
    4775:	79 a2 a8 f0 00 00 00 00	ldxdw r2, [r10 - 3928]
    4776:	b7 03 00 00 30 00 00 00	mov64 r3, 48
    4777:	85 10 00 00 f0 34 00 00	call 13552
    4778:	79 a1 98 ef 00 00 00 00	ldxdw r1, [r10 - 4200]
    4779:	73 18 4a 03 00 00 00 00	stxb [r8 + 842], r1
    4780:	79 a1 a0 ef 00 00 00 00	ldxdw r1, [r10 - 4192]
    4781:	73 18 49 03 00 00 00 00	stxb [r8 + 841], r1
    4782:	79 a1 a8 ef 00 00 00 00	ldxdw r1, [r10 - 4184]
    4783:	73 18 48 03 00 00 00 00	stxb [r8 + 840], r1
    4784:	79 a1 b0 ef 00 00 00 00	ldxdw r1, [r10 - 4176]
    4785:	7b 18 40 03 00 00 00 00	stxdw [r8 + 832], r1
    4786:	79 a1 b8 ef 00 00 00 00	ldxdw r1, [r10 - 4168]
    4787:	7b 18 38 03 00 00 00 00	stxdw [r8 + 824], r1
    4788:	7b 98 30 03 00 00 00 00	stxdw [r8 + 816], r9
    4789:	7b 78 28 03 00 00 00 00	stxdw [r8 + 808], r7
    4790:	79 a1 58 f0 00 00 00 00	ldxdw r1, [r10 - 4008]
    4791:	7b 18 20 03 00 00 00 00	stxdw [r8 + 800], r1
    4792:	79 a1 d0 ef 00 00 00 00	ldxdw r1, [r10 - 4144]
    4793:	7b 18 50 02 00 00 00 00	stxdw [r8 + 592], r1
    4794:	79 a1 c8 ef 00 00 00 00	ldxdw r1, [r10 - 4152]
    4795:	7b 18 48 02 00 00 00 00	stxdw [r8 + 584], r1
    4796:	79 a1 c0 ef 00 00 00 00	ldxdw r1, [r10 - 4160]
    4797:	7b 18 40 02 00 00 00 00	stxdw [r8 + 576], r1
    4798:	79 a1 c8 f0 00 00 00 00	ldxdw r1, [r10 - 3896]
    4799:	7b 18 38 02 00 00 00 00	stxdw [r8 + 568], r1
    4800:	79 a1 d0 f0 00 00 00 00	ldxdw r1, [r10 - 3888]
    4801:	7b 18 30 02 00 00 00 00	stxdw [r8 + 560], r1
    4802:	79 a1 f0 ef 00 00 00 00	ldxdw r1, [r10 - 4112]
    4803:	73 18 2a 02 00 00 00 00	stxb [r8 + 554], r1
    4804:	79 a1 f8 ef 00 00 00 00	ldxdw r1, [r10 - 4104]
    4805:	73 18 29 02 00 00 00 00	stxb [r8 + 553], r1
    4806:	79 a1 00 f0 00 00 00 00	ldxdw r1, [r10 - 4096]
    4807:	73 18 28 02 00 00 00 00	stxb [r8 + 552], r1
    4808:	79 a1 08 f0 00 00 00 00	ldxdw r1, [r10 - 4088]
    4809:	7b 18 20 02 00 00 00 00	stxdw [r8 + 544], r1
    4810:	79 a1 10 f0 00 00 00 00	ldxdw r1, [r10 - 4080]
    4811:	7b 18 18 02 00 00 00 00	stxdw [r8 + 536], r1
    4812:	79 a1 48 f0 00 00 00 00	ldxdw r1, [r10 - 4024]
    4813:	7b 18 10 02 00 00 00 00	stxdw [r8 + 528], r1
    4814:	79 a1 50 f0 00 00 00 00	ldxdw r1, [r10 - 4016]
    4815:	7b 18 08 02 00 00 00 00	stxdw [r8 + 520], r1
    4816:	79 a1 e8 ef 00 00 00 00	ldxdw r1, [r10 - 4120]
    4817:	7b 18 00 02 00 00 00 00	stxdw [r8 + 512], r1
    4818:	79 a1 18 f0 00 00 00 00	ldxdw r1, [r10 - 4072]
    4819:	73 18 fa 01 00 00 00 00	stxb [r8 + 506], r1
    4820:	79 a1 20 f0 00 00 00 00	ldxdw r1, [r10 - 4064]
    4821:	73 18 f9 01 00 00 00 00	stxb [r8 + 505], r1
    4822:	79 a1 28 f0 00 00 00 00	ldxdw r1, [r10 - 4056]
    4823:	73 18 f8 01 00 00 00 00	stxb [r8 + 504], r1
    4824:	79 a1 30 f0 00 00 00 00	ldxdw r1, [r10 - 4048]
    4825:	7b 18 f0 01 00 00 00 00	stxdw [r8 + 496], r1
    4826:	79 a1 38 f0 00 00 00 00	ldxdw r1, [r10 - 4040]
    4827:	7b 18 e8 01 00 00 00 00	stxdw [r8 + 488], r1
    4828:	79 a1 98 f0 00 00 00 00	ldxdw r1, [r10 - 3944]
    4829:	7b 18 e0 01 00 00 00 00	stxdw [r8 + 480], r1
    4830:	79 a1 90 f0 00 00 00 00	ldxdw r1, [r10 - 3952]
    4831:	7b 18 d8 01 00 00 00 00	stxdw [r8 + 472], r1
    4832:	79 a1 40 f0 00 00 00 00	ldxdw r1, [r10 - 4032]
    4833:	7b 18 d0 01 00 00 00 00	stxdw [r8 + 464], r1
    4834:	79 a1 60 f0 00 00 00 00	ldxdw r1, [r10 - 4000]
    4835:	73 18 ca 01 00 00 00 00	stxb [r8 + 458], r1
    4836:	79 a1 68 f0 00 00 00 00	ldxdw r1, [r10 - 3992]
    4837:	73 18 c9 01 00 00 00 00	stxb [r8 + 457], r1
    4838:	79 a1 70 f0 00 00 00 00	ldxdw r1, [r10 - 3984]
    4839:	73 18 c8 01 00 00 00 00	stxb [r8 + 456], r1
    4840:	79 a1 78 f0 00 00 00 00	ldxdw r1, [r10 - 3976]
    4841:	7b 18 c0 01 00 00 00 00	stxdw [r8 + 448], r1
    4842:	79 a1 80 f0 00 00 00 00	ldxdw r1, [r10 - 3968]
    4843:	7b 18 b8 01 00 00 00 00	stxdw [r8 + 440], r1
    4844:	79 a1 90 ef 00 00 00 00	ldxdw r1, [r10 - 4208]
    4845:	7b 18 b0 01 00 00 00 00	stxdw [r8 + 432], r1
    4846:	79 a1 a0 f0 00 00 00 00	ldxdw r1, [r10 - 3936]
    4847:	7b 18 a8 01 00 00 00 00	stxdw [r8 + 424], r1
    4848:	79 a1 88 f0 00 00 00 00	ldxdw r1, [r10 - 3960]
    4849:	7b 18 a0 01 00 00 00 00	stxdw [r8 + 416], r1
    4850:	05 00 d0 fb 00 00 00 00	ja -1072 <.text+0x74f8>
    4851:	bf 56 00 00 00 00 00 00	mov64 r6, r5
    4852:	7b 4a 40 f7 00 00 00 00	stxdw [r10 - 2240], r4
    4853:	7b 3a 48 f7 00 00 00 00	stxdw [r10 - 2232], r3
    4854:	7b 2a 58 f7 00 00 00 00	stxdw [r10 - 2216], r2
    4855:	7b 1a 50 f7 00 00 00 00	stxdw [r10 - 2224], r1
    4856:	18 01 00 00 5d 55 02 00 00 00 00 00 00 00 00 00	lddw r1, 152925
    4858:	b7 02 00 00 19 00 00 00	mov64 r2, 25
    4859:	85 10 00 00 ff ff ff ff	call -1
    4860:	79 64 00 f0 00 00 00 00	ldxdw r4, [r6 - 4096]
    4861:	79 62 08 f0 00 00 00 00	ldxdw r2, [r6 - 4088]
    4862:	b7 01 00 00 04 00 00 00	mov64 r1, 4
    4863:	7b 2a 68 f7 00 00 00 00	stxdw [r10 - 2200], r2
    4864:	7b 4a 60 f7 00 00 00 00	stxdw [r10 - 2208], r4
    4865:	2d 21 97 00 00 00 00 00	jgt r1, r2, +151 <.text+0x9ba8>
    4866:	b7 02 00 00 01 00 00 00	mov64 r2, 1
    4867:	b7 08 00 00 00 00 00 00	mov64 r8, 0
    4868:	61 45 00 00 00 00 00 00	ldxw r5, [r4 + 0]
    4869:	b7 07 00 00 00 00 00 00	mov64 r7, 0
    4870:	15 05 99 00 00 00 00 00	jeq r5, 0, +153 <.text+0x9be0>
    4871:	b7 01 00 00 00 00 10 00	mov64 r1, 1048576
    4872:	bf 57 00 00 00 00 00 00	mov64 r7, r5
    4873:	2d 51 01 00 00 00 00 00	jgt r1, r5, +1 <.text+0x9738>
    4874:	b7 07 00 00 00 00 10 00	mov64 r7, 1048576
    4875:	18 01 00 00 00 00 00 00 00 00 00 00 03 00 00 00	lddw r1, 12884901888
    4877:	79 11 00 00 00 00 00 00	ldxdw r1, [r1 + 0]
    4878:	18 02 00 00 00 80 00 00 00 00 00 00 03 00 00 00	lddw r2, 12884934656
    4880:	15 01 01 00 00 00 00 00	jeq r1, 0, +1 <.text+0x9770>
    4881:	bf 12 00 00 00 00 00 00	mov64 r2, r1
    4882:	bf 21 00 00 00 00 00 00	mov64 r1, r2
    4883:	1f 71 00 00 00 00 00 00	sub64 r1, r7
    4884:	b7 03 00 00 01 00 00 00	mov64 r3, 1
    4885:	2d 21 01 00 00 00 00 00	jgt r1, r2, +1 <.text+0x9798>
    4886:	b7 03 00 00 00 00 00 00	mov64 r3, 0
    4887:	55 03 01 00 00 00 00 00	jne r3, 0, +1 <.text+0x97a8>
    4888:	bf 18 00 00 00 00 00 00	mov64 r8, r1
    4889:	7b 5a 70 f7 00 00 00 00	stxdw [r10 - 2192], r5
    4890:	18 01 00 00 08 00 00 00 00 00 00 00 03 00 00 00	lddw r1, 12884901896
    4892:	2d 81 d7 02 00 00 00 00	jgt r1, r8, +727 <.text+0xae80>
    4893:	79 a6 68 f7 00 00 00 00	ldxdw r6, [r10 - 2200]
    4894:	07 06 00 00 fc ff ff ff	add64 r6, -4
    4895:	bf 49 00 00 00 00 00 00	mov64 r9, r4
    4896:	07 09 00 00 04 00 00 00	add64 r9, 4
    4897:	18 01 00 00 00 00 00 00 00 00 00 00 03 00 00 00	lddw r1, 12884901888
    4899:	7b 81 00 00 00 00 00 00	stxdw [r1 + 0], r8
    4900:	bf 81 00 00 00 00 00 00	mov64 r1, r8
    4901:	b7 02 00 00 00 00 00 00	mov64 r2, 0
    4902:	bf 73 00 00 00 00 00 00	mov64 r3, r7
    4903:	85 10 00 00 d7 34 00 00	call 13527
    4904:	bf 95 00 00 00 00 00 00	mov64 r5, r9
    4905:	bf 64 00 00 00 00 00 00	mov64 r4, r6
    4906:	7b 7a c0 fb 00 00 00 00	stxdw [r10 - 1088], r7
    4907:	7b 7a b8 fb 00 00 00 00	stxdw [r10 - 1096], r7
    4908:	7b 8a 80 f7 00 00 00 00	stxdw [r10 - 2176], r8
    4909:	7b 8a b0 fb 00 00 00 00	stxdw [r10 - 1104], r8
    4910:	b7 09 00 00 00 00 00 00	mov64 r9, 0
    4911:	79 a3 70 f7 00 00 00 00	ldxdw r3, [r10 - 2192]
    4912:	05 00 06 00 00 00 00 00	ja +6 <.text+0x9898>
    4913:	57 02 00 00 01 00 00 00	and64 r2, 1
    4914:	79 a3 70 f7 00 00 00 00	ldxdw r3, [r10 - 2192]
    4915:	55 02 ac 02 00 00 00 00	jne r2, 0, +684 <.text+0xade0>
    4916:	bf 19 00 00 00 00 00 00	mov64 r9, r1
    4917:	2d 13 01 00 00 00 00 00	jgt r3, r1, +1 <.text+0x9898>
    4918:	05 00 66 00 00 00 00 00	ja +102 <.text+0x9bc8>
    4919:	1d 79 1a 00 00 00 00 00	jeq r9, r7, +26 <.text+0x9970>
    4920:	3d 97 06 00 00 00 00 00	jge r7, r9, +6 <.text+0x98d8>
    4921:	bf 91 00 00 00 00 00 00	mov64 r1, r9
    4922:	bf 72 00 00 00 00 00 00	mov64 r2, r7
    4923:	18 03 00 00 48 7a 02 00 00 00 00 00 00 00 00 00	lddw r3, 162376
    4925:	85 10 00 00 f6 2c 00 00	call 11510
    4926:	85 10 00 00 ff ff ff ff	call -1
    4927:	bf 78 00 00 00 00 00 00	mov64 r8, r7
    4928:	1f 98 00 00 00 00 00 00	sub64 r8, r9
    4929:	2d 84 01 00 00 00 00 00	jgt r4, r8, +1 <.text+0x98f8>
    4930:	bf 48 00 00 00 00 00 00	mov64 r8, r4
    4931:	79 a1 b0 fb 00 00 00 00	ldxdw r1, [r10 - 1104]
    4932:	7b 1a 80 f7 00 00 00 00	stxdw [r10 - 2176], r1
    4933:	0f 91 00 00 00 00 00 00	add64 r1, r9
    4934:	55 08 39 00 01 00 00 00	jne r8, 1, +57 <.text+0x9ae0>
    4935:	1d 97 9f 02 00 00 00 00	jeq r7, r9, +671 <.text+0xae18>
    4936:	71 52 00 00 00 00 00 00	ldxb r2, [r5 + 0]
    4937:	73 21 00 00 00 00 00 00	stxb [r1 + 0], r2
    4938:	07 05 00 00 01 00 00 00	add64 r5, 1
    4939:	07 04 00 00 ff ff ff ff	add64 r4, -1
    4940:	bf 91 00 00 00 00 00 00	mov64 r1, r9
    4941:	0f 81 00 00 00 00 00 00	add64 r1, r8
    4942:	b7 02 00 00 01 00 00 00	mov64 r2, 1
    4943:	2d 19 e1 ff 00 00 00 00	jgt r9, r1, -31 <.text+0x9868>
    4944:	b7 02 00 00 00 00 00 00	mov64 r2, 0
    4945:	05 00 df ff 00 00 00 00	ja -33 <.text+0x9868>
    4946:	79 a2 80 f7 00 00 00 00	ldxdw r2, [r10 - 2176]
    4947:	bf 76 00 00 00 00 00 00	mov64 r6, r7
    4948:	67 06 00 00 01 00 00 00	lsh64 r6, 1
    4949:	65 07 01 00 ff ff ff ff	jsgt r7, -1, +1 <.text+0x9998>
    4950:	b7 06 00 00 ff ff ff ff	mov64 r6, -1
    4951:	7b 7a 78 f7 00 00 00 00	stxdw [r10 - 2184], r7
    4952:	2d 63 01 00 00 00 00 00	jgt r3, r6, +1 <.text+0x99b0>
    4953:	bf 36 00 00 00 00 00 00	mov64 r6, r3
    4954:	bf 67 00 00 00 00 00 00	mov64 r7, r6
    4955:	79 a3 78 f7 00 00 00 00	ldxdw r3, [r10 - 2184]
    4956:	3d 63 3a 00 00 00 00 00	jge r3, r6, +58 <.text+0x9b98>
    4957:	bf 68 00 00 00 00 00 00	mov64 r8, r6
    4958:	1f 38 00 00 00 00 00 00	sub64 r8, r3
    4959:	79 a1 b8 fb 00 00 00 00	ldxdw r1, [r10 - 1096]
    4960:	1f 31 00 00 00 00 00 00	sub64 r1, r3
    4961:	bf 37 00 00 00 00 00 00	mov64 r7, r3
    4962:	3d 81 0b 00 00 00 00 00	jge r1, r8, +11 <.text+0x9a50>
    4963:	bf a1 00 00 00 00 00 00	mov64 r1, r10
    4964:	07 01 00 00 b0 fb ff ff	add64 r1, -1104
    4965:	79 a2 78 f7 00 00 00 00	ldxdw r2, [r10 - 2184]
    4966:	bf 83 00 00 00 00 00 00	mov64 r3, r8
    4967:	bf 47 00 00 00 00 00 00	mov64 r7, r4
    4968:	7b 5a 80 f7 00 00 00 00	stxdw [r10 - 2176], r5
    4969:	85 10 00 00 2d f4 ff ff	call -3027
    4970:	79 a5 80 f7 00 00 00 00	ldxdw r5, [r10 - 2176]
    4971:	bf 74 00 00 00 00 00 00	mov64 r4, r7
    4972:	79 a2 b0 fb 00 00 00 00	ldxdw r2, [r10 - 1104]
    4973:	79 a7 c0 fb 00 00 00 00	ldxdw r7, [r10 - 1088]
    4974:	bf 23 00 00 00 00 00 00	mov64 r3, r2
    4975:	bf 31 00 00 00 00 00 00	mov64 r1, r3
    4976:	0f 71 00 00 00 00 00 00	add64 r1, r7
    4977:	b7 02 00 00 02 00 00 00	mov64 r2, 2
    4978:	2d 82 1f 00 00 00 00 00	jgt r2, r8, +31 <.text+0x9b70>
    4979:	07 08 00 00 ff ff ff ff	add64 r8, -1
    4980:	b7 02 00 00 00 00 00 00	mov64 r2, 0
    4981:	bf 36 00 00 00 00 00 00	mov64 r6, r3
    4982:	bf 83 00 00 00 00 00 00	mov64 r3, r8
    4983:	7b 4a 78 f7 00 00 00 00	stxdw [r10 - 2184], r4
    4984:	7b 5a 80 f7 00 00 00 00	stxdw [r10 - 2176], r5
    4985:	85 10 00 00 85 34 00 00	call 13445
    4986:	79 a5 80 f7 00 00 00 00	ldxdw r5, [r10 - 2176]
    4987:	79 a4 78 f7 00 00 00 00	ldxdw r4, [r10 - 2184]
    4988:	0f 87 00 00 00 00 00 00	add64 r7, r8
    4989:	0f 76 00 00 00 00 00 00	add64 r6, r7
    4990:	bf 61 00 00 00 00 00 00	mov64 r1, r6
    4991:	05 00 14 00 00 00 00 00	ja +20 <.text+0x9b80>
    4992:	bf 52 00 00 00 00 00 00	mov64 r2, r5
    4993:	bf 83 00 00 00 00 00 00	mov64 r3, r8
    4994:	7b 4a 78 f7 00 00 00 00	stxdw [r10 - 2184], r4
    4995:	bf 56 00 00 00 00 00 00	mov64 r6, r5
    4996:	85 10 00 00 15 34 00 00	call 13333
    4997:	bf 65 00 00 00 00 00 00	mov64 r5, r6
    4998:	79 a4 78 f7 00 00 00 00	ldxdw r4, [r10 - 2184]
    4999:	0f 85 00 00 00 00 00 00	add64 r5, r8
    5000:	1f 84 00 00 00 00 00 00	sub64 r4, r8
    5001:	55 08 c2 ff 00 00 00 00	jne r8, 0, -62 <.text+0x9940>
    5002:	18 01 00 00 00 00 00 00 00 00 00 00 03 00 00 00	lddw r1, 12884901888
    5004:	79 11 00 00 00 00 00 00	ldxdw r1, [r1 + 0]
    5005:	18 03 00 00 00 80 00 00 00 00 00 00 03 00 00 00	lddw r3, 12884934656
    5007:	15 01 6b 00 00 00 00 00	jeq r1, 0, +107 <.text+0x9eb8>
    5008:	bf 13 00 00 00 00 00 00	mov64 r3, r1
    5009:	05 00 69 00 00 00 00 00	ja +105 <.text+0x9eb8>
    5010:	79 a2 78 f7 00 00 00 00	ldxdw r2, [r10 - 2184]
    5011:	1d 26 03 00 00 00 00 00	jeq r6, r2, +3 <.text+0x9b98>
    5012:	b7 02 00 00 00 00 00 00	mov64 r2, 0
    5013:	73 21 00 00 00 00 00 00	stxb [r1 + 0], r2
    5014:	07 07 00 00 01 00 00 00	add64 r7, 1
    5015:	7b 7a c0 fb 00 00 00 00	stxdw [r10 - 1088], r7
    5016:	05 00 9f ff 00 00 00 00	ja -97 <.text+0x98a0>
    5017:	18 01 00 00 80 79 02 00 00 00 00 00 00 00 00 00	lddw r1, 162176
    5019:	85 10 00 00 81 1f 00 00	call 8065
    5020:	05 00 9b 00 00 00 00 00	ja +155 <.text+0xa0a0>
    5021:	79 a8 b8 fb 00 00 00 00	ldxdw r8, [r10 - 1096]
    5022:	79 a4 60 f7 00 00 00 00	ldxdw r4, [r10 - 2208]
    5023:	79 a2 80 f7 00 00 00 00	ldxdw r2, [r10 - 2176]
    5024:	bf a1 00 00 00 00 00 00	mov64 r1, r10
    5025:	07 01 00 00 b0 fb ff ff	add64 r1, -1104
    5026:	bf 26 00 00 00 00 00 00	mov64 r6, r2
    5027:	bf 73 00 00 00 00 00 00	mov64 r3, r7
    5028:	85 10 00 00 e3 2c 00 00	call 11491
    5029:	79 a1 b0 fb 00 00 00 00	ldxdw r1, [r10 - 1104]
    5030:	55 01 01 00 00 00 00 00	jne r1, 0, +1 <.text+0x9c20>
    5031:	05 00 92 00 00 00 00 00	ja +146 <.text+0xa0b0>
    5032:	61 a1 c1 fb 00 00 00 00	ldxw r1, [r10 - 1087]
    5033:	63 1a 88 f7 00 00 00 00	stxw [r10 - 2168], r1
    5034:	61 a1 c4 fb 00 00 00 00	ldxw r1, [r10 - 1084]
    5035:	63 1a 8b f7 00 00 00 00	stxw [r10 - 2165], r1
    5036:	71 a1 c0 fb 00 00 00 00	ldxb r1, [r10 - 1088]
    5037:	79 a9 58 f7 00 00 00 00	ldxdw r9, [r10 - 2216]
    5038:	15 01 8c 00 02 00 00 00	jeq r1, 2, +140 <.text+0xa0b8>
    5039:	79 a2 b8 fb 00 00 00 00	ldxdw r2, [r10 - 1096]
    5040:	73 1a d0 f7 00 00 00 00	stxb [r10 - 2096], r1
    5041:	7b 2a c8 f7 00 00 00 00	stxdw [r10 - 2104], r2
    5042:	7b 7a c0 f7 00 00 00 00	stxdw [r10 - 2112], r7
    5043:	7b 8a b8 f7 00 00 00 00	stxdw [r10 - 2120], r8
    5044:	7b 6a b0 f7 00 00 00 00	stxdw [r10 - 2128], r6
    5045:	61 a1 88 f7 00 00 00 00	ldxw r1, [r10 - 2168]
    5046:	63 1a d1 f7 00 00 00 00	stxw [r10 - 2095], r1
    5047:	61 a1 8b f7 00 00 00 00	ldxw r1, [r10 - 2165]
    5048:	63 1a d4 f7 00 00 00 00	stxw [r10 - 2092], r1
    5049:	b7 01 00 00 01 00 00 00	mov64 r1, 1
    5050:	7b 1a b0 ff 00 00 00 00	stxdw [r10 - 80], r1
    5051:	b7 01 00 00 00 00 00 00	mov64 r1, 0
    5052:	7b 1a b8 ff 00 00 00 00	stxdw [r10 - 72], r1
    5053:	7b 1a c0 ff 00 00 00 00	stxdw [r10 - 64], r1
    5054:	bf a6 00 00 00 00 00 00	mov64 r6, r10
    5055:	07 06 00 00 b0 fb ff ff	add64 r6, -1104
    5056:	bf a2 00 00 00 00 00 00	mov64 r2, r10
    5057:	07 02 00 00 b0 ff ff ff	add64 r2, -80
    5058:	bf 61 00 00 00 00 00 00	mov64 r1, r6
    5059:	18 03 00 00 b0 79 02 00 00 00 00 00 00 00 00 00	lddw r3, 162224
    5061:	85 10 00 00 5f 28 00 00	call 10335
    5062:	bf a1 00 00 00 00 00 00	mov64 r1, r10
    5063:	07 01 00 00 b0 f7 ff ff	add64 r1, -2128
    5064:	bf 62 00 00 00 00 00 00	mov64 r2, r6
    5065:	85 10 00 00 a0 23 00 00	call 9120
    5066:	15 00 0b 00 00 00 00 00	jeq r0, 0, +11 <.text+0x9d90>
    5067:	bf a3 00 00 00 00 00 00	mov64 r3, r10
    5068:	07 03 00 00 e8 ff ff ff	add64 r3, -24
    5069:	18 01 00 00 01 52 02 00 00 00 00 00 00 00 00 00	lddw r1, 152065
    5071:	b7 02 00 00 37 00 00 00	mov64 r2, 55
    5072:	18 04 00 00 e0 79 02 00 00 00 00 00 00 00 00 00	lddw r4, 162272
    5074:	18 05 00 00 00 7a 02 00 00 00 00 00 00 00 00 00	lddw r5, 162304
    5076:	85 10 00 00 c0 25 00 00	call 9664
    5077:	85 10 00 00 ff ff ff ff	call -1
    5078:	79 a1 c0 ff 00 00 00 00	ldxdw r1, [r10 - 64]
    5079:	7b 1a f8 ff 00 00 00 00	stxdw [r10 - 8], r1
    5080:	79 a1 b8 ff 00 00 00 00	ldxdw r1, [r10 - 72]
    5081:	7b 1a f0 ff 00 00 00 00	stxdw [r10 - 16], r1
    5082:	79 a1 b0 ff 00 00 00 00	ldxdw r1, [r10 - 80]
    5083:	7b 1a e8 ff 00 00 00 00	stxdw [r10 - 24], r1
    5084:	18 01 00 00 00 00 00 00 00 00 00 00 03 00 00 00	lddw r1, 12884901888
    5086:	79 11 00 00 00 00 00 00	ldxdw r1, [r1 + 0]
    5087:	18 03 00 00 00 80 00 00 00 00 00 00 03 00 00 00	lddw r3, 12884934656
    5089:	15 01 01 00 00 00 00 00	jeq r1, 0, +1 <.text+0x9df8>
    5090:	bf 13 00 00 00 00 00 00	mov64 r3, r1
    5091:	b7 02 00 00 00 00 00 00	mov64 r2, 0
    5092:	b7 04 00 00 01 00 00 00	mov64 r4, 1
    5093:	bf 31 00 00 00 00 00 00	mov64 r1, r3
    5094:	07 01 00 00 e8 ff ff ff	add64 r1, -24
    5095:	2d 31 01 00 00 00 00 00	jgt r1, r3, +1 <.text+0x9e28>
    5096:	b7 04 00 00 00 00 00 00	mov64 r4, 0
    5097:	55 04 01 00 00 00 00 00	jne r4, 0, +1 <.text+0x9e38>
    5098:	bf 12 00 00 00 00 00 00	mov64 r2, r1
    5099:	57 02 00 00 f8 ff ff ff	and64 r2, -8
    5100:	18 01 00 00 07 00 00 00 00 00 00 00 03 00 00 00	lddw r1, 12884901895
    5102:	2d 12 01 00 00 00 00 00	jgt r2, r1, +1 <.text+0x9e60>
    5103:	05 00 39 00 00 00 00 00	ja +57 <.text+0xa028>
    5104:	18 01 00 00 00 00 00 00 00 00 00 00 03 00 00 00	lddw r1, 12884901888
    5106:	7b 21 00 00 00 00 00 00	stxdw [r1 + 0], r2
    5107:	79 a1 f8 ff 00 00 00 00	ldxdw r1, [r10 - 8]
    5108:	7b 12 10 00 00 00 00 00	stxdw [r2 + 16], r1
    5109:	79 a1 f0 ff 00 00 00 00	ldxdw r1, [r10 - 16]
    5110:	7b 12 08 00 00 00 00 00	stxdw [r2 + 8], r1
    5111:	79 a1 e8 ff 00 00 00 00	ldxdw r1, [r10 - 24]
    5112:	7b 12 00 00 00 00 00 00	stxdw [r2 + 0], r1
    5113:	b7 01 00 00 15 00 00 00	mov64 r1, 21
    5114:	05 00 3a 00 00 00 00 00	ja +58 <.text+0xa088>
    5115:	bf 32 00 00 00 00 00 00	mov64 r2, r3
    5116:	07 02 00 00 e6 ff ff ff	add64 r2, -26
    5117:	b7 01 00 00 00 00 00 00	mov64 r1, 0
    5118:	b7 04 00 00 01 00 00 00	mov64 r4, 1
    5119:	2d 32 01 00 00 00 00 00	jgt r2, r3, +1 <.text+0x9ee8>
    5120:	b7 04 00 00 00 00 00 00	mov64 r4, 0
    5121:	55 04 01 00 00 00 00 00	jne r4, 0, +1 <.text+0x9ef8>
    5122:	bf 21 00 00 00 00 00 00	mov64 r1, r2
    5123:	18 02 00 00 07 00 00 00 00 00 00 00 03 00 00 00	lddw r2, 12884901895
    5125:	2d 21 04 00 00 00 00 00	jgt r1, r2, +4 <.text+0x9f30>
    5126:	b7 01 00 00 01 00 00 00	mov64 r1, 1
    5127:	b7 02 00 00 1a 00 00 00	mov64 r2, 26
    5128:	85 10 00 00 87 22 00 00	call 8839
    5129:	85 10 00 00 ff ff ff ff	call -1
    5130:	18 02 00 00 00 00 00 00 00 00 00 00 03 00 00 00	lddw r2, 12884901888
    5132:	7b 12 00 00 00 00 00 00	stxdw [r2 + 0], r1
    5133:	b7 03 00 00 75 74 00 00	mov64 r3, 29813
    5134:	6b 31 18 00 00 00 00 00	stxh [r1 + 24], r3
    5135:	18 03 00 00 68 20 6f 66 00 00 00 00 20 69 6e 70	lddw r3, 8101528367564529768
    5137:	7b 31 10 00 00 00 00 00	stxdw [r1 + 16], r3
    5138:	18 03 00 00 65 64 20 6c 00 00 00 00 65 6e 67 74	lddw r3, 8387794212885652581
    5140:	7b 31 08 00 00 00 00 00	stxdw [r1 + 8], r3
    5141:	18 03 00 00 55 6e 65 78 00 00 00 00 70 65 63 74	lddw r3, 8386658464824651349
    5143:	7b 31 00 00 00 00 00 00	stxdw [r1 + 0], r3
    5144:	79 22 00 00 00 00 00 00	ldxdw r2, [r2 + 0]
    5145:	18 04 00 00 00 80 00 00 00 00 00 00 03 00 00 00	lddw r4, 12884934656
    5147:	15 02 01 00 00 00 00 00	jeq r2, 0, +1 <.text+0x9fc8>
    5148:	bf 24 00 00 00 00 00 00	mov64 r4, r2
    5149:	bf 43 00 00 00 00 00 00	mov64 r3, r4
    5150:	07 03 00 00 e8 ff ff ff	add64 r3, -24
    5151:	b7 02 00 00 00 00 00 00	mov64 r2, 0
    5152:	b7 05 00 00 01 00 00 00	mov64 r5, 1
    5153:	2d 43 01 00 00 00 00 00	jgt r3, r4, +1 <.text+0x9ff8>
    5154:	b7 05 00 00 00 00 00 00	mov64 r5, 0
    5155:	55 05 01 00 00 00 00 00	jne r5, 0, +1 <.text+0xa008>
    5156:	bf 32 00 00 00 00 00 00	mov64 r2, r3
    5157:	57 02 00 00 f8 ff ff ff	and64 r2, -8
    5158:	18 03 00 00 07 00 00 00 00 00 00 00 03 00 00 00	lddw r3, 12884901895
    5160:	2d 32 04 00 00 00 00 00	jgt r2, r3, +4 <.text+0xa048>
    5161:	b7 01 00 00 08 00 00 00	mov64 r1, 8
    5162:	b7 02 00 00 18 00 00 00	mov64 r2, 24
    5163:	85 10 00 00 64 22 00 00	call 8804
    5164:	85 10 00 00 ff ff ff ff	call -1
    5165:	18 03 00 00 00 00 00 00 00 00 00 00 03 00 00 00	lddw r3, 12884901888
    5167:	7b 23 00 00 00 00 00 00	stxdw [r3 + 0], r2
    5168:	b7 03 00 00 1a 00 00 00	mov64 r3, 26
    5169:	7b 32 10 00 00 00 00 00	stxdw [r2 + 16], r3
    5170:	7b 32 08 00 00 00 00 00	stxdw [r2 + 8], r3
    5171:	7b 12 00 00 00 00 00 00	stxdw [r2 + 0], r1
    5172:	b7 01 00 00 14 00 00 00	mov64 r1, 20
    5173:	18 03 00 00 28 79 02 00 00 00 00 00 00 00 00 00	lddw r3, 162088
    5175:	85 10 00 00 03 20 00 00	call 8195
    5176:	bf 08 00 00 00 00 00 00	mov64 r8, r0
    5177:	b7 06 00 00 00 00 00 00	mov64 r6, 0
    5178:	79 a9 58 f7 00 00 00 00	ldxdw r9, [r10 - 2216]
    5179:	b7 01 00 00 00 00 00 00	mov64 r1, 0
    5180:	7b 1a 98 f7 00 00 00 00	stxdw [r10 - 2152], r1
    5181:	7b 1a 88 f7 00 00 00 00	stxdw [r10 - 2168], r1
    5182:	79 a2 40 f7 00 00 00 00	ldxdw r2, [r10 - 2240]
    5183:	7b 2a a8 f7 00 00 00 00	stxdw [r10 - 2136], r2
    5184:	79 a2 48 f7 00 00 00 00	ldxdw r2, [r10 - 2232]
    5185:	7b 2a a0 f7 00 00 00 00	stxdw [r10 - 2144], r2
    5186:	7b 1a f8 ff 00 00 00 00	stxdw [r10 - 8], r1
    5187:	7b 1a e8 ff 00 00 00 00	stxdw [r10 - 24], r1
    5188:	bf a1 00 00 00 00 00 00	mov64 r1, r10
    5189:	07 01 00 00 88 f7 ff ff	add64 r1, -2168
    5190:	7b 1a 08 f0 00 00 00 00	stxdw [r10 - 4088], r1
    5191:	bf a1 00 00 00 00 00 00	mov64 r1, r10
    5192:	07 01 00 00 e8 ff ff ff	add64 r1, -24
    5193:	7b 1a 10 f0 00 00 00 00	stxdw [r10 - 4080], r1
    5194:	79 a1 68 f7 00 00 00 00	ldxdw r1, [r10 - 2200]
    5195:	7b 1a 00 f0 00 00 00 00	stxdw [r10 - 4096], r1
    5196:	bf a1 00 00 00 00 00 00	mov64 r1, r10
    5197:	07 01 00 00 b0 f7 ff ff	add64 r1, -2128
    5198:	bf a3 00 00 00 00 00 00	mov64 r3, r10
    5199:	07 03 00 00 a0 f7 ff ff	add64 r3, -2144
    5200:	bf a5 00 00 00 00 00 00	mov64 r5, r10
    5201:	bf 92 00 00 00 00 00 00	mov64 r2, r9
    5202:	79 a4 60 f7 00 00 00 00	ldxdw r4, [r10 - 2208]
    5203:	85 10 00 00 bd f4 ff ff	call -2883
    5204:	18 01 00 00 76 55 02 00 00 00 00 00 00 00 00 00	lddw r1, 152950
    5206:	b7 02 00 00 0e 00 00 00	mov64 r2, 14
    5207:	85 10 00 00 ff ff ff ff	call -1
    5208:	61 a7 88 fb 00 00 00 00	ldxw r7, [r10 - 1144]
    5209:	15 07 29 01 02 00 00 00	jeq r7, 2, +297 <.text+0xaaf8>
    5210:	7b 8a 80 f7 00 00 00 00	stxdw [r10 - 2176], r8
    5211:	bf 68 00 00 00 00 00 00	mov64 r8, r6
    5212:	bf a1 00 00 00 00 00 00	mov64 r1, r10
    5213:	07 01 00 00 8c ff ff ff	add64 r1, -116
    5214:	bf a2 00 00 00 00 00 00	mov64 r2, r10
    5215:	07 02 00 00 8c fb ff ff	add64 r2, -1140
    5216:	b7 03 00 00 24 00 00 00	mov64 r3, 36
    5217:	85 10 00 00 38 33 00 00	call 13112
    5218:	bf a6 00 00 00 00 00 00	mov64 r6, r10
    5219:	07 06 00 00 b0 fb ff ff	add64 r6, -1104
    5220:	bf a2 00 00 00 00 00 00	mov64 r2, r10
    5221:	07 02 00 00 b0 f7 ff ff	add64 r2, -2128
    5222:	bf 61 00 00 00 00 00 00	mov64 r1, r6
    5223:	b7 03 00 00 d8 03 00 00	mov64 r3, 984
    5224:	85 10 00 00 31 33 00 00	call 13105
    5225:	63 7a 88 ff 00 00 00 00	stxw [r10 - 120], r7
    5226:	18 01 00 00 84 55 02 00 00 00 00 00 00 00 00 00	lddw r1, 152964
    5228:	b7 02 00 00 12 00 00 00	mov64 r2, 18
    5229:	85 10 00 00 ff ff ff ff	call -1
    5230:	79 a1 88 f7 00 00 00 00	ldxdw r1, [r10 - 2168]
    5231:	7b 1a d0 ff 00 00 00 00	stxdw [r10 - 48], r1
    5232:	79 a1 90 f7 00 00 00 00	ldxdw r1, [r10 - 2160]
    5233:	7b 1a d8 ff 00 00 00 00	stxdw [r10 - 40], r1
    5234:	79 a1 98 f7 00 00 00 00	ldxdw r1, [r10 - 2152]
    5235:	7b 1a e0 ff 00 00 00 00	stxdw [r10 - 32], r1
    5236:	79 a1 a8 f7 00 00 00 00	ldxdw r1, [r10 - 2136]
    5237:	7b 1a c8 ff 00 00 00 00	stxdw [r10 - 56], r1
    5238:	79 a1 a0 f7 00 00 00 00	ldxdw r1, [r10 - 2144]
    5239:	7b 1a c0 ff 00 00 00 00	stxdw [r10 - 64], r1
    5240:	7b 6a b8 ff 00 00 00 00	stxdw [r10 - 72], r6
    5241:	7b 9a b0 ff 00 00 00 00	stxdw [r10 - 80], r9
    5242:	b7 01 00 00 04 00 00 00	mov64 r1, 4
    5243:	79 a2 50 f7 00 00 00 00	ldxdw r2, [r10 - 2224]
    5244:	7b 12 00 00 00 00 00 00	stxdw [r2 + 0], r1
    5245:	bf a1 00 00 00 00 00 00	mov64 r1, r10
    5246:	07 01 00 00 d0 ff ff ff	add64 r1, -48
    5247:	85 10 00 00 3c ee ff ff	call -4548
    5248:	79 a1 40 fc 00 00 00 00	ldxdw r1, [r10 - 960]
    5249:	79 a2 38 fc 00 00 00 00	ldxdw r2, [r10 - 968]
    5250:	79 23 00 00 00 00 00 00	ldxdw r3, [r2 + 0]
    5251:	07 03 00 00 ff ff ff ff	add64 r3, -1
    5252:	7b 32 00 00 00 00 00 00	stxdw [r2 + 0], r3
    5253:	55 03 03 00 00 00 00 00	jne r3, 0, +3 <.text+0xa328>
    5254:	79 23 08 00 00 00 00 00	ldxdw r3, [r2 + 8]
    5255:	07 03 00 00 ff ff ff ff	add64 r3, -1
    5256:	7b 32 08 00 00 00 00 00	stxdw [r2 + 8], r3
    5257:	79 12 00 00 00 00 00 00	ldxdw r2, [r1 + 0]
    5258:	07 02 00 00 ff ff ff ff	add64 r2, -1
    5259:	7b 21 00 00 00 00 00 00	stxdw [r1 + 0], r2
    5260:	55 02 03 00 00 00 00 00	jne r2, 0, +3 <.text+0xa360>
    5261:	79 12 08 00 00 00 00 00	ldxdw r2, [r1 + 8]
    5262:	07 02 00 00 ff ff ff ff	add64 r2, -1
    5263:	7b 21 08 00 00 00 00 00	stxdw [r1 + 8], r2
    5264:	79 a1 70 fc 00 00 00 00	ldxdw r1, [r10 - 912]
    5265:	79 a2 68 fc 00 00 00 00	ldxdw r2, [r10 - 920]
    5266:	79 23 00 00 00 00 00 00	ldxdw r3, [r2 + 0]
    5267:	07 03 00 00 ff ff ff ff	add64 r3, -1
    5268:	7b 32 00 00 00 00 00 00	stxdw [r2 + 0], r3
    5269:	bf 86 00 00 00 00 00 00	mov64 r6, r8
    5270:	55 03 03 00 00 00 00 00	jne r3, 0, +3 <.text+0xa3b0>
    5271:	79 23 08 00 00 00 00 00	ldxdw r3, [r2 + 8]
    5272:	07 03 00 00 ff ff ff ff	add64 r3, -1
    5273:	7b 32 08 00 00 00 00 00	stxdw [r2 + 8], r3
    5274:	79 12 00 00 00 00 00 00	ldxdw r2, [r1 + 0]
    5275:	07 02 00 00 ff ff ff ff	add64 r2, -1
    5276:	7b 21 00 00 00 00 00 00	stxdw [r1 + 0], r2
    5277:	79 a7 80 f7 00 00 00 00	ldxdw r7, [r10 - 2176]
    5278:	55 02 03 00 00 00 00 00	jne r2, 0, +3 <.text+0xa3f0>
    5279:	79 12 08 00 00 00 00 00	ldxdw r2, [r1 + 8]
    5280:	07 02 00 00 ff ff ff ff	add64 r2, -1
    5281:	7b 21 08 00 00 00 00 00	stxdw [r1 + 8], r2
    5282:	79 a1 a0 fc 00 00 00 00	ldxdw r1, [r10 - 864]
    5283:	79 a2 98 fc 00 00 00 00	ldxdw r2, [r10 - 872]
    5284:	79 23 00 00 00 00 00 00	ldxdw r3, [r2 + 0]
    5285:	07 03 00 00 ff ff ff ff	add64 r3, -1
    5286:	7b 32 00 00 00 00 00 00	stxdw [r2 + 0], r3
    5287:	55 03 03 00 00 00 00 00	jne r3, 0, +3 <.text+0xa438>
    5288:	79 23 08 00 00 00 00 00	ldxdw r3, [r2 + 8]
    5289:	07 03 00 00 ff ff ff ff	add64 r3, -1
    5290:	7b 32 08 00 00 00 00 00	stxdw [r2 + 8], r3
    5291:	79 12 00 00 00 00 00 00	ldxdw r2, [r1 + 0]
    5292:	07 02 00 00 ff ff ff ff	add64 r2, -1
    5293:	7b 21 00 00 00 00 00 00	stxdw [r1 + 0], r2
    5294:	55 02 03 00 00 00 00 00	jne r2, 0, +3 <.text+0xa470>
    5295:	79 12 08 00 00 00 00 00	ldxdw r2, [r1 + 8]
    5296:	07 02 00 00 ff ff ff ff	add64 r2, -1
    5297:	7b 21 08 00 00 00 00 00	stxdw [r1 + 8], r2
    5298:	79 a1 d0 fc 00 00 00 00	ldxdw r1, [r10 - 816]
    5299:	79 a2 c8 fc 00 00 00 00	ldxdw r2, [r10 - 824]
    5300:	79 23 00 00 00 00 00 00	ldxdw r3, [r2 + 0]
    5301:	07 03 00 00 ff ff ff ff	add64 r3, -1
    5302:	7b 32 00 00 00 00 00 00	stxdw [r2 + 0], r3
    5303:	55 03 03 00 00 00 00 00	jne r3, 0, +3 <.text+0xa4b8>
    5304:	79 23 08 00 00 00 00 00	ldxdw r3, [r2 + 8]
    5305:	07 03 00 00 ff ff ff ff	add64 r3, -1
    5306:	7b 32 08 00 00 00 00 00	stxdw [r2 + 8], r3
    5307:	79 12 00 00 00 00 00 00	ldxdw r2, [r1 + 0]
    5308:	07 02 00 00 ff ff ff ff	add64 r2, -1
    5309:	7b 21 00 00 00 00 00 00	stxdw [r1 + 0], r2
    5310:	55 02 03 00 00 00 00 00	jne r2, 0, +3 <.text+0xa4f0>
    5311:	79 12 08 00 00 00 00 00	ldxdw r2, [r1 + 8]
    5312:	07 02 00 00 ff ff ff ff	add64 r2, -1
    5313:	7b 21 08 00 00 00 00 00	stxdw [r1 + 8], r2
    5314:	79 a1 00 fd 00 00 00 00	ldxdw r1, [r10 - 768]
    5315:	79 a2 f8 fc 00 00 00 00	ldxdw r2, [r10 - 776]
    5316:	79 23 00 00 00 00 00 00	ldxdw r3, [r2 + 0]
    5317:	07 03 00 00 ff ff ff ff	add64 r3, -1
    5318:	7b 32 00 00 00 00 00 00	stxdw [r2 + 0], r3
    5319:	55 03 03 00 00 00 00 00	jne r3, 0, +3 <.text+0xa538>
    5320:	79 23 08 00 00 00 00 00	ldxdw r3, [r2 + 8]
    5321:	07 03 00 00 ff ff ff ff	add64 r3, -1
    5322:	7b 32 08 00 00 00 00 00	stxdw [r2 + 8], r3
    5323:	79 12 00 00 00 00 00 00	ldxdw r2, [r1 + 0]
    5324:	07 02 00 00 ff ff ff ff	add64 r2, -1
    5325:	7b 21 00 00 00 00 00 00	stxdw [r1 + 0], r2
    5326:	55 02 03 00 00 00 00 00	jne r2, 0, +3 <.text+0xa570>
    5327:	79 12 08 00 00 00 00 00	ldxdw r2, [r1 + 8]
    5328:	07 02 00 00 ff ff ff ff	add64 r2, -1
    5329:	7b 21 08 00 00 00 00 00	stxdw [r1 + 8], r2
    5330:	79 a1 30 fd 00 00 00 00	ldxdw r1, [r10 - 720]
    5331:	79 a2 28 fd 00 00 00 00	ldxdw r2, [r10 - 728]
    5332:	79 23 00 00 00 00 00 00	ldxdw r3, [r2 + 0]
    5333:	07 03 00 00 ff ff ff ff	add64 r3, -1
    5334:	7b 32 00 00 00 00 00 00	stxdw [r2 + 0], r3
    5335:	55 03 03 00 00 00 00 00	jne r3, 0, +3 <.text+0xa5b8>
    5336:	79 23 08 00 00 00 00 00	ldxdw r3, [r2 + 8]
    5337:	07 03 00 00 ff ff ff ff	add64 r3, -1
    5338:	7b 32 08 00 00 00 00 00	stxdw [r2 + 8], r3
    5339:	79 12 00 00 00 00 00 00	ldxdw r2, [r1 + 0]
    5340:	07 02 00 00 ff ff ff ff	add64 r2, -1
    5341:	7b 21 00 00 00 00 00 00	stxdw [r1 + 0], r2
    5342:	55 02 03 00 00 00 00 00	jne r2, 0, +3 <.text+0xa5f0>
    5343:	79 12 08 00 00 00 00 00	ldxdw r2, [r1 + 8]
    5344:	07 02 00 00 ff ff ff ff	add64 r2, -1
    5345:	7b 21 08 00 00 00 00 00	stxdw [r1 + 8], r2
    5346:	79 a1 00 fe 00 00 00 00	ldxdw r1, [r10 - 512]
    5347:	79 a2 f8 fd 00 00 00 00	ldxdw r2, [r10 - 520]
    5348:	79 23 00 00 00 00 00 00	ldxdw r3, [r2 + 0]
    5349:	07 03 00 00 ff ff ff ff	add64 r3, -1
    5350:	7b 32 00 00 00 00 00 00	stxdw [r2 + 0], r3
    5351:	55 03 03 00 00 00 00 00	jne r3, 0, +3 <.text+0xa638>
    5352:	79 23 08 00 00 00 00 00	ldxdw r3, [r2 + 8]
    5353:	07 03 00 00 ff ff ff ff	add64 r3, -1
    5354:	7b 32 08 00 00 00 00 00	stxdw [r2 + 8], r3
    5355:	79 12 00 00 00 00 00 00	ldxdw r2, [r1 + 0]
    5356:	07 02 00 00 ff ff ff ff	add64 r2, -1
    5357:	7b 21 00 00 00 00 00 00	stxdw [r1 + 0], r2
    5358:	55 02 03 00 00 00 00 00	jne r2, 0, +3 <.text+0xa670>
    5359:	79 12 08 00 00 00 00 00	ldxdw r2, [r1 + 8]
    5360:	07 02 00 00 ff ff ff ff	add64 r2, -1
    5361:	7b 21 08 00 00 00 00 00	stxdw [r1 + 8], r2
    5362:	79 a1 e0 fe 00 00 00 00	ldxdw r1, [r10 - 288]
    5363:	79 a2 d8 fe 00 00 00 00	ldxdw r2, [r10 - 296]
    5364:	79 23 00 00 00 00 00 00	ldxdw r3, [r2 + 0]
    5365:	07 03 00 00 ff ff ff ff	add64 r3, -1
    5366:	7b 32 00 00 00 00 00 00	stxdw [r2 + 0], r3
    5367:	55 03 03 00 00 00 00 00	jne r3, 0, +3 <.text+0xa6b8>
    5368:	79 23 08 00 00 00 00 00	ldxdw r3, [r2 + 8]
    5369:	07 03 00 00 ff ff ff ff	add64 r3, -1
    5370:	7b 32 08 00 00 00 00 00	stxdw [r2 + 8], r3
    5371:	79 12 00 00 00 00 00 00	ldxdw r2, [r1 + 0]
    5372:	07 02 00 00 ff ff ff ff	add64 r2, -1
    5373:	7b 21 00 00 00 00 00 00	stxdw [r1 + 0], r2
    5374:	55 02 03 00 00 00 00 00	jne r2, 0, +3 <.text+0xa6f0>
    5375:	79 12 08 00 00 00 00 00	ldxdw r2, [r1 + 8]
    5376:	07 02 00 00 ff ff ff ff	add64 r2, -1
    5377:	7b 21 08 00 00 00 00 00	stxdw [r1 + 8], r2
    5378:	79 a2 e0 fd 00 00 00 00	ldxdw r2, [r10 - 544]
    5379:	79 21 68 00 00 00 00 00	ldxdw r1, [r2 + 104]
    5380:	79 22 60 00 00 00 00 00	ldxdw r2, [r2 + 96]
    5381:	79 23 00 00 00 00 00 00	ldxdw r3, [r2 + 0]
    5382:	07 03 00 00 ff ff ff ff	add64 r3, -1
    5383:	7b 32 00 00 00 00 00 00	stxdw [r2 + 0], r3
    5384:	55 03 03 00 00 00 00 00	jne r3, 0, +3 <.text+0xa740>
    5385:	79 23 08 00 00 00 00 00	ldxdw r3, [r2 + 8]
    5386:	07 03 00 00 ff ff ff ff	add64 r3, -1
    5387:	7b 32 08 00 00 00 00 00	stxdw [r2 + 8], r3
    5388:	79 12 00 00 00 00 00 00	ldxdw r2, [r1 + 0]
    5389:	07 02 00 00 ff ff ff ff	add64 r2, -1
    5390:	7b 21 00 00 00 00 00 00	stxdw [r1 + 0], r2
    5391:	55 02 03 00 00 00 00 00	jne r2, 0, +3 <.text+0xa778>
    5392:	79 12 08 00 00 00 00 00	ldxdw r2, [r1 + 8]
    5393:	07 02 00 00 ff ff ff ff	add64 r2, -1
    5394:	7b 21 08 00 00 00 00 00	stxdw [r1 + 8], r2
    5395:	79 a2 e8 fd 00 00 00 00	ldxdw r2, [r10 - 536]
    5396:	79 21 68 00 00 00 00 00	ldxdw r1, [r2 + 104]
    5397:	79 22 60 00 00 00 00 00	ldxdw r2, [r2 + 96]
    5398:	79 23 00 00 00 00 00 00	ldxdw r3, [r2 + 0]
    5399:	07 03 00 00 ff ff ff ff	add64 r3, -1
    5400:	7b 32 00 00 00 00 00 00	stxdw [r2 + 0], r3
    5401:	55 03 03 00 00 00 00 00	jne r3, 0, +3 <.text+0xa7c8>
    5402:	79 23 08 00 00 00 00 00	ldxdw r3, [r2 + 8]
    5403:	07 03 00 00 ff ff ff ff	add64 r3, -1
    5404:	7b 32 08 00 00 00 00 00	stxdw [r2 + 8], r3
    5405:	79 12 00 00 00 00 00 00	ldxdw r2, [r1 + 0]
    5406:	07 02 00 00 ff ff ff ff	add64 r2, -1
    5407:	7b 21 00 00 00 00 00 00	stxdw [r1 + 0], r2
    5408:	55 02 03 00 00 00 00 00	jne r2, 0, +3 <.text+0xa800>
    5409:	79 12 08 00 00 00 00 00	ldxdw r2, [r1 + 8]
    5410:	07 02 00 00 ff ff ff ff	add64 r2, -1
    5411:	7b 21 08 00 00 00 00 00	stxdw [r1 + 8], r2
    5412:	79 a1 60 fd 00 00 00 00	ldxdw r1, [r10 - 672]
    5413:	79 a2 58 fd 00 00 00 00	ldxdw r2, [r10 - 680]
    5414:	79 23 00 00 00 00 00 00	ldxdw r3, [r2 + 0]
    5415:	07 03 00 00 ff ff ff ff	add64 r3, -1
    5416:	7b 32 00 00 00 00 00 00	stxdw [r2 + 0], r3
    5417:	55 03 03 00 00 00 00 00	jne r3, 0, +3 <.text+0xa848>
    5418:	79 23 08 00 00 00 00 00	ldxdw r3, [r2 + 8]
    5419:	07 03 00 00 ff ff ff ff	add64 r3, -1
    5420:	7b 32 08 00 00 00 00 00	stxdw [r2 + 8], r3
    5421:	79 12 00 00 00 00 00 00	ldxdw r2, [r1 + 0]
    5422:	07 02 00 00 ff ff ff ff	add64 r2, -1
    5423:	7b 21 00 00 00 00 00 00	stxdw [r1 + 0], r2
    5424:	55 02 03 00 00 00 00 00	jne r2, 0, +3 <.text+0xa880>
    5425:	79 12 08 00 00 00 00 00	ldxdw r2, [r1 + 8]
    5426:	07 02 00 00 ff ff ff ff	add64 r2, -1
    5427:	7b 21 08 00 00 00 00 00	stxdw [r1 + 8], r2
    5428:	79 a1 90 fd 00 00 00 00	ldxdw r1, [r10 - 624]
    5429:	79 a2 88 fd 00 00 00 00	ldxdw r2, [r10 - 632]
    5430:	79 23 00 00 00 00 00 00	ldxdw r3, [r2 + 0]
    5431:	07 03 00 00 ff ff ff ff	add64 r3, -1
    5432:	7b 32 00 00 00 00 00 00	stxdw [r2 + 0], r3
    5433:	55 03 03 00 00 00 00 00	jne r3, 0, +3 <.text+0xa8c8>
    5434:	79 23 08 00 00 00 00 00	ldxdw r3, [r2 + 8]
    5435:	07 03 00 00 ff ff ff ff	add64 r3, -1
    5436:	7b 32 08 00 00 00 00 00	stxdw [r2 + 8], r3
    5437:	79 12 00 00 00 00 00 00	ldxdw r2, [r1 + 0]
    5438:	07 02 00 00 ff ff ff ff	add64 r2, -1
    5439:	7b 21 00 00 00 00 00 00	stxdw [r1 + 0], r2
    5440:	55 02 03 00 00 00 00 00	jne r2, 0, +3 <.text+0xa900>
    5441:	79 12 08 00 00 00 00 00	ldxdw r2, [r1 + 8]
    5442:	07 02 00 00 ff ff ff ff	add64 r2, -1
    5443:	7b 21 08 00 00 00 00 00	stxdw [r1 + 8], r2
    5444:	79 a1 c0 fd 00 00 00 00	ldxdw r1, [r10 - 576]
    5445:	79 a2 b8 fd 00 00 00 00	ldxdw r2, [r10 - 584]
    5446:	79 23 00 00 00 00 00 00	ldxdw r3, [r2 + 0]
    5447:	07 03 00 00 ff ff ff ff	add64 r3, -1
    5448:	7b 32 00 00 00 00 00 00	stxdw [r2 + 0], r3
    5449:	55 03 03 00 00 00 00 00	jne r3, 0, +3 <.text+0xa948>
    5450:	79 23 08 00 00 00 00 00	ldxdw r3, [r2 + 8]
    5451:	07 03 00 00 ff ff ff ff	add64 r3, -1
    5452:	7b 32 08 00 00 00 00 00	stxdw [r2 + 8], r3
    5453:	79 12 00 00 00 00 00 00	ldxdw r2, [r1 + 0]
    5454:	07 02 00 00 ff ff ff ff	add64 r2, -1
    5455:	7b 21 00 00 00 00 00 00	stxdw [r1 + 0], r2
    5456:	55 02 03 00 00 00 00 00	jne r2, 0, +3 <.text+0xa980>
    5457:	79 12 08 00 00 00 00 00	ldxdw r2, [r1 + 8]
    5458:	07 02 00 00 ff ff ff ff	add64 r2, -1
    5459:	7b 21 08 00 00 00 00 00	stxdw [r1 + 8], r2
    5460:	79 a1 e8 ff 00 00 00 00	ldxdw r1, [r10 - 24]
    5461:	15 01 68 00 00 00 00 00	jeq r1, 0, +104 <.text+0xacd0>
    5462:	79 a3 f0 ff 00 00 00 00	ldxdw r3, [r10 - 16]
    5463:	79 a2 f8 ff 00 00 00 00	ldxdw r2, [r10 - 8]
    5464:	15 02 5e 00 00 00 00 00	jeq r2, 0, +94 <.text+0xac98>
    5465:	bf 10 00 00 00 00 00 00	mov64 r0, r1
    5466:	b7 01 00 00 00 00 00 00	mov64 r1, 0
    5467:	05 00 03 00 00 00 00 00	ja +3 <.text+0xa9d8>
    5468:	07 02 00 00 ff ff ff ff	add64 r2, -1
    5469:	b7 00 00 00 00 00 00 00	mov64 r0, 0
    5470:	15 02 5c 00 00 00 00 00	jeq r2, 0, +92 <.text+0xacb8>
    5471:	bf 35 00 00 00 00 00 00	mov64 r5, r3
    5472:	bf 04 00 00 00 00 00 00	mov64 r4, r0
    5473:	55 01 09 00 00 00 00 00	jne r1, 0, +9 <.text+0xaa38>
    5474:	b7 05 00 00 00 00 00 00	mov64 r5, 0
    5475:	b7 04 00 00 00 00 00 00	mov64 r4, 0
    5476:	bf 01 00 00 00 00 00 00	mov64 r1, r0
    5477:	15 03 05 00 00 00 00 00	jeq r3, 0, +5 <.text+0xaa38>
    5478:	bf 01 00 00 00 00 00 00	mov64 r1, r0
    5479:	79 11 70 01 00 00 00 00	ldxdw r1, [r1 + 368]
    5480:	07 03 00 00 ff ff ff ff	add64 r3, -1
    5481:	b7 04 00 00 00 00 00 00	mov64 r4, 0
    5482:	55 03 fc ff 00 00 00 00	jne r3, 0, -4 <.text+0xaa18>
    5483:	69 13 6a 01 00 00 00 00	ldxh r3, [r1 + 362]
    5484:	2d 53 09 00 00 00 00 00	jgt r3, r5, +9 <.text+0xaa90>
    5485:	79 13 60 01 00 00 00 00	ldxdw r3, [r1 + 352]
    5486:	15 03 7e 00 00 00 00 00	jeq r3, 0, +126 <.text+0xae48>
    5487:	07 04 00 00 01 00 00 00	add64 r4, 1
    5488:	69 15 68 01 00 00 00 00	ldxh r5, [r1 + 360]
    5489:	69 30 6a 01 00 00 00 00	ldxh r0, [r3 + 362]
    5490:	bf 31 00 00 00 00 00 00	mov64 r1, r3
    5491:	2d 50 01 00 00 00 00 00	jgt r0, r5, +1 <.text+0xaa88>
    5492:	05 00 f8 ff 00 00 00 00	ja -8 <.text+0xaa48>
    5493:	bf 31 00 00 00 00 00 00	mov64 r1, r3
    5494:	07 05 00 00 01 00 00 00	add64 r5, 1
    5495:	bf 53 00 00 00 00 00 00	mov64 r3, r5
    5496:	15 04 e3 ff 00 00 00 00	jeq r4, 0, -29 <.text+0xa9c0>
    5497:	67 05 00 00 03 00 00 00	lsh64 r5, 3
    5498:	0f 51 00 00 00 00 00 00	add64 r1, r5
    5499:	b7 03 00 00 00 00 00 00	mov64 r3, 0
    5500:	79 11 70 01 00 00 00 00	ldxdw r1, [r1 + 368]
    5501:	07 04 00 00 ff ff ff ff	add64 r4, -1
    5502:	15 04 dd ff 00 00 00 00	jeq r4, 0, -35 <.text+0xa9c0>
    5503:	79 11 70 01 00 00 00 00	ldxdw r1, [r1 + 368]
    5504:	07 04 00 00 ff ff ff ff	add64 r4, -1
    5505:	15 04 da ff 00 00 00 00	jeq r4, 0, -38 <.text+0xa9c0>
    5506:	05 00 fc ff 00 00 00 00	ja -4 <.text+0xaad8>
    5507:	bf a2 00 00 00 00 00 00	mov64 r2, r10
    5508:	07 02 00 00 b0 f7 ff ff	add64 r2, -2128
    5509:	79 a1 50 f7 00 00 00 00	ldxdw r1, [r10 - 2224]
    5510:	b7 03 00 00 a0 00 00 00	mov64 r3, 160
    5511:	85 10 00 00 12 32 00 00	call 12818
    5512:	79 a1 e8 ff 00 00 00 00	ldxdw r1, [r10 - 24]
    5513:	15 01 46 00 00 00 00 00	jeq r1, 0, +70 <.text+0xad60>
    5514:	79 a3 f0 ff 00 00 00 00	ldxdw r3, [r10 - 16]
    5515:	79 a2 f8 ff 00 00 00 00	ldxdw r2, [r10 - 8]
    5516:	15 02 3c 00 00 00 00 00	jeq r2, 0, +60 <.text+0xad28>
    5517:	bf 10 00 00 00 00 00 00	mov64 r0, r1
    5518:	b7 01 00 00 00 00 00 00	mov64 r1, 0
    5519:	05 00 03 00 00 00 00 00	ja +3 <.text+0xab78>
    5520:	07 02 00 00 ff ff ff ff	add64 r2, -1
    5521:	b7 00 00 00 00 00 00 00	mov64 r0, 0
    5522:	15 02 3a 00 00 00 00 00	jeq r2, 0, +58 <.text+0xad48>
    5523:	bf 35 00 00 00 00 00 00	mov64 r5, r3
    5524:	bf 04 00 00 00 00 00 00	mov64 r4, r0
    5525:	55 01 09 00 00 00 00 00	jne r1, 0, +9 <.text+0xabd8>
    5526:	b7 05 00 00 00 00 00 00	mov64 r5, 0
    5527:	b7 04 00 00 00 00 00 00	mov64 r4, 0
    5528:	bf 01 00 00 00 00 00 00	mov64 r1, r0
    5529:	15 03 05 00 00 00 00 00	jeq r3, 0, +5 <.text+0xabd8>
    5530:	bf 01 00 00 00 00 00 00	mov64 r1, r0
    5531:	79 11 70 01 00 00 00 00	ldxdw r1, [r1 + 368]
    5532:	07 03 00 00 ff ff ff ff	add64 r3, -1
    5533:	b7 04 00 00 00 00 00 00	mov64 r4, 0
    5534:	55 03 fc ff 00 00 00 00	jne r3, 0, -4 <.text+0xabb8>
    5535:	69 13 6a 01 00 00 00 00	ldxh r3, [r1 + 362]
    5536:	2d 53 09 00 00 00 00 00	jgt r3, r5, +9 <.text+0xac30>
    5537:	79 13 60 01 00 00 00 00	ldxdw r3, [r1 + 352]
    5538:	15 03 4a 00 00 00 00 00	jeq r3, 0, +74 <.text+0xae48>
    5539:	07 04 00 00 01 00 00 00	add64 r4, 1
    5540:	69 15 68 01 00 00 00 00	ldxh r5, [r1 + 360]
    5541:	69 30 6a 01 00 00 00 00	ldxh r0, [r3 + 362]
    5542:	bf 31 00 00 00 00 00 00	mov64 r1, r3
    5543:	2d 50 01 00 00 00 00 00	jgt r0, r5, +1 <.text+0xac28>
    5544:	05 00 f8 ff 00 00 00 00	ja -8 <.text+0xabe8>
    5545:	bf 31 00 00 00 00 00 00	mov64 r1, r3
    5546:	07 05 00 00 01 00 00 00	add64 r5, 1
    5547:	bf 53 00 00 00 00 00 00	mov64 r3, r5
    5548:	15 04 e3 ff 00 00 00 00	jeq r4, 0, -29 <.text+0xab60>
    5549:	67 05 00 00 03 00 00 00	lsh64 r5, 3
    5550:	0f 51 00 00 00 00 00 00	add64 r1, r5
    5551:	b7 03 00 00 00 00 00 00	mov64 r3, 0
    5552:	79 11 70 01 00 00 00 00	ldxdw r1, [r1 + 368]
    5553:	07 04 00 00 ff ff ff ff	add64 r4, -1
    5554:	15 04 dd ff 00 00 00 00	jeq r4, 0, -35 <.text+0xab60>
    5555:	79 11 70 01 00 00 00 00	ldxdw r1, [r1 + 368]
    5556:	07 04 00 00 ff ff ff ff	add64 r4, -1
    5557:	15 04 da ff 00 00 00 00	jeq r4, 0, -38 <.text+0xab60>
    5558:	05 00 fc ff 00 00 00 00	ja -4 <.text+0xac78>
    5559:	15 03 03 00 00 00 00 00	jeq r3, 0, +3 <.text+0xacb8>
    5560:	79 11 70 01 00 00 00 00	ldxdw r1, [r1 + 368]
    5561:	07 03 00 00 ff ff ff ff	add64 r3, -1
    5562:	55 03 fd ff 00 00 00 00	jne r3, 0, -3 <.text+0xaca0>
    5563:	79 11 60 01 00 00 00 00	ldxdw r1, [r1 + 352]
    5564:	15 01 01 00 00 00 00 00	jeq r1, 0, +1 <.text+0xacd0>
    5565:	05 00 fd ff 00 00 00 00	ja -3 <.text+0xacb8>
    5566:	55 06 20 00 00 00 00 00	jne r6, 0, +32 <.text+0xadd8>
    5567:	bf 71 00 00 00 00 00 00	mov64 r1, r7
    5568:	57 01 00 00 03 00 00 00	and64 r1, 3
    5569:	bf 12 00 00 00 00 00 00	mov64 r2, r1
    5570:	07 02 00 00 fe ff ff ff	add64 r2, -2
    5571:	b7 03 00 00 02 00 00 00	mov64 r3, 2
    5572:	2d 23 1a 00 00 00 00 00	jgt r3, r2, +26 <.text+0xadd8>
    5573:	15 01 19 00 00 00 00 00	jeq r1, 0, +25 <.text+0xadd8>
    5574:	79 71 ff ff 00 00 00 00	ldxdw r1, [r7 - 1]
    5575:	79 72 07 00 00 00 00 00	ldxdw r2, [r7 + 7]
    5576:	05 00 14 00 00 00 00 00	ja +20 <.text+0xadc8>
    5577:	15 03 03 00 00 00 00 00	jeq r3, 0, +3 <.text+0xad48>
    5578:	79 11 70 01 00 00 00 00	ldxdw r1, [r1 + 368]
    5579:	07 03 00 00 ff ff ff ff	add64 r3, -1
    5580:	55 03 fd ff 00 00 00 00	jne r3, 0, -3 <.text+0xad30>
    5581:	79 11 60 01 00 00 00 00	ldxdw r1, [r1 + 352]
    5582:	15 01 01 00 00 00 00 00	jeq r1, 0, +1 <.text+0xad60>
    5583:	05 00 fd ff 00 00 00 00	ja -3 <.text+0xad48>
    5584:	bf a1 00 00 00 00 00 00	mov64 r1, r10
    5585:	07 01 00 00 88 f7 ff ff	add64 r1, -2168
    5586:	85 10 00 00 e9 ec ff ff	call -4887
    5587:	55 06 0b 00 00 00 00 00	jne r6, 0, +11 <.text+0xadd8>
    5588:	bf 81 00 00 00 00 00 00	mov64 r1, r8
    5589:	57 01 00 00 03 00 00 00	and64 r1, 3
    5590:	bf 12 00 00 00 00 00 00	mov64 r2, r1
    5591:	07 02 00 00 fe ff ff ff	add64 r2, -2
    5592:	b7 03 00 00 02 00 00 00	mov64 r3, 2
    5593:	2d 23 05 00 00 00 00 00	jgt r3, r2, +5 <.text+0xadd8>
    5594:	15 01 04 00 00 00 00 00	jeq r1, 0, +4 <.text+0xadd8>
    5595:	79 81 ff ff 00 00 00 00	ldxdw r1, [r8 - 1]
    5596:	79 82 07 00 00 00 00 00	ldxdw r2, [r8 + 7]
    5597:	79 22 00 00 00 00 00 00	ldxdw r2, [r2 + 0]
    5598:	8d 00 00 00 02 00 00 00	callx r2
    5599:	95 00 00 00 00 00 00 00	exit
    5600:	18 01 00 00 d0 50 02 00 00 00 00 00 00 00 00 00	lddw r1, 151760
    5602:	b7 02 00 00 1c 00 00 00	mov64 r2, 28
    5603:	18 03 00 00 60 7a 02 00 00 00 00 00 00 00 00 00	lddw r3, 162400
    5605:	85 10 00 00 81 23 00 00	call 9089
    5606:	85 10 00 00 ff ff ff ff	call -1
    5607:	b7 01 00 00 00 00 00 00	mov64 r1, 0
    5608:	b7 02 00 00 00 00 00 00	mov64 r2, 0
    5609:	18 03 00 00 98 79 02 00 00 00 00 00 00 00 00 00	lddw r3, 162200
    5611:	85 10 00 00 8d 23 00 00	call 9101
    5612:	85 10 00 00 ff ff ff ff	call -1
    5613:	18 01 00 00 85 52 02 00 00 00 00 00 00 00 00 00	lddw r1, 152197
    5615:	b7 02 00 00 2b 00 00 00	mov64 r2, 43
    5616:	18 03 00 00 08 7b 02 00 00 00 00 00 00 00 00 00	lddw r3, 162568
    5618:	85 10 00 00 74 23 00 00	call 9076
    5619:	85 10 00 00 ff ff ff ff	call -1
    5620:	b7 01 00 00 01 00 00 00	mov64 r1, 1
    5621:	bf 72 00 00 00 00 00 00	mov64 r2, r7
    5622:	85 10 00 00 99 20 00 00	call 8345
    5623:	85 10 00 00 ff ff ff ff	call -1

000000000000afc0 <entrypoint>:
    5624:	bf 12 00 00 00 00 00 00	mov64 r2, r1
    5625:	bf a1 00 00 00 00 00 00	mov64 r1, r10
    5626:	07 01 00 00 60 ff ff ff	add64 r1, -160
    5627:	85 10 00 00 51 12 00 00	call 4689
    5628:	79 a6 78 ff 00 00 00 00	ldxdw r6, [r10 - 136]
    5629:	79 a7 68 ff 00 00 00 00	ldxdw r7, [r10 - 152]
    5630:	79 a1 88 ff 00 00 00 00	ldxdw r1, [r10 - 120]
    5631:	b7 02 00 00 08 00 00 00	mov64 r2, 8
    5632:	2d 12 11 00 00 00 00 00	jgt r2, r1, +17 <entrypoint+0xd0>
    5633:	79 a3 80 ff 00 00 00 00	ldxdw r3, [r10 - 128]
    5634:	79 a2 60 ff 00 00 00 00	ldxdw r2, [r10 - 160]
    5635:	07 03 00 00 08 00 00 00	add64 r3, 8
    5636:	7b 3a 00 f0 00 00 00 00	stxdw [r10 - 4096], r3
    5637:	07 01 00 00 f8 ff ff ff	add64 r1, -8
    5638:	7b 1a 08 f0 00 00 00 00	stxdw [r10 - 4088], r1
    5639:	bf a1 00 00 00 00 00 00	mov64 r1, r10
    5640:	07 01 00 00 20 fe ff ff	add64 r1, -480
    5641:	bf a5 00 00 00 00 00 00	mov64 r5, r10
    5642:	bf 73 00 00 00 00 00 00	mov64 r3, r7
    5643:	bf 64 00 00 00 00 00 00	mov64 r4, r6
    5644:	85 10 00 00 e6 fc ff ff	call -794
    5645:	18 01 00 00 4a 55 02 00 00 00 00 00 00 00 00 00	lddw r1, 152906
    5647:	b7 02 00 00 13 00 00 00	mov64 r2, 19
    5648:	85 10 00 00 ff ff ff ff	call -1
    5649:	05 00 04 00 00 00 00 00	ja +4 <entrypoint+0xf0>
    5650:	bf a1 00 00 00 00 00 00	mov64 r1, r10
    5651:	07 01 00 00 20 fe ff ff	add64 r1, -480
    5652:	b7 02 00 00 64 00 00 00	mov64 r2, 100
    5653:	85 10 00 00 ac 0e 00 00	call 3756
    5654:	79 a1 20 fe 00 00 00 00	ldxdw r1, [r10 - 480]
    5655:	55 01 02 00 04 00 00 00	jne r1, 4, +2 <entrypoint+0x110>
    5656:	b7 00 00 00 00 00 00 00	mov64 r0, 0
    5657:	05 00 21 00 00 00 00 00	ja +33 <entrypoint+0x218>
    5658:	bf a8 00 00 00 00 00 00	mov64 r8, r10
    5659:	07 08 00 00 c0 fe ff ff	add64 r8, -320
    5660:	bf a2 00 00 00 00 00 00	mov64 r2, r10
    5661:	07 02 00 00 20 fe ff ff	add64 r2, -480
    5662:	bf 81 00 00 00 00 00 00	mov64 r1, r8
    5663:	b7 03 00 00 a0 00 00 00	mov64 r3, 160
    5664:	85 10 00 00 79 31 00 00	call 12665
    5665:	bf 81 00 00 00 00 00 00	mov64 r1, r8
    5666:	85 10 00 00 48 08 00 00	call 2120
    5667:	bf a9 00 00 00 00 00 00	mov64 r9, r10
    5668:	07 09 00 00 60 ff ff ff	add64 r9, -160
    5669:	bf 91 00 00 00 00 00 00	mov64 r1, r9
    5670:	bf 82 00 00 00 00 00 00	mov64 r2, r8
    5671:	b7 03 00 00 a0 00 00 00	mov64 r3, 160
    5672:	85 10 00 00 71 31 00 00	call 12657
    5673:	bf a1 00 00 00 00 00 00	mov64 r1, r10
    5674:	07 01 00 00 e0 fd ff ff	add64 r1, -544
    5675:	bf 92 00 00 00 00 00 00	mov64 r2, r9
    5676:	85 10 00 00 73 0a 00 00	call 2675
    5677:	b7 00 00 00 00 00 00 00	mov64 r0, 0
    5678:	61 a1 e0 fd 00 00 00 00	ldxw r1, [r10 - 544]
    5679:	15 01 0b 00 16 00 00 00	jeq r1, 22, +11 <entrypoint+0x218>
    5680:	79 a1 f8 fd 00 00 00 00	ldxdw r1, [r10 - 520]
    5681:	7b 1a 18 fe 00 00 00 00	stxdw [r10 - 488], r1
    5682:	79 a1 f0 fd 00 00 00 00	ldxdw r1, [r10 - 528]
    5683:	7b 1a 10 fe 00 00 00 00	stxdw [r10 - 496], r1
    5684:	79 a1 e8 fd 00 00 00 00	ldxdw r1, [r10 - 536]
    5685:	7b 1a 08 fe 00 00 00 00	stxdw [r10 - 504], r1
    5686:	79 a1 e0 fd 00 00 00 00	ldxdw r1, [r10 - 544]
    5687:	7b 1a 00 fe 00 00 00 00	stxdw [r10 - 512], r1
    5688:	bf a1 00 00 00 00 00 00	mov64 r1, r10
    5689:	07 01 00 00 00 fe ff ff	add64 r1, -512
    5690:	85 10 00 00 c8 18 00 00	call 6344
    5691:	15 06 05 00 00 00 00 00	jeq r6, 0, +5 <entrypoint+0x248>
    5692:	07 07 00 00 10 00 00 00	add64 r7, 16
    5693:	05 00 04 00 00 00 00 00	ja +4 <entrypoint+0x250>
    5694:	07 07 00 00 30 00 00 00	add64 r7, 48
    5695:	07 06 00 00 ff ff ff ff	add64 r6, -1
    5696:	55 06 01 00 00 00 00 00	jne r6, 0, +1 <entrypoint+0x250>
    5697:	95 00 00 00 00 00 00 00	exit
    5698:	79 71 00 00 00 00 00 00	ldxdw r1, [r7 + 0]
    5699:	79 72 f8 ff 00 00 00 00	ldxdw r2, [r7 - 8]
    5700:	79 23 00 00 00 00 00 00	ldxdw r3, [r2 + 0]
    5701:	07 03 00 00 ff ff ff ff	add64 r3, -1
    5702:	7b 32 00 00 00 00 00 00	stxdw [r2 + 0], r3
    5703:	55 03 03 00 00 00 00 00	jne r3, 0, +3 <entrypoint+0x298>
    5704:	79 23 08 00 00 00 00 00	ldxdw r3, [r2 + 8]
    5705:	07 03 00 00 ff ff ff ff	add64 r3, -1
    5706:	7b 32 08 00 00 00 00 00	stxdw [r2 + 8], r3
    5707:	79 12 00 00 00 00 00 00	ldxdw r2, [r1 + 0]
    5708:	07 02 00 00 ff ff ff ff	add64 r2, -1
    5709:	7b 21 00 00 00 00 00 00	stxdw [r1 + 0], r2
    5710:	55 02 ef ff 00 00 00 00	jne r2, 0, -17 <entrypoint+0x230>
    5711:	79 12 08 00 00 00 00 00	ldxdw r2, [r1 + 8]
    5712:	07 02 00 00 ff ff ff ff	add64 r2, -1
    5713:	7b 21 08 00 00 00 00 00	stxdw [r1 + 8], r2
    5714:	05 00 eb ff 00 00 00 00	ja -21 <entrypoint+0x230>
    5715:	18 03 00 00 00 00 00 00 00 00 00 00 03 00 00 00	lddw r3, 12884901888
    5717:	79 33 00 00 00 00 00 00	ldxdw r3, [r3 + 0]
    5718:	18 04 00 00 00 80 00 00 00 00 00 00 03 00 00 00	lddw r4, 12884934656
    5720:	15 03 01 00 00 00 00 00	jeq r3, 0, +1 <entrypoint+0x310>
    5721:	bf 34 00 00 00 00 00 00	mov64 r4, r3
    5722:	bf 43 00 00 00 00 00 00	mov64 r3, r4
    5723:	1f 13 00 00 00 00 00 00	sub64 r3, r1
    5724:	b7 00 00 00 00 00 00 00	mov64 r0, 0
    5725:	b7 05 00 00 01 00 00 00	mov64 r5, 1
    5726:	2d 43 01 00 00 00 00 00	jgt r3, r4, +1 <entrypoint+0x340>
    5727:	b7 05 00 00 00 00 00 00	mov64 r5, 0
    5728:	b7 01 00 00 00 00 00 00	mov64 r1, 0
    5729:	55 05 01 00 00 00 00 00	jne r5, 0, +1 <entrypoint+0x358>
    5730:	bf 31 00 00 00 00 00 00	mov64 r1, r3
    5731:	87 02 00 00 00 00 00 00	neg64 r2
    5732:	5f 21 00 00 00 00 00 00	and64 r1, r2
    5733:	18 02 00 00 08 00 00 00 00 00 00 00 03 00 00 00	lddw r2, 12884901896
    5735:	2d 12 04 00 00 00 00 00	jgt r2, r1, +4 <entrypoint+0x3a0>
    5736:	18 02 00 00 00 00 00 00 00 00 00 00 03 00 00 00	lddw r2, 12884901888
    5738:	7b 12 00 00 00 00 00 00	stxdw [r2 + 0], r1
    5739:	bf 10 00 00 00 00 00 00	mov64 r0, r1
    5740:	95 00 00 00 00 00 00 00	exit
    5741:	95 00 00 00 00 00 00 00	exit
    5742:	bf 25 00 00 00 00 00 00	mov64 r5, r2
    5743:	bf 12 00 00 00 00 00 00	mov64 r2, r1
    5744:	18 01 00 00 00 00 00 00 00 00 00 00 03 00 00 00	lddw r1, 12884901888
    5746:	79 11 00 00 00 00 00 00	ldxdw r1, [r1 + 0]
    5747:	18 06 00 00 00 80 00 00 00 00 00 00 03 00 00 00	lddw r6, 12884934656
    5749:	15 01 01 00 00 00 00 00	jeq r1, 0, +1 <entrypoint+0x3f8>
    5750:	bf 16 00 00 00 00 00 00	mov64 r6, r1
    5751:	bf 61 00 00 00 00 00 00	mov64 r1, r6
    5752:	1f 41 00 00 00 00 00 00	sub64 r1, r4
    5753:	b7 00 00 00 00 00 00 00	mov64 r0, 0
    5754:	b7 07 00 00 01 00 00 00	mov64 r7, 1
    5755:	2d 61 01 00 00 00 00 00	jgt r1, r6, +1 <entrypoint+0x428>
    5756:	b7 07 00 00 00 00 00 00	mov64 r7, 0
    5757:	b7 06 00 00 00 00 00 00	mov64 r6, 0
    5758:	55 07 01 00 00 00 00 00	jne r7, 0, +1 <entrypoint+0x440>
    5759:	bf 16 00 00 00 00 00 00	mov64 r6, r1
    5760:	87 03 00 00 00 00 00 00	neg64 r3
    5761:	5f 36 00 00 00 00 00 00	and64 r6, r3
    5762:	18 01 00 00 08 00 00 00 00 00 00 00 03 00 00 00	lddw r1, 12884901896
    5764:	2d 61 09 00 00 00 00 00	jgt r1, r6, +9 <entrypoint+0x4b0>
    5765:	18 01 00 00 00 00 00 00 00 00 00 00 03 00 00 00	lddw r1, 12884901888
    5767:	7b 61 00 00 00 00 00 00	stxdw [r1 + 0], r6
    5768:	2d 54 01 00 00 00 00 00	jgt r4, r5, +1 <entrypoint+0x490>
    5769:	bf 45 00 00 00 00 00 00	mov64 r5, r4
    5770:	bf 61 00 00 00 00 00 00	mov64 r1, r6
    5771:	bf 53 00 00 00 00 00 00	mov64 r3, r5
    5772:	85 10 00 00 0d 31 00 00	call 12557
    5773:	bf 60 00 00 00 00 00 00	mov64 r0, r6
    5774:	95 00 00 00 00 00 00 00	exit

000000000000b478 <custom_panic>:
    5775:	7b 1a a0 ff 00 00 00 00	stxdw [r10 - 96], r1
    5776:	b7 01 00 00 00 00 00 00	mov64 r1, 0
    5777:	7b 1a e0 ff 00 00 00 00	stxdw [r10 - 32], r1
    5778:	18 01 00 00 98 7b 02 00 00 00 00 00 00 00 00 00	lddw r1, 162712
    5780:	7b 1a c0 ff 00 00 00 00	stxdw [r10 - 64], r1
    5781:	b7 01 00 00 01 00 00 00	mov64 r1, 1
    5782:	7b 1a c8 ff 00 00 00 00	stxdw [r10 - 56], r1
    5783:	7b 1a d8 ff 00 00 00 00	stxdw [r10 - 40], r1
    5784:	bf a1 00 00 00 00 00 00	mov64 r1, r10
    5785:	07 01 00 00 f0 ff ff ff	add64 r1, -16
    5786:	7b 1a d0 ff 00 00 00 00	stxdw [r10 - 48], r1
    5787:	18 01 00 00 f0 12 00 00 00 00 00 00 00 00 00 00	lddw r1, 4848
    5789:	7b 1a f8 ff 00 00 00 00	stxdw [r10 - 8], r1
    5790:	bf a1 00 00 00 00 00 00	mov64 r1, r10
    5791:	07 01 00 00 a0 ff ff ff	add64 r1, -96
    5792:	7b 1a f0 ff 00 00 00 00	stxdw [r10 - 16], r1
    5793:	bf a1 00 00 00 00 00 00	mov64 r1, r10
    5794:	07 01 00 00 a8 ff ff ff	add64 r1, -88
    5795:	bf a2 00 00 00 00 00 00	mov64 r2, r10
    5796:	07 02 00 00 c0 ff ff ff	add64 r2, -64
    5797:	85 10 00 00 12 20 00 00	call 8210
    5798:	79 a1 a8 ff 00 00 00 00	ldxdw r1, [r10 - 88]
    5799:	79 a2 b8 ff 00 00 00 00	ldxdw r2, [r10 - 72]
    5800:	85 10 00 00 ff ff ff ff	call -1
    5801:	95 00 00 00 00 00 00 00	exit
    5802:	85 10 00 00 1d 1f 00 00	call 7965
    5803:	95 00 00 00 00 00 00 00	exit
    5804:	bf 16 00 00 00 00 00 00	mov64 r6, r1
    5805:	79 67 10 00 00 00 00 00	ldxdw r7, [r6 + 16]
    5806:	79 61 08 00 00 00 00 00	ldxdw r1, [r6 + 8]
    5807:	79 12 00 00 00 00 00 00	ldxdw r2, [r1 + 0]
    5808:	07 02 00 00 ff ff ff ff	add64 r2, -1
    5809:	7b 21 00 00 00 00 00 00	stxdw [r1 + 0], r2
    5810:	55 02 07 00 00 00 00 00	jne r2, 0, +7 <custom_panic+0x158>
    5811:	79 12 08 00 00 00 00 00	ldxdw r2, [r1 + 8]
    5812:	07 02 00 00 ff ff ff ff	add64 r2, -1
    5813:	7b 21 08 00 00 00 00 00	stxdw [r1 + 8], r2
    5814:	55 02 03 00 00 00 00 00	jne r2, 0, +3 <custom_panic+0x158>
    5815:	b7 02 00 00 20 00 00 00	mov64 r2, 32
    5816:	b7 03 00 00 08 00 00 00	mov64 r3, 8
    5817:	85 10 00 00 b3 ff ff ff	call -77
    5818:	79 71 00 00 00 00 00 00	ldxdw r1, [r7 + 0]
    5819:	07 01 00 00 ff ff ff ff	add64 r1, -1
    5820:	7b 17 00 00 00 00 00 00	stxdw [r7 + 0], r1
    5821:	55 01 08 00 00 00 00 00	jne r1, 0, +8 <custom_panic+0x1b8>
    5822:	79 71 08 00 00 00 00 00	ldxdw r1, [r7 + 8]
    5823:	07 01 00 00 ff ff ff ff	add64 r1, -1
    5824:	7b 17 08 00 00 00 00 00	stxdw [r7 + 8], r1
    5825:	55 01 04 00 00 00 00 00	jne r1, 0, +4 <custom_panic+0x1b8>
    5826:	bf 71 00 00 00 00 00 00	mov64 r1, r7
    5827:	b7 02 00 00 28 00 00 00	mov64 r2, 40
    5828:	b7 03 00 00 08 00 00 00	mov64 r3, 8
    5829:	85 10 00 00 a7 ff ff ff	call -89
    5830:	79 67 40 00 00 00 00 00	ldxdw r7, [r6 + 64]
    5831:	79 61 38 00 00 00 00 00	ldxdw r1, [r6 + 56]
    5832:	79 12 00 00 00 00 00 00	ldxdw r2, [r1 + 0]
    5833:	07 02 00 00 ff ff ff ff	add64 r2, -1
    5834:	7b 21 00 00 00 00 00 00	stxdw [r1 + 0], r2
    5835:	55 02 07 00 00 00 00 00	jne r2, 0, +7 <custom_panic+0x220>
    5836:	79 12 08 00 00 00 00 00	ldxdw r2, [r1 + 8]
    5837:	07 02 00 00 ff ff ff ff	add64 r2, -1
    5838:	7b 21 08 00 00 00 00 00	stxdw [r1 + 8], r2
    5839:	55 02 03 00 00 00 00 00	jne r2, 0, +3 <custom_panic+0x220>
    5840:	b7 02 00 00 20 00 00 00	mov64 r2, 32
    5841:	b7 03 00 00 08 00 00 00	mov64 r3, 8
    5842:	85 10 00 00 9a ff ff ff	call -102
    5843:	79 71 00 00 00 00 00 00	ldxdw r1, [r7 + 0]
    5844:	07 01 00 00 ff ff ff ff	add64 r1, -1
    5845:	7b 17 00 00 00 00 00 00	stxdw [r7 + 0], r1
    5846:	55 01 08 00 00 00 00 00	jne r1, 0, +8 <custom_panic+0x280>
    5847:	79 71 08 00 00 00 00 00	ldxdw r1, [r7 + 8]
    5848:	07 01 00 00 ff ff ff ff	add64 r1, -1
    5849:	7b 17 08 00 00 00 00 00	stxdw [r7 + 8], r1
    5850:	55 01 04 00 00 00 00 00	jne r1, 0, +4 <custom_panic+0x280>
    5851:	bf 71 00 00 00 00 00 00	mov64 r1, r7
    5852:	b7 02 00 00 28 00 00 00	mov64 r2, 40
    5853:	b7 03 00 00 08 00 00 00	mov64 r3, 8
    5854:	85 10 00 00 8e ff ff ff	call -114
    5855:	79 67 70 00 00 00 00 00	ldxdw r7, [r6 + 112]
    5856:	79 61 68 00 00 00 00 00	ldxdw r1, [r6 + 104]
    5857:	79 12 00 00 00 00 00 00	ldxdw r2, [r1 + 0]
    5858:	07 02 00 00 ff ff ff ff	add64 r2, -1
    5859:	7b 21 00 00 00 00 00 00	stxdw [r1 + 0], r2
    5860:	55 02 07 00 00 00 00 00	jne r2, 0, +7 <custom_panic+0x2e8>
    5861:	79 12 08 00 00 00 00 00	ldxdw r2, [r1 + 8]
    5862:	07 02 00 00 ff ff ff ff	add64 r2, -1
    5863:	7b 21 08 00 00 00 00 00	stxdw [r1 + 8], r2
    5864:	55 02 03 00 00 00 00 00	jne r2, 0, +3 <custom_panic+0x2e8>
    5865:	b7 02 00 00 20 00 00 00	mov64 r2, 32
    5866:	b7 03 00 00 08 00 00 00	mov64 r3, 8
    5867:	85 10 00 00 81 ff ff ff	call -127
    5868:	79 71 00 00 00 00 00 00	ldxdw r1, [r7 + 0]
    5869:	07 01 00 00 ff ff ff ff	add64 r1, -1
    5870:	7b 17 00 00 00 00 00 00	stxdw [r7 + 0], r1
    5871:	55 01 08 00 00 00 00 00	jne r1, 0, +8 <custom_panic+0x348>
    5872:	79 71 08 00 00 00 00 00	ldxdw r1, [r7 + 8]
    5873:	07 01 00 00 ff ff ff ff	add64 r1, -1
    5874:	7b 17 08 00 00 00 00 00	stxdw [r7 + 8], r1
    5875:	55 01 04 00 00 00 00 00	jne r1, 0, +4 <custom_panic+0x348>
    5876:	bf 71 00 00 00 00 00 00	mov64 r1, r7
    5877:	b7 02 00 00 28 00 00 00	mov64 r2, 40
    5878:	b7 03 00 00 08 00 00 00	mov64 r3, 8
    5879:	85 10 00 00 75 ff ff ff	call -139
    5880:	79 67 a0 00 00 00 00 00	ldxdw r7, [r6 + 160]
    5881:	79 61 98 00 00 00 00 00	ldxdw r1, [r6 + 152]
    5882:	79 12 00 00 00 00 00 00	ldxdw r2, [r1 + 0]
    5883:	07 02 00 00 ff ff ff ff	add64 r2, -1
    5884:	7b 21 00 00 00 00 00 00	stxdw [r1 + 0], r2
    5885:	55 02 07 00 00 00 00 00	jne r2, 0, +7 <custom_panic+0x3b0>
    5886:	79 12 08 00 00 00 00 00	ldxdw r2, [r1 + 8]
    5887:	07 02 00 00 ff ff ff ff	add64 r2, -1
    5888:	7b 21 08 00 00 00 00 00	stxdw [r1 + 8], r2
    5889:	55 02 03 00 00 00 00 00	jne r2, 0, +3 <custom_panic+0x3b0>
    5890:	b7 02 00 00 20 00 00 00	mov64 r2, 32
    5891:	b7 03 00 00 08 00 00 00	mov64 r3, 8
    5892:	85 10 00 00 68 ff ff ff	call -152
    5893:	79 71 00 00 00 00 00 00	ldxdw r1, [r7 + 0]
    5894:	07 01 00 00 ff ff ff ff	add64 r1, -1
    5895:	7b 17 00 00 00 00 00 00	stxdw [r7 + 0], r1
    5896:	55 01 08 00 00 00 00 00	jne r1, 0, +8 <custom_panic+0x410>
    5897:	79 71 08 00 00 00 00 00	ldxdw r1, [r7 + 8]
    5898:	07 01 00 00 ff ff ff ff	add64 r1, -1
    5899:	7b 17 08 00 00 00 00 00	stxdw [r7 + 8], r1
    5900:	55 01 04 00 00 00 00 00	jne r1, 0, +4 <custom_panic+0x410>
    5901:	bf 71 00 00 00 00 00 00	mov64 r1, r7
    5902:	b7 02 00 00 28 00 00 00	mov64 r2, 40
    5903:	b7 03 00 00 08 00 00 00	mov64 r3, 8
    5904:	85 10 00 00 5c ff ff ff	call -164
    5905:	79 67 d0 00 00 00 00 00	ldxdw r7, [r6 + 208]
    5906:	79 61 c8 00 00 00 00 00	ldxdw r1, [r6 + 200]
    5907:	79 12 00 00 00 00 00 00	ldxdw r2, [r1 + 0]
    5908:	07 02 00 00 ff ff ff ff	add64 r2, -1
    5909:	7b 21 00 00 00 00 00 00	stxdw [r1 + 0], r2
    5910:	55 02 07 00 00 00 00 00	jne r2, 0, +7 <custom_panic+0x478>
    5911:	79 12 08 00 00 00 00 00	ldxdw r2, [r1 + 8]
    5912:	07 02 00 00 ff ff ff ff	add64 r2, -1
    5913:	7b 21 08 00 00 00 00 00	stxdw [r1 + 8], r2
    5914:	55 02 03 00 00 00 00 00	jne r2, 0, +3 <custom_panic+0x478>
    5915:	b7 02 00 00 20 00 00 00	mov64 r2, 32
    5916:	b7 03 00 00 08 00 00 00	mov64 r3, 8
    5917:	85 10 00 00 4f ff ff ff	call -177
    5918:	79 71 00 00 00 00 00 00	ldxdw r1, [r7 + 0]
    5919:	07 01 00 00 ff ff ff ff	add64 r1, -1
    5920:	7b 17 00 00 00 00 00 00	stxdw [r7 + 0], r1
    5921:	55 01 08 00 00 00 00 00	jne r1, 0, +8 <custom_panic+0x4d8>
    5922:	79 71 08 00 00 00 00 00	ldxdw r1, [r7 + 8]
    5923:	07 01 00 00 ff ff ff ff	add64 r1, -1
    5924:	7b 17 08 00 00 00 00 00	stxdw [r7 + 8], r1
    5925:	55 01 04 00 00 00 00 00	jne r1, 0, +4 <custom_panic+0x4d8>
    5926:	bf 71 00 00 00 00 00 00	mov64 r1, r7
    5927:	b7 02 00 00 28 00 00 00	mov64 r2, 40
    5928:	b7 03 00 00 08 00 00 00	mov64 r3, 8
    5929:	85 10 00 00 43 ff ff ff	call -189
    5930:	79 67 00 01 00 00 00 00	ldxdw r7, [r6 + 256]
    5931:	79 61 f8 00 00 00 00 00	ldxdw r1, [r6 + 248]
    5932:	79 12 00 00 00 00 00 00	ldxdw r2, [r1 + 0]
    5933:	07 02 00 00 ff ff ff ff	add64 r2, -1
    5934:	7b 21 00 00 00 00 00 00	stxdw [r1 + 0], r2
    5935:	55 02 07 00 00 00 00 00	jne r2, 0, +7 <custom_panic+0x540>
    5936:	79 12 08 00 00 00 00 00	ldxdw r2, [r1 + 8]
    5937:	07 02 00 00 ff ff ff ff	add64 r2, -1
    5938:	7b 21 08 00 00 00 00 00	stxdw [r1 + 8], r2
    5939:	55 02 03 00 00 00 00 00	jne r2, 0, +3 <custom_panic+0x540>
    5940:	b7 02 00 00 20 00 00 00	mov64 r2, 32
    5941:	b7 03 00 00 08 00 00 00	mov64 r3, 8
    5942:	85 10 00 00 36 ff ff ff	call -202
    5943:	79 71 00 00 00 00 00 00	ldxdw r1, [r7 + 0]
    5944:	07 01 00 00 ff ff ff ff	add64 r1, -1
    5945:	7b 17 00 00 00 00 00 00	stxdw [r7 + 0], r1
    5946:	55 01 08 00 00 00 00 00	jne r1, 0, +8 <custom_panic+0x5a0>
    5947:	79 71 08 00 00 00 00 00	ldxdw r1, [r7 + 8]
    5948:	07 01 00 00 ff ff ff ff	add64 r1, -1
    5949:	7b 17 08 00 00 00 00 00	stxdw [r7 + 8], r1
    5950:	55 01 04 00 00 00 00 00	jne r1, 0, +4 <custom_panic+0x5a0>
    5951:	bf 71 00 00 00 00 00 00	mov64 r1, r7
    5952:	b7 02 00 00 28 00 00 00	mov64 r2, 40
    5953:	b7 03 00 00 08 00 00 00	mov64 r3, 8
    5954:	85 10 00 00 2a ff ff ff	call -214
    5955:	95 00 00 00 00 00 00 00	exit
    5956:	bf 17 00 00 00 00 00 00	mov64 r7, r1
    5957:	79 71 00 00 00 00 00 00	ldxdw r1, [r7 + 0]
    5958:	7b 1a f8 ff 00 00 00 00	stxdw [r10 - 8], r1
    5959:	79 79 10 00 00 00 00 00	ldxdw r9, [r7 + 16]
    5960:	15 09 12 00 00 00 00 00	jeq r9, 0, +18 <custom_panic+0x660>
    5961:	79 a6 f8 ff 00 00 00 00	ldxdw r6, [r10 - 8]
    5962:	07 06 00 00 10 00 00 00	add64 r6, 16
    5963:	05 00 16 00 00 00 00 00	ja +22 <custom_panic+0x698>
    5964:	79 81 00 00 00 00 00 00	ldxdw r1, [r8 + 0]
    5965:	07 01 00 00 ff ff ff ff	add64 r1, -1
    5966:	7b 18 00 00 00 00 00 00	stxdw [r8 + 0], r1
    5967:	55 01 08 00 00 00 00 00	jne r1, 0, +8 <custom_panic+0x648>
    5968:	79 81 08 00 00 00 00 00	ldxdw r1, [r8 + 8]
    5969:	07 01 00 00 ff ff ff ff	add64 r1, -1
    5970:	7b 18 08 00 00 00 00 00	stxdw [r8 + 8], r1
    5971:	55 01 04 00 00 00 00 00	jne r1, 0, +4 <custom_panic+0x648>
    5972:	bf 81 00 00 00 00 00 00	mov64 r1, r8
    5973:	b7 02 00 00 28 00 00 00	mov64 r2, 40
    5974:	b7 03 00 00 08 00 00 00	mov64 r3, 8
    5975:	85 10 00 00 15 ff ff ff	call -235
    5976:	07 06 00 00 30 00 00 00	add64 r6, 48
    5977:	07 09 00 00 ff ff ff ff	add64 r9, -1
    5978:	55 09 07 00 00 00 00 00	jne r9, 0, +7 <custom_panic+0x698>
    5979:	79 72 08 00 00 00 00 00	ldxdw r2, [r7 + 8]
    5980:	15 02 13 00 00 00 00 00	jeq r2, 0, +19 <custom_panic+0x708>
    5981:	27 02 00 00 30 00 00 00	mul64 r2, 48
    5982:	79 a1 f8 ff 00 00 00 00	ldxdw r1, [r10 - 8]
    5983:	b7 03 00 00 08 00 00 00	mov64 r3, 8
    5984:	85 10 00 00 0c ff ff ff	call -244
    5985:	05 00 0e 00 00 00 00 00	ja +14 <custom_panic+0x708>
    5986:	79 68 00 00 00 00 00 00	ldxdw r8, [r6 + 0]
    5987:	79 61 f8 ff 00 00 00 00	ldxdw r1, [r6 - 8]
    5988:	79 12 00 00 00 00 00 00	ldxdw r2, [r1 + 0]
    5989:	07 02 00 00 ff ff ff ff	add64 r2, -1
    5990:	7b 21 00 00 00 00 00 00	stxdw [r1 + 0], r2
    5991:	55 02 e4 ff 00 00 00 00	jne r2, 0, -28 <custom_panic+0x5e8>
    5992:	79 12 08 00 00 00 00 00	ldxdw r2, [r1 + 8]
    5993:	07 02 00 00 ff ff ff ff	add64 r2, -1
    5994:	7b 21 08 00 00 00 00 00	stxdw [r1 + 8], r2
    5995:	55 02 e0 ff 00 00 00 00	jne r2, 0, -32 <custom_panic+0x5e8>
    5996:	b7 02 00 00 20 00 00 00	mov64 r2, 32
    5997:	b7 03 00 00 08 00 00 00	mov64 r3, 8
    5998:	85 10 00 00 fe fe ff ff	call -258
    5999:	05 00 dc ff 00 00 00 00	ja -36 <custom_panic+0x5e8>
    6000:	95 00 00 00 00 00 00 00	exit
    6001:	bf 26 00 00 00 00 00 00	mov64 r6, r2
    6002:	bf 17 00 00 00 00 00 00	mov64 r7, r1
    6003:	79 65 18 01 00 00 00 00	ldxdw r5, [r6 + 280]
    6004:	79 64 b8 00 00 00 00 00	ldxdw r4, [r6 + 184]
    6005:	79 63 88 00 00 00 00 00	ldxdw r3, [r6 + 136]
    6006:	79 62 28 00 00 00 00 00	ldxdw r2, [r6 + 40]
    6007:	bf a8 00 00 00 00 00 00	mov64 r8, r10
    6008:	07 08 00 00 50 fe ff ff	add64 r8, -432
    6009:	bf 81 00 00 00 00 00 00	mov64 r1, r8
    6010:	85 10 00 00 43 02 00 00	call 579
    6011:	bf 62 00 00 00 00 00 00	mov64 r2, r6
    6012:	07 02 00 00 28 00 00 00	add64 r2, 40
    6013:	bf a9 00 00 00 00 00 00	mov64 r9, r10
    6014:	07 09 00 00 c0 fe ff ff	add64 r9, -320
    6015:	bf 91 00 00 00 00 00 00	mov64 r1, r9
    6016:	b7 03 00 00 30 00 00 00	mov64 r3, 48
    6017:	85 10 00 00 18 30 00 00	call 12312
    6018:	bf 62 00 00 00 00 00 00	mov64 r2, r6
    6019:	07 02 00 00 58 00 00 00	add64 r2, 88
    6020:	bf a1 00 00 00 00 00 00	mov64 r1, r10
    6021:	07 01 00 00 f0 fe ff ff	add64 r1, -272
    6022:	b7 03 00 00 30 00 00 00	mov64 r3, 48
    6023:	85 10 00 00 12 30 00 00	call 12306
    6024:	bf 62 00 00 00 00 00 00	mov64 r2, r6
    6025:	07 02 00 00 88 00 00 00	add64 r2, 136
    6026:	bf a1 00 00 00 00 00 00	mov64 r1, r10
    6027:	07 01 00 00 20 ff ff ff	add64 r1, -224
    6028:	b7 03 00 00 30 00 00 00	mov64 r3, 48
    6029:	85 10 00 00 0c 30 00 00	call 12300
    6030:	bf 62 00 00 00 00 00 00	mov64 r2, r6
    6031:	07 02 00 00 b8 00 00 00	add64 r2, 184
    6032:	bf a1 00 00 00 00 00 00	mov64 r1, r10
    6033:	07 01 00 00 50 ff ff ff	add64 r1, -176
    6034:	b7 03 00 00 30 00 00 00	mov64 r3, 48
    6035:	85 10 00 00 06 30 00 00	call 12294
    6036:	bf 62 00 00 00 00 00 00	mov64 r2, r6
    6037:	07 02 00 00 e8 00 00 00	add64 r2, 232
    6038:	bf a1 00 00 00 00 00 00	mov64 r1, r10
    6039:	07 01 00 00 80 ff ff ff	add64 r1, -128
    6040:	b7 03 00 00 30 00 00 00	mov64 r3, 48
    6041:	85 10 00 00 00 30 00 00	call 12288
    6042:	bf 62 00 00 00 00 00 00	mov64 r2, r6
    6043:	07 02 00 00 18 01 00 00	add64 r2, 280
    6044:	bf a1 00 00 00 00 00 00	mov64 r1, r10
    6045:	07 01 00 00 b0 ff ff ff	add64 r1, -80
    6046:	b7 03 00 00 30 00 00 00	mov64 r3, 48
    6047:	85 10 00 00 fa 2f 00 00	call 12282
    6048:	79 61 08 00 00 00 00 00	ldxdw r1, [r6 + 8]
    6049:	79 62 00 00 00 00 00 00	ldxdw r2, [r6 + 0]
    6050:	7b 2a 00 f0 00 00 00 00	stxdw [r10 - 4096], r2
    6051:	7b 1a 08 f0 00 00 00 00	stxdw [r10 - 4088], r1
    6052:	bf a1 00 00 00 00 00 00	mov64 r1, r10
    6053:	07 01 00 00 a0 fe ff ff	add64 r1, -352
    6054:	bf a5 00 00 00 00 00 00	mov64 r5, r10
    6055:	bf 82 00 00 00 00 00 00	mov64 r2, r8
    6056:	bf 93 00 00 00 00 00 00	mov64 r3, r9
    6057:	b7 04 00 00 06 00 00 00	mov64 r4, 6
    6058:	85 10 00 00 5c 16 00 00	call 5724
    6059:	61 a1 a0 fe 00 00 00 00	ldxw r1, [r10 - 352]
    6060:	55 01 03 00 16 00 00 00	jne r1, 22, +3 <custom_panic+0x908>
    6061:	b7 01 00 00 04 00 00 00	mov64 r1, 4
    6062:	7b 17 00 00 00 00 00 00	stxdw [r7 + 0], r1
    6063:	05 00 0c 00 00 00 00 00	ja +12 <custom_panic+0x968>
    6064:	79 a1 b8 fe 00 00 00 00	ldxdw r1, [r10 - 328]
    6065:	7b 1a f8 ff 00 00 00 00	stxdw [r10 - 8], r1
    6066:	79 a1 b0 fe 00 00 00 00	ldxdw r1, [r10 - 336]
    6067:	7b 1a f0 ff 00 00 00 00	stxdw [r10 - 16], r1
    6068:	79 a1 a8 fe 00 00 00 00	ldxdw r1, [r10 - 344]
    6069:	7b 1a e8 ff 00 00 00 00	stxdw [r10 - 24], r1
    6070:	79 a1 a0 fe 00 00 00 00	ldxdw r1, [r10 - 352]
    6071:	7b 1a e0 ff 00 00 00 00	stxdw [r10 - 32], r1
    6072:	bf a2 00 00 00 00 00 00	mov64 r2, r10
    6073:	07 02 00 00 e0 ff ff ff	add64 r2, -32
    6074:	bf 71 00 00 00 00 00 00	mov64 r1, r7
    6075:	85 10 00 00 9a 06 00 00	call 1690
    6076:	79 a2 58 fe 00 00 00 00	ldxdw r2, [r10 - 424]
    6077:	15 02 04 00 00 00 00 00	jeq r2, 0, +4 <custom_panic+0x998>
    6078:	27 02 00 00 22 00 00 00	mul64 r2, 34
    6079:	79 a1 50 fe 00 00 00 00	ldxdw r1, [r10 - 432]
    6080:	b7 03 00 00 01 00 00 00	mov64 r3, 1
    6081:	85 10 00 00 ab fe ff ff	call -341
    6082:	79 a2 70 fe 00 00 00 00	ldxdw r2, [r10 - 400]
    6083:	15 02 03 00 00 00 00 00	jeq r2, 0, +3 <custom_panic+0x9c0>
    6084:	79 a1 68 fe 00 00 00 00	ldxdw r1, [r10 - 408]
    6085:	b7 03 00 00 01 00 00 00	mov64 r3, 1
    6086:	85 10 00 00 a6 fe ff ff	call -346
    6087:	bf a1 00 00 00 00 00 00	mov64 r1, r10
    6088:	07 01 00 00 c0 fe ff ff	add64 r1, -320
    6089:	85 10 00 00 e2 fe ff ff	call -286
    6090:	bf 61 00 00 00 00 00 00	mov64 r1, r6
    6091:	07 01 00 00 10 00 00 00	add64 r1, 16
    6092:	85 10 00 00 77 ff ff ff	call -137
    6093:	79 67 58 01 00 00 00 00	ldxdw r7, [r6 + 344]
    6094:	79 61 50 01 00 00 00 00	ldxdw r1, [r6 + 336]
    6095:	79 12 00 00 00 00 00 00	ldxdw r2, [r1 + 0]
    6096:	07 02 00 00 ff ff ff ff	add64 r2, -1
    6097:	7b 21 00 00 00 00 00 00	stxdw [r1 + 0], r2
    6098:	55 02 07 00 00 00 00 00	jne r2, 0, +7 <custom_panic+0xa58>
    6099:	79 12 08 00 00 00 00 00	ldxdw r2, [r1 + 8]
    6100:	07 02 00 00 ff ff ff ff	add64 r2, -1
    6101:	7b 21 08 00 00 00 00 00	stxdw [r1 + 8], r2
    6102:	55 02 03 00 00 00 00 00	jne r2, 0, +3 <custom_panic+0xa58>
    6103:	b7 02 00 00 20 00 00 00	mov64 r2, 32
    6104:	b7 03 00 00 08 00 00 00	mov64 r3, 8
    6105:	85 10 00 00 93 fe ff ff	call -365
    6106:	79 71 00 00 00 00 00 00	ldxdw r1, [r7 + 0]
    6107:	07 01 00 00 ff ff ff ff	add64 r1, -1
    6108:	7b 17 00 00 00 00 00 00	stxdw [r7 + 0], r1
    6109:	55 01 08 00 00 00 00 00	jne r1, 0, +8 <custom_panic+0xab8>
    6110:	79 71 08 00 00 00 00 00	ldxdw r1, [r7 + 8]
    6111:	07 01 00 00 ff ff ff ff	add64 r1, -1
    6112:	7b 17 08 00 00 00 00 00	stxdw [r7 + 8], r1
    6113:	55 01 04 00 00 00 00 00	jne r1, 0, +4 <custom_panic+0xab8>
    6114:	bf 71 00 00 00 00 00 00	mov64 r1, r7
    6115:	b7 02 00 00 28 00 00 00	mov64 r2, 40
    6116:	b7 03 00 00 08 00 00 00	mov64 r3, 8
    6117:	85 10 00 00 87 fe ff ff	call -377
    6118:	95 00 00 00 00 00 00 00	exit
    6119:	18 02 00 00 04 8e 7b d8 00 00 00 00 db e9 f8 59	lddw r2, 6483188794038914564
    6121:	7b 21 18 00 00 00 00 00	stxdw [r1 + 24], r2
    6122:	18 02 00 00 0b 5a 13 99 00 00 00 00 da ff 10 84	lddw r2, -8930356746739557877
    6124:	7b 21 10 00 00 00 00 00	stxdw [r1 + 16], r2
    6125:	18 02 00 00 bb 3d 10 29 00 00 00 00 14 8e 0d 83	lddw r2, -9003383862804333125
    6127:	7b 21 08 00 00 00 00 00	stxdw [r1 + 8], r2
    6128:	18 02 00 00 8c 97 25 8f 00 00 00 00 4e 24 89 f1	lddw r2, -1042261918931904628
    6130:	7b 21 00 00 00 00 00 00	stxdw [r1 + 0], r2
    6131:	95 00 00 00 00 00 00 00	exit
    6132:	bf 16 00 00 00 00 00 00	mov64 r6, r1
    6133:	b7 08 00 00 03 00 00 00	mov64 r8, 3
    6134:	79 21 08 00 00 00 00 00	ldxdw r1, [r2 + 8]
    6135:	55 01 08 00 a5 00 00 00	jne r1, 165, +8 <custom_panic+0xb88>
    6136:	79 22 00 00 00 00 00 00	ldxdw r2, [r2 + 0]
    6137:	bf a1 00 00 00 00 00 00	mov64 r1, r10
    6138:	07 01 00 00 50 ff ff ff	add64 r1, -176
    6139:	b7 03 00 00 a5 00 00 00	mov64 r3, 165
    6140:	85 10 00 00 68 02 00 00	call 616
    6141:	61 a8 50 ff 00 00 00 00	ldxw r8, [r10 - 176]
    6142:	61 a9 d8 ff 00 00 00 00	ldxw r9, [r10 - 40]
    6143:	55 09 1e 00 02 00 00 00	jne r9, 2, +30 <custom_panic+0xc78>
    6144:	79 a1 54 ff 00 00 00 00	ldxdw r1, [r10 - 172]
    6145:	7b 1a f8 fd 00 00 00 00	stxdw [r10 - 520], r1
    6146:	79 a1 5c ff 00 00 00 00	ldxdw r1, [r10 - 164]
    6147:	7b 1a 00 fe 00 00 00 00	stxdw [r10 - 512], r1
    6148:	79 a1 64 ff 00 00 00 00	ldxdw r1, [r10 - 156]
    6149:	7b 1a 08 fe 00 00 00 00	stxdw [r10 - 504], r1
    6150:	61 a1 6c ff 00 00 00 00	ldxw r1, [r10 - 148]
    6151:	63 1a 48 ff 00 00 00 00	stxw [r10 - 184], r1
    6152:	63 1a 10 fe 00 00 00 00	stxw [r10 - 496], r1
    6153:	61 a1 10 fe 00 00 00 00	ldxw r1, [r10 - 496]
    6154:	63 1a 68 ff 00 00 00 00	stxw [r10 - 152], r1
    6155:	79 a2 08 fe 00 00 00 00	ldxdw r2, [r10 - 504]
    6156:	7b 2a 60 ff 00 00 00 00	stxdw [r10 - 160], r2
    6157:	79 a3 00 fe 00 00 00 00	ldxdw r3, [r10 - 512]
    6158:	7b 3a 58 ff 00 00 00 00	stxdw [r10 - 168], r3
    6159:	79 a4 f8 fd 00 00 00 00	ldxdw r4, [r10 - 520]
    6160:	7b 4a 50 ff 00 00 00 00	stxdw [r10 - 176], r4
    6161:	63 8a 80 fe 00 00 00 00	stxw [r10 - 384], r8
    6162:	7b 4a 84 fe 00 00 00 00	stxdw [r10 - 380], r4
    6163:	7b 3a 8c fe 00 00 00 00	stxdw [r10 - 372], r3
    6164:	7b 2a 94 fe 00 00 00 00	stxdw [r10 - 364], r2
    6165:	63 1a 9c fe 00 00 00 00	stxw [r10 - 356], r1
    6166:	bf 61 00 00 00 00 00 00	mov64 r1, r6
    6167:	07 01 00 00 08 00 00 00	add64 r1, 8
    6168:	bf a2 00 00 00 00 00 00	mov64 r2, r10
    6169:	07 02 00 00 80 fe ff ff	add64 r2, -384
    6170:	85 10 00 00 3b 06 00 00	call 1595
    6171:	b7 01 00 00 01 00 00 00	mov64 r1, 1
    6172:	7b 16 00 00 00 00 00 00	stxdw [r6 + 0], r1
    6173:	95 00 00 00 00 00 00 00	exit
    6174:	61 a1 6c ff 00 00 00 00	ldxw r1, [r10 - 148]
    6175:	63 1a 48 ff 00 00 00 00	stxw [r10 - 184], r1
    6176:	79 a1 64 ff 00 00 00 00	ldxdw r1, [r10 - 156]
    6177:	7b 1a 40 ff 00 00 00 00	stxdw [r10 - 192], r1
    6178:	79 a1 5c ff 00 00 00 00	ldxdw r1, [r10 - 164]
    6179:	7b 1a 38 ff 00 00 00 00	stxdw [r10 - 200], r1
    6180:	79 a1 54 ff 00 00 00 00	ldxdw r1, [r10 - 172]
    6181:	7b 1a 30 ff 00 00 00 00	stxdw [r10 - 208], r1
    6182:	bf a1 00 00 00 00 00 00	mov64 r1, r10
    6183:	07 01 00 00 a0 fe ff ff	add64 r1, -352
    6184:	bf a2 00 00 00 00 00 00	mov64 r2, r10
    6185:	07 02 00 00 70 ff ff ff	add64 r2, -144
    6186:	b7 03 00 00 68 00 00 00	mov64 r3, 104
    6187:	85 10 00 00 6e 2f 00 00	call 12142
    6188:	bf a7 00 00 00 00 00 00	mov64 r7, r10
    6189:	07 07 00 00 0c ff ff ff	add64 r7, -244
    6190:	bf a2 00 00 00 00 00 00	mov64 r2, r10
    6191:	07 02 00 00 dc ff ff ff	add64 r2, -36
    6192:	bf 71 00 00 00 00 00 00	mov64 r1, r7
    6193:	b7 03 00 00 24 00 00 00	mov64 r3, 36
    6194:	85 10 00 00 67 2f 00 00	call 12135
    6195:	63 8a 80 fe 00 00 00 00	stxw [r10 - 384], r8
    6196:	63 9a 08 ff 00 00 00 00	stxw [r10 - 248], r9
    6197:	79 a1 30 ff 00 00 00 00	ldxdw r1, [r10 - 208]
    6198:	7b 1a 84 fe 00 00 00 00	stxdw [r10 - 380], r1
    6199:	79 a1 38 ff 00 00 00 00	ldxdw r1, [r10 - 200]
    6200:	7b 1a 8c fe 00 00 00 00	stxdw [r10 - 372], r1
    6201:	79 a1 40 ff 00 00 00 00	ldxdw r1, [r10 - 192]
    6202:	7b 1a 94 fe 00 00 00 00	stxdw [r10 - 364], r1
    6203:	61 a1 48 ff 00 00 00 00	ldxw r1, [r10 - 184]
    6204:	63 1a 9c fe 00 00 00 00	stxw [r10 - 356], r1
    6205:	bf a1 00 00 00 00 00 00	mov64 r1, r10
    6206:	07 01 00 00 80 fe ff ff	add64 r1, -384
    6207:	85 10 00 00 20 02 00 00	call 544
    6208:	55 00 02 00 00 00 00 00	jne r0, 0, +2 <custom_panic+0xda0>
    6209:	b7 08 00 00 09 00 00 00	mov64 r8, 9
    6210:	05 00 c6 ff 00 00 00 00	ja -58 <custom_panic+0xbd0>
    6211:	bf a2 00 00 00 00 00 00	mov64 r2, r10
    6212:	07 02 00 00 84 fe ff ff	add64 r2, -380
    6213:	61 a8 80 fe 00 00 00 00	ldxw r8, [r10 - 384]
    6214:	bf a1 00 00 00 00 00 00	mov64 r1, r10
    6215:	07 01 00 00 f8 fd ff ff	add64 r1, -520
    6216:	b7 03 00 00 84 00 00 00	mov64 r3, 132
    6217:	85 10 00 00 50 2f 00 00	call 12112
    6218:	61 a9 08 ff 00 00 00 00	ldxw r9, [r10 - 248]
    6219:	bf a1 00 00 00 00 00 00	mov64 r1, r10
    6220:	07 01 00 00 d4 fd ff ff	add64 r1, -556
    6221:	bf 72 00 00 00 00 00 00	mov64 r2, r7
    6222:	b7 03 00 00 24 00 00 00	mov64 r3, 36
    6223:	85 10 00 00 4a 2f 00 00	call 12106
    6224:	15 09 b8 ff 02 00 00 00	jeq r9, 2, -72 <custom_panic+0xbd0>
    6225:	bf a7 00 00 00 00 00 00	mov64 r7, r10
    6226:	07 07 00 00 50 ff ff ff	add64 r7, -176
    6227:	bf a2 00 00 00 00 00 00	mov64 r2, r10
    6228:	07 02 00 00 f8 fd ff ff	add64 r2, -520
    6229:	bf 71 00 00 00 00 00 00	mov64 r1, r7
    6230:	b7 03 00 00 84 00 00 00	mov64 r3, 132
    6231:	85 10 00 00 42 2f 00 00	call 12098
    6232:	bf 61 00 00 00 00 00 00	mov64 r1, r6
    6233:	07 01 00 00 94 00 00 00	add64 r1, 148
    6234:	bf a2 00 00 00 00 00 00	mov64 r2, r10
    6235:	07 02 00 00 d4 fd ff ff	add64 r2, -556
    6236:	b7 03 00 00 24 00 00 00	mov64 r3, 36
    6237:	85 10 00 00 3c 2f 00 00	call 12092
    6238:	63 86 08 00 00 00 00 00	stxw [r6 + 8], r8
    6239:	bf 61 00 00 00 00 00 00	mov64 r1, r6
    6240:	07 01 00 00 0c 00 00 00	add64 r1, 12
    6241:	bf 72 00 00 00 00 00 00	mov64 r2, r7
    6242:	b7 03 00 00 84 00 00 00	mov64 r3, 132
    6243:	85 10 00 00 36 2f 00 00	call 12086
    6244:	63 96 90 00 00 00 00 00	stxw [r6 + 144], r9
    6245:	b7 01 00 00 00 00 00 00	mov64 r1, 0
    6246:	05 00 b5 ff 00 00 00 00	ja -75 <custom_panic+0xc68>
    6247:	bf 16 00 00 00 00 00 00	mov64 r6, r1
    6248:	b7 07 00 00 03 00 00 00	mov64 r7, 3
    6249:	79 21 08 00 00 00 00 00	ldxdw r1, [r2 + 8]
    6250:	55 01 08 00 52 00 00 00	jne r1, 82, +8 <custom_panic+0xf20>
    6251:	79 22 00 00 00 00 00 00	ldxdw r2, [r2 + 0]
    6252:	bf a1 00 00 00 00 00 00	mov64 r1, r10
    6253:	07 01 00 00 a8 ff ff ff	add64 r1, -88
    6254:	b7 03 00 00 52 00 00 00	mov64 r3, 82
    6255:	85 10 00 00 56 01 00 00	call 342
    6256:	61 a7 a8 ff 00 00 00 00	ldxw r7, [r10 - 88]
    6257:	55 07 1c 00 02 00 00 00	jne r7, 2, +28 <custom_panic+0xff8>
    6258:	61 a7 b0 ff 00 00 00 00	ldxw r7, [r10 - 80]
    6259:	79 a1 b4 ff 00 00 00 00	ldxdw r1, [r10 - 76]
    6260:	7b 1a e0 fe 00 00 00 00	stxdw [r10 - 288], r1
    6261:	79 a1 bc ff 00 00 00 00	ldxdw r1, [r10 - 68]
    6262:	7b 1a e8 fe 00 00 00 00	stxdw [r10 - 280], r1
    6263:	79 a1 c4 ff 00 00 00 00	ldxdw r1, [r10 - 60]
    6264:	7b 1a f0 fe 00 00 00 00	stxdw [r10 - 272], r1
    6265:	61 a1 cc ff 00 00 00 00	ldxw r1, [r10 - 52]
    6266:	63 1a a0 ff 00 00 00 00	stxw [r10 - 96], r1
    6267:	63 1a f8 fe 00 00 00 00	stxw [r10 - 264], r1
    6268:	61 a1 f8 fe 00 00 00 00	ldxw r1, [r10 - 264]
    6269:	63 1a 48 ff 00 00 00 00	stxw [r10 - 184], r1
    6270:	79 a2 f0 fe 00 00 00 00	ldxdw r2, [r10 - 272]
    6271:	7b 2a 40 ff 00 00 00 00	stxdw [r10 - 192], r2
    6272:	79 a3 e8 fe 00 00 00 00	ldxdw r3, [r10 - 280]
    6273:	7b 3a 38 ff 00 00 00 00	stxdw [r10 - 200], r3
    6274:	79 a4 e0 fe 00 00 00 00	ldxdw r4, [r10 - 288]
    6275:	7b 4a 30 ff 00 00 00 00	stxdw [r10 - 208], r4
    6276:	63 7a a8 ff 00 00 00 00	stxw [r10 - 88], r7
    6277:	7b 4a ac ff 00 00 00 00	stxdw [r10 - 84], r4
    6278:	7b 3a b4 ff 00 00 00 00	stxdw [r10 - 76], r3
    6279:	7b 2a bc ff 00 00 00 00	stxdw [r10 - 68], r2
    6280:	63 1a c4 ff 00 00 00 00	stxw [r10 - 60], r1
    6281:	bf a2 00 00 00 00 00 00	mov64 r2, r10
    6282:	07 02 00 00 a8 ff ff ff	add64 r2, -88
    6283:	bf 61 00 00 00 00 00 00	mov64 r1, r6
    6284:	85 10 00 00 c9 05 00 00	call 1481
    6285:	95 00 00 00 00 00 00 00	exit
    6286:	79 a1 b4 ff 00 00 00 00	ldxdw r1, [r10 - 76]
    6287:	7b 1a 88 ff 00 00 00 00	stxdw [r10 - 120], r1
    6288:	79 a1 bc ff 00 00 00 00	ldxdw r1, [r10 - 68]
    6289:	7b 1a 90 ff 00 00 00 00	stxdw [r10 - 112], r1
    6290:	79 a1 c4 ff 00 00 00 00	ldxdw r1, [r10 - 60]
    6291:	7b 1a 98 ff 00 00 00 00	stxdw [r10 - 104], r1
    6292:	61 a1 cc ff 00 00 00 00	ldxw r1, [r10 - 52]
    6293:	63 1a a0 ff 00 00 00 00	stxw [r10 - 96], r1
    6294:	79 a8 ac ff 00 00 00 00	ldxdw r8, [r10 - 84]
    6295:	bf a1 00 00 00 00 00 00	mov64 r1, r10
    6296:	07 01 00 00 58 ff ff ff	add64 r1, -168
    6297:	bf a2 00 00 00 00 00 00	mov64 r2, r10
    6298:	07 02 00 00 d0 ff ff ff	add64 r2, -48
    6299:	b7 03 00 00 30 00 00 00	mov64 r3, 48
    6300:	85 10 00 00 fd 2e 00 00	call 12029
    6301:	7b 8a 34 ff 00 00 00 00	stxdw [r10 - 204], r8
    6302:	63 7a 30 ff 00 00 00 00	stxw [r10 - 208], r7
    6303:	79 a1 88 ff 00 00 00 00	ldxdw r1, [r10 - 120]
    6304:	7b 1a 3c ff 00 00 00 00	stxdw [r10 - 196], r1
    6305:	79 a1 90 ff 00 00 00 00	ldxdw r1, [r10 - 112]
    6306:	7b 1a 44 ff 00 00 00 00	stxdw [r10 - 188], r1
    6307:	79 a1 98 ff 00 00 00 00	ldxdw r1, [r10 - 104]
    6308:	7b 1a 4c ff 00 00 00 00	stxdw [r10 - 180], r1
    6309:	61 a1 a0 ff 00 00 00 00	ldxw r1, [r10 - 96]
    6310:	63 1a 54 ff 00 00 00 00	stxw [r10 - 172], r1
    6311:	bf a1 00 00 00 00 00 00	mov64 r1, r10
    6312:	07 01 00 00 30 ff ff ff	add64 r1, -208
    6313:	85 10 00 00 1a 01 00 00	call 282
    6314:	55 00 02 00 00 00 00 00	jne r0, 0, +2 <custom_panic+0x10f0>
    6315:	b7 07 00 00 09 00 00 00	mov64 r7, 9
    6316:	05 00 cf ff 00 00 00 00	ja -49 <custom_panic+0xf68>
    6317:	bf a2 00 00 00 00 00 00	mov64 r2, r10
    6318:	07 02 00 00 3c ff ff ff	add64 r2, -196
    6319:	61 a7 38 ff 00 00 00 00	ldxw r7, [r10 - 200]
    6320:	61 a9 34 ff 00 00 00 00	ldxw r9, [r10 - 204]
    6321:	61 a8 30 ff 00 00 00 00	ldxw r8, [r10 - 208]
    6322:	bf a1 00 00 00 00 00 00	mov64 r1, r10
    6323:	07 01 00 00 e0 fe ff ff	add64 r1, -288
    6324:	b7 03 00 00 4c 00 00 00	mov64 r3, 76
    6325:	85 10 00 00 e4 2e 00 00	call 12004
    6326:	15 08 c5 ff 02 00 00 00	jeq r8, 2, -59 <custom_panic+0xf68>
    6327:	61 a1 f8 fe 00 00 00 00	ldxw r1, [r10 - 264]
    6328:	63 1a 48 ff 00 00 00 00	stxw [r10 - 184], r1
    6329:	79 a1 f0 fe 00 00 00 00	ldxdw r1, [r10 - 272]
    6330:	7b 1a 40 ff 00 00 00 00	stxdw [r10 - 192], r1
    6331:	79 a1 e8 fe 00 00 00 00	ldxdw r1, [r10 - 280]
    6332:	7b 1a 38 ff 00 00 00 00	stxdw [r10 - 200], r1
    6333:	79 a1 e0 fe 00 00 00 00	ldxdw r1, [r10 - 288]
    6334:	7b 1a 30 ff 00 00 00 00	stxdw [r10 - 208], r1
    6335:	bf 61 00 00 00 00 00 00	mov64 r1, r6
    6336:	07 01 00 00 30 00 00 00	add64 r1, 48
    6337:	bf a2 00 00 00 00 00 00	mov64 r2, r10
    6338:	07 02 00 00 fc fe ff ff	add64 r2, -260
    6339:	b7 03 00 00 30 00 00 00	mov64 r3, 48
    6340:	85 10 00 00 d5 2e 00 00	call 11989
    6341:	63 76 10 00 00 00 00 00	stxw [r6 + 16], r7
    6342:	63 96 0c 00 00 00 00 00	stxw [r6 + 12], r9
    6343:	63 86 08 00 00 00 00 00	stxw [r6 + 8], r8
    6344:	79 a1 30 ff 00 00 00 00	ldxdw r1, [r10 - 208]
    6345:	7b 16 14 00 00 00 00 00	stxdw [r6 + 20], r1
    6346:	79 a1 38 ff 00 00 00 00	ldxdw r1, [r10 - 200]
    6347:	7b 16 1c 00 00 00 00 00	stxdw [r6 + 28], r1
    6348:	79 a1 40 ff 00 00 00 00	ldxdw r1, [r10 - 192]
    6349:	7b 16 24 00 00 00 00 00	stxdw [r6 + 36], r1
    6350:	61 a1 48 ff 00 00 00 00	ldxw r1, [r10 - 184]
    6351:	63 16 2c 00 00 00 00 00	stxw [r6 + 44], r1
    6352:	b7 01 00 00 04 00 00 00	mov64 r1, 4
    6353:	7b 16 00 00 00 00 00 00	stxdw [r6 + 0], r1
    6354:	05 00 ba ff 00 00 00 00	ja -70 <custom_panic+0xff0>
    6355:	18 02 00 00 3a 8c f5 85 00 00 00 00 7e ff 00 a9	lddw r2, -6268729762421306310
    6357:	7b 21 18 00 00 00 00 00	stxdw [r1 + 24], r2
    6358:	18 02 00 00 1c b4 85 ed 00 00 00 00 5f 5b 37 91	lddw r2, -7982811346925931492
    6360:	7b 21 10 00 00 00 00 00	stxdw [r1 + 16], r2
    6361:	18 02 00 00 d9 cb e1 46 00 00 00 00 ce eb 79 ac	lddw r2, -6018520155818964007
    6363:	7b 21 08 00 00 00 00 00	stxdw [r1 + 8], r2
    6364:	18 02 00 00 06 dd f6 e1 00 00 00 00 d7 65 a1 93	lddw r2, -7808848301000303354
    6366:	7b 21 00 00 00 00 00 00	stxdw [r1 + 0], r2
    6367:	95 00 00 00 00 00 00 00	exit
    6368:	bf 24 00 00 00 00 00 00	mov64 r4, r2
    6369:	18 02 00 00 2d 56 02 00 00 00 00 00 00 00 00 00	lddw r2, 153133
    6371:	b7 03 00 00 06 00 00 00	mov64 r3, 6
    6372:	79 11 00 00 00 00 00 00	ldxdw r1, [r1 + 0]
    6373:	71 11 00 00 00 00 00 00	ldxb r1, [r1 + 0]
    6374:	15 01 08 00 00 00 00 00	jeq r1, 0, +8 <custom_panic+0x1300>
    6375:	15 01 04 00 01 00 00 00	jeq r1, 1, +4 <custom_panic+0x12e8>
    6376:	18 02 00 00 33 56 02 00 00 00 00 00 00 00 00 00	lddw r2, 153139
    6378:	b7 03 00 00 0d 00 00 00	mov64 r3, 13
    6379:	05 00 03 00 00 00 00 00	ja +3 <custom_panic+0x1300>
    6380:	18 02 00 00 37 54 02 00 00 00 00 00 00 00 00 00	lddw r2, 152631
    6382:	b7 03 00 00 10 00 00 00	mov64 r3, 16
    6383:	bf 41 00 00 00 00 00 00	mov64 r1, r4
    6384:	85 10 00 00 57 25 00 00	call 9559
    6385:	95 00 00 00 00 00 00 00	exit
    6386:	bf 58 00 00 00 00 00 00	mov64 r8, r5
    6387:	bf 46 00 00 00 00 00 00	mov64 r6, r4
    6388:	7b 2a c0 fe 00 00 00 00	stxdw [r10 - 320], r2
    6389:	7b 1a b8 fe 00 00 00 00	stxdw [r10 - 328], r1
    6390:	79 81 08 f0 00 00 00 00	ldxdw r1, [r8 - 4088]
    6391:	7b 1a e0 fe 00 00 00 00	stxdw [r10 - 288], r1
    6392:	73 1a ef fe 00 00 00 00	stxb [r10 - 273], r1
    6393:	18 01 00 00 04 8e 7b d8 00 00 00 00 db e9 f8 59	lddw r1, 6483188794038914564
    6395:	7b 1a c8 ff 00 00 00 00	stxdw [r10 - 56], r1
    6396:	18 01 00 00 0b 5a 13 99 00 00 00 00 da ff 10 84	lddw r1, -8930356746739557877
    6398:	7b 1a c0 ff 00 00 00 00	stxdw [r10 - 64], r1
    6399:	18 01 00 00 bb 3d 10 29 00 00 00 00 14 8e 0d 83	lddw r1, -9003383862804333125
    6401:	7b 1a b8 ff 00 00 00 00	stxdw [r10 - 72], r1
    6402:	18 01 00 00 8c 97 25 8f 00 00 00 00 4e 24 89 f1	lddw r1, -1042261918931904628
    6404:	7b 1a b0 ff 00 00 00 00	stxdw [r10 - 80], r1
    6405:	bf a7 00 00 00 00 00 00	mov64 r7, r10
    6406:	07 07 00 00 10 ff ff ff	add64 r7, -240
    6407:	bf 71 00 00 00 00 00 00	mov64 r1, r7
    6408:	7b 3a c8 fe 00 00 00 00	stxdw [r10 - 312], r3
    6409:	bf 32 00 00 00 00 00 00	mov64 r2, r3
    6410:	85 10 00 00 33 11 00 00	call 4403
    6411:	79 82 00 f0 00 00 00 00	ldxdw r2, [r8 - 4096]
    6412:	bf a8 00 00 00 00 00 00	mov64 r8, r10
    6413:	07 08 00 00 38 ff ff ff	add64 r8, -200
    6414:	bf 81 00 00 00 00 00 00	mov64 r1, r8
    6415:	7b 2a d0 fe 00 00 00 00	stxdw [r10 - 304], r2
    6416:	85 10 00 00 2d 11 00 00	call 4397
    6417:	bf a9 00 00 00 00 00 00	mov64 r9, r10
    6418:	07 09 00 00 60 ff ff ff	add64 r9, -160
    6419:	bf 91 00 00 00 00 00 00	mov64 r1, r9
    6420:	7b 6a d8 fe 00 00 00 00	stxdw [r10 - 296], r6
    6421:	bf 62 00 00 00 00 00 00	mov64 r2, r6
    6422:	85 10 00 00 27 11 00 00	call 4391
    6423:	7b 9a f0 ff 00 00 00 00	stxdw [r10 - 16], r9
    6424:	7b 8a e0 ff 00 00 00 00	stxdw [r10 - 32], r8
    6425:	b7 01 00 00 20 00 00 00	mov64 r1, 32
    6426:	7b 1a f8 ff 00 00 00 00	stxdw [r10 - 8], r1
    6427:	7b 1a e8 ff 00 00 00 00	stxdw [r10 - 24], r1
    6428:	7b 1a d8 ff 00 00 00 00	stxdw [r10 - 40], r1
    6429:	7b 7a d0 ff 00 00 00 00	stxdw [r10 - 48], r7
    6430:	bf a1 00 00 00 00 00 00	mov64 r1, r10
    6431:	07 01 00 00 88 ff ff ff	add64 r1, -120
    6432:	bf a2 00 00 00 00 00 00	mov64 r2, r10
    6433:	07 02 00 00 d0 ff ff ff	add64 r2, -48
    6434:	bf a4 00 00 00 00 00 00	mov64 r4, r10
    6435:	07 04 00 00 b0 ff ff ff	add64 r4, -80
    6436:	b7 03 00 00 03 00 00 00	mov64 r3, 3
    6437:	85 10 00 00 ac 16 00 00	call 5804
    6438:	79 a1 88 ff 00 00 00 00	ldxdw r1, [r10 - 120]
    6439:	7b 1a f0 fe 00 00 00 00	stxdw [r10 - 272], r1
    6440:	79 a1 90 ff 00 00 00 00	ldxdw r1, [r10 - 112]
    6441:	7b 1a f8 fe 00 00 00 00	stxdw [r10 - 264], r1
    6442:	79 a1 98 ff 00 00 00 00	ldxdw r1, [r10 - 104]
    6443:	7b 1a 00 ff 00 00 00 00	stxdw [r10 - 256], r1
    6444:	79 a1 a0 ff 00 00 00 00	ldxdw r1, [r10 - 96]
    6445:	7b 1a 08 ff 00 00 00 00	stxdw [r10 - 248], r1
    6446:	79 a2 e0 fe 00 00 00 00	ldxdw r2, [r10 - 288]
    6447:	57 02 00 00 ff 00 00 00	and64 r2, 255
    6448:	b7 01 00 00 02 00 00 00	mov64 r1, 2
    6449:	2d 21 1a 00 00 00 00 00	jgt r1, r2, +26 <custom_panic+0x15e8>
    6450:	bf a2 00 00 00 00 00 00	mov64 r2, r10
    6451:	07 02 00 00 ef fe ff ff	add64 r2, -273
    6452:	7b 2a 60 ff 00 00 00 00	stxdw [r10 - 160], r2
    6453:	b7 02 00 00 00 00 00 00	mov64 r2, 0
    6454:	7b 2a f0 ff 00 00 00 00	stxdw [r10 - 16], r2
    6455:	7b 1a d8 ff 00 00 00 00	stxdw [r10 - 40], r1
    6456:	18 01 00 00 a8 7b 02 00 00 00 00 00 00 00 00 00	lddw r1, 162728
    6458:	7b 1a d0 ff 00 00 00 00	stxdw [r10 - 48], r1
    6459:	b7 01 00 00 01 00 00 00	mov64 r1, 1
    6460:	7b 1a e8 ff 00 00 00 00	stxdw [r10 - 24], r1
    6461:	bf a1 00 00 00 00 00 00	mov64 r1, r10
    6462:	07 01 00 00 88 ff ff ff	add64 r1, -120
    6463:	7b 1a e0 ff 00 00 00 00	stxdw [r10 - 32], r1
    6464:	18 01 00 00 00 c7 00 00 00 00 00 00 00 00 00 00	lddw r1, 50944
    6466:	7b 1a 90 ff 00 00 00 00	stxdw [r10 - 112], r1
    6467:	bf a1 00 00 00 00 00 00	mov64 r1, r10
    6468:	07 01 00 00 60 ff ff ff	add64 r1, -160
    6469:	7b 1a 88 ff 00 00 00 00	stxdw [r10 - 120], r1
    6470:	bf a1 00 00 00 00 00 00	mov64 r1, r10
    6471:	07 01 00 00 d0 ff ff ff	add64 r1, -48
    6472:	18 02 00 00 c8 7b 02 00 00 00 00 00 00 00 00 00	lddw r2, 162760
    6474:	85 10 00 00 0e 20 00 00	call 8206
    6475:	85 10 00 00 ff ff ff ff	call -1
    6476:	b7 01 00 00 cc 00 00 00	mov64 r1, 204
    6477:	b7 02 00 00 01 00 00 00	mov64 r2, 1
    6478:	85 10 00 00 04 fd ff ff	call -764
    6479:	bf 07 00 00 00 00 00 00	mov64 r7, r0
    6480:	55 07 04 00 00 00 00 00	jne r7, 0, +4 <custom_panic+0x1630>
    6481:	b7 01 00 00 01 00 00 00	mov64 r1, 1
    6482:	b7 02 00 00 cc 00 00 00	mov64 r2, 204
    6483:	85 10 00 00 3c 1d 00 00	call 7484
    6484:	85 10 00 00 ff ff ff ff	call -1
    6485:	bf a1 00 00 00 00 00 00	mov64 r1, r10
    6486:	07 01 00 00 10 ff ff ff	add64 r1, -240
    6487:	7b 1a b0 fe 00 00 00 00	stxdw [r10 - 336], r1
    6488:	79 a2 c0 fe 00 00 00 00	ldxdw r2, [r10 - 320]
    6489:	b7 03 00 00 01 00 00 00	mov64 r3, 1
    6490:	85 10 00 00 94 14 00 00	call 5268
    6491:	79 a1 08 ff 00 00 00 00	ldxdw r1, [r10 - 248]
    6492:	7b 1a e8 ff 00 00 00 00	stxdw [r10 - 24], r1
    6493:	79 a1 00 ff 00 00 00 00	ldxdw r1, [r10 - 256]
    6494:	7b 1a e0 ff 00 00 00 00	stxdw [r10 - 32], r1
    6495:	79 a1 f8 fe 00 00 00 00	ldxdw r1, [r10 - 264]
    6496:	7b 1a d8 ff 00 00 00 00	stxdw [r10 - 40], r1
    6497:	79 a1 f0 fe 00 00 00 00	ldxdw r1, [r10 - 272]
    6498:	7b 1a d0 ff 00 00 00 00	stxdw [r10 - 48], r1
    6499:	bf a6 00 00 00 00 00 00	mov64 r6, r10
    6500:	07 06 00 00 38 ff ff ff	add64 r6, -200
    6501:	bf a2 00 00 00 00 00 00	mov64 r2, r10
    6502:	07 02 00 00 d0 ff ff ff	add64 r2, -48
    6503:	bf 61 00 00 00 00 00 00	mov64 r1, r6
    6504:	b7 03 00 00 00 00 00 00	mov64 r3, 0
    6505:	85 10 00 00 85 14 00 00	call 5253
    6506:	bf a1 00 00 00 00 00 00	mov64 r1, r10
    6507:	07 01 00 00 60 ff ff ff	add64 r1, -160
    6508:	7b 1a c0 fe 00 00 00 00	stxdw [r10 - 320], r1
    6509:	79 a2 c8 fe 00 00 00 00	ldxdw r2, [r10 - 312]
    6510:	b7 03 00 00 00 00 00 00	mov64 r3, 0
    6511:	85 10 00 00 8b 14 00 00	call 5259
    6512:	bf a1 00 00 00 00 00 00	mov64 r1, r10
    6513:	07 01 00 00 88 ff ff ff	add64 r1, -120
    6514:	7b 1a c8 fe 00 00 00 00	stxdw [r10 - 312], r1
    6515:	79 a2 d8 fe 00 00 00 00	ldxdw r2, [r10 - 296]
    6516:	b7 03 00 00 00 00 00 00	mov64 r3, 0
    6517:	85 10 00 00 85 14 00 00	call 5253
    6518:	bf a8 00 00 00 00 00 00	mov64 r8, r10
    6519:	07 08 00 00 b0 ff ff ff	add64 r8, -80
    6520:	bf 81 00 00 00 00 00 00	mov64 r1, r8
    6521:	85 10 00 00 48 18 00 00	call 6216
    6522:	bf a9 00 00 00 00 00 00	mov64 r9, r10
    6523:	07 09 00 00 d0 ff ff ff	add64 r9, -48
    6524:	bf 91 00 00 00 00 00 00	mov64 r1, r9
    6525:	bf 82 00 00 00 00 00 00	mov64 r2, r8
    6526:	b7 03 00 00 00 00 00 00	mov64 r3, 0
    6527:	85 10 00 00 7b 14 00 00	call 5243
    6528:	bf 71 00 00 00 00 00 00	mov64 r1, r7
    6529:	07 01 00 00 aa 00 00 00	add64 r1, 170
    6530:	79 a2 d0 fe 00 00 00 00	ldxdw r2, [r10 - 304]
    6531:	b7 03 00 00 00 00 00 00	mov64 r3, 0
    6532:	85 10 00 00 76 14 00 00	call 5238
    6533:	bf 71 00 00 00 00 00 00	mov64 r1, r7
    6534:	79 a2 b0 fe 00 00 00 00	ldxdw r2, [r10 - 336]
    6535:	b7 03 00 00 22 00 00 00	mov64 r3, 34
    6536:	85 10 00 00 11 2e 00 00	call 11793
    6537:	bf 71 00 00 00 00 00 00	mov64 r1, r7
    6538:	07 01 00 00 22 00 00 00	add64 r1, 34
    6539:	bf 62 00 00 00 00 00 00	mov64 r2, r6
    6540:	b7 03 00 00 22 00 00 00	mov64 r3, 34
    6541:	85 10 00 00 0c 2e 00 00	call 11788
    6542:	bf 71 00 00 00 00 00 00	mov64 r1, r7
    6543:	07 01 00 00 44 00 00 00	add64 r1, 68
    6544:	79 a2 c0 fe 00 00 00 00	ldxdw r2, [r10 - 320]
    6545:	b7 03 00 00 22 00 00 00	mov64 r3, 34
    6546:	85 10 00 00 07 2e 00 00	call 11783
    6547:	bf 71 00 00 00 00 00 00	mov64 r1, r7
    6548:	07 01 00 00 66 00 00 00	add64 r1, 102
    6549:	79 a2 c8 fe 00 00 00 00	ldxdw r2, [r10 - 312]
    6550:	b7 03 00 00 22 00 00 00	mov64 r3, 34
    6551:	85 10 00 00 02 2e 00 00	call 11778
    6552:	bf 71 00 00 00 00 00 00	mov64 r1, r7
    6553:	07 01 00 00 88 00 00 00	add64 r1, 136
    6554:	bf 92 00 00 00 00 00 00	mov64 r2, r9
    6555:	b7 03 00 00 22 00 00 00	mov64 r3, 34
    6556:	85 10 00 00 fd 2d 00 00	call 11773
    6557:	b7 08 00 00 00 04 00 00	mov64 r8, 1024
    6558:	b7 01 00 00 00 04 00 00	mov64 r1, 1024
    6559:	b7 02 00 00 01 00 00 00	mov64 r2, 1
    6560:	85 10 00 00 b2 fc ff ff	call -846
    6561:	55 00 04 00 00 00 00 00	jne r0, 0, +4 <custom_panic+0x18b8>
    6562:	b7 01 00 00 01 00 00 00	mov64 r1, 1
    6563:	b7 02 00 00 00 04 00 00	mov64 r2, 1024
    6564:	85 10 00 00 eb 1c 00 00	call 7403
    6565:	85 10 00 00 ff ff ff ff	call -1
    6566:	79 a1 e0 fe 00 00 00 00	ldxdw r1, [r10 - 288]
    6567:	73 10 00 00 00 00 00 00	stxb [r0 + 0], r1
    6568:	18 01 00 00 04 8e 7b d8 00 00 00 00 db e9 f8 59	lddw r1, 6483188794038914564
    6570:	79 a2 b8 fe 00 00 00 00	ldxdw r2, [r10 - 328]
    6571:	7b 12 48 00 00 00 00 00	stxdw [r2 + 72], r1
    6572:	18 01 00 00 0b 5a 13 99 00 00 00 00 da ff 10 84	lddw r1, -8930356746739557877
    6574:	7b 12 40 00 00 00 00 00	stxdw [r2 + 64], r1
    6575:	18 01 00 00 bb 3d 10 29 00 00 00 00 14 8e 0d 83	lddw r1, -9003383862804333125
    6577:	7b 12 38 00 00 00 00 00	stxdw [r2 + 56], r1
    6578:	18 01 00 00 8c 97 25 8f 00 00 00 00 4e 24 89 f1	lddw r1, -1042261918931904628
    6580:	7b 12 30 00 00 00 00 00	stxdw [r2 + 48], r1
    6581:	b7 01 00 00 01 00 00 00	mov64 r1, 1
    6582:	7b 12 28 00 00 00 00 00	stxdw [r2 + 40], r1
    6583:	7b 82 20 00 00 00 00 00	stxdw [r2 + 32], r8
    6584:	7b 02 18 00 00 00 00 00	stxdw [r2 + 24], r0
    6585:	b7 01 00 00 06 00 00 00	mov64 r1, 6
    6586:	7b 12 10 00 00 00 00 00	stxdw [r2 + 16], r1
    6587:	7b 12 08 00 00 00 00 00	stxdw [r2 + 8], r1
    6588:	7b 72 00 00 00 00 00 00	stxdw [r2 + 0], r7
    6589:	95 00 00 00 00 00 00 00	exit
    6590:	7b 5a 00 f0 00 00 00 00	stxdw [r10 - 4096], r5
    6591:	b7 05 00 00 00 00 00 00	mov64 r5, 0
    6592:	7b 5a 08 f0 00 00 00 00	stxdw [r10 - 4088], r5
    6593:	bf a5 00 00 00 00 00 00	mov64 r5, r10
    6594:	85 10 00 00 2f ff ff ff	call -209
    6595:	95 00 00 00 00 00 00 00	exit
    6596:	71 10 31 00 00 00 00 00	ldxb r0, [r1 + 49]
    6597:	95 00 00 00 00 00 00 00	exit
    6598:	bf 27 00 00 00 00 00 00	mov64 r7, r2
    6599:	bf 16 00 00 00 00 00 00	mov64 r6, r1
    6600:	25 03 06 00 51 00 00 00	jgt r3, 81, +6 <custom_panic+0x1a00>
    6601:	b7 01 00 00 52 00 00 00	mov64 r1, 82
    6602:	bf 32 00 00 00 00 00 00	mov64 r2, r3
    6603:	18 03 00 00 e0 7b 02 00 00 00 00 00 00 00 00 00	lddw r3, 162784
    6605:	85 10 00 00 82 26 00 00	call 9858
    6606:	85 10 00 00 ff ff ff ff	call -1
    6607:	71 71 00 00 00 00 00 00	ldxb r1, [r7 + 0]
    6608:	15 01 12 00 00 00 00 00	jeq r1, 0, +18 <custom_panic+0x1aa0>
    6609:	15 01 19 00 01 00 00 00	jeq r1, 1, +25 <custom_panic+0x1ae0>
    6610:	b7 01 00 00 03 00 00 00	mov64 r1, 3
    6611:	63 1a 98 ff 00 00 00 00	stxw [r10 - 104], r1
    6612:	79 a1 a0 ff 00 00 00 00	ldxdw r1, [r10 - 96]
    6613:	7b 1a 78 ff 00 00 00 00	stxdw [r10 - 136], r1
    6614:	79 a2 a8 ff 00 00 00 00	ldxdw r2, [r10 - 88]
    6615:	7b 2a 80 ff 00 00 00 00	stxdw [r10 - 128], r2
    6616:	79 a3 b0 ff 00 00 00 00	ldxdw r3, [r10 - 80]
    6617:	7b 3a 88 ff 00 00 00 00	stxdw [r10 - 120], r3
    6618:	79 a4 98 ff 00 00 00 00	ldxdw r4, [r10 - 104]
    6619:	7b 4a 70 ff 00 00 00 00	stxdw [r10 - 144], r4
    6620:	7b 36 20 00 00 00 00 00	stxdw [r6 + 32], r3
    6621:	7b 26 18 00 00 00 00 00	stxdw [r6 + 24], r2
    6622:	7b 16 10 00 00 00 00 00	stxdw [r6 + 16], r1
    6623:	7b 46 08 00 00 00 00 00	stxdw [r6 + 8], r4
    6624:	b7 01 00 00 02 00 00 00	mov64 r1, 2
    6625:	63 16 00 00 00 00 00 00	stxw [r6 + 0], r1
    6626:	95 00 00 00 00 00 00 00	exit
    6627:	71 71 01 00 00 00 00 00	ldxb r1, [r7 + 1]
    6628:	55 01 ed ff 00 00 00 00	jne r1, 0, -19 <custom_panic+0x1a18>
    6629:	71 71 02 00 00 00 00 00	ldxb r1, [r7 + 2]
    6630:	55 01 eb ff 00 00 00 00	jne r1, 0, -21 <custom_panic+0x1a18>
    6631:	b7 01 00 00 00 00 00 00	mov64 r1, 0
    6632:	71 72 03 00 00 00 00 00	ldxb r2, [r7 + 3]
    6633:	15 02 15 00 00 00 00 00	jeq r2, 0, +21 <custom_panic+0x1b80>
    6634:	05 00 e7 ff 00 00 00 00	ja -25 <custom_panic+0x1a18>
    6635:	71 71 01 00 00 00 00 00	ldxb r1, [r7 + 1]
    6636:	55 01 e5 ff 00 00 00 00	jne r1, 0, -27 <custom_panic+0x1a18>
    6637:	71 71 02 00 00 00 00 00	ldxb r1, [r7 + 2]
    6638:	55 01 e3 ff 00 00 00 00	jne r1, 0, -29 <custom_panic+0x1a18>
    6639:	71 71 03 00 00 00 00 00	ldxb r1, [r7 + 3]
    6640:	55 01 e1 ff 00 00 00 00	jne r1, 0, -31 <custom_panic+0x1a18>
    6641:	79 71 04 00 00 00 00 00	ldxdw r1, [r7 + 4]
    6642:	79 72 0c 00 00 00 00 00	ldxdw r2, [r7 + 12]
    6643:	79 73 14 00 00 00 00 00	ldxdw r3, [r7 + 20]
    6644:	79 74 1c 00 00 00 00 00	ldxdw r4, [r7 + 28]
    6645:	7b 4a f8 ff 00 00 00 00	stxdw [r10 - 8], r4
    6646:	7b 3a f0 ff 00 00 00 00	stxdw [r10 - 16], r3
    6647:	7b 2a e8 ff 00 00 00 00	stxdw [r10 - 24], r2
    6648:	7b 1a e0 ff 00 00 00 00	stxdw [r10 - 32], r1
    6649:	bf a1 00 00 00 00 00 00	mov64 r1, r10
    6650:	07 01 00 00 98 ff ff ff	add64 r1, -104
    6651:	bf a2 00 00 00 00 00 00	mov64 r2, r10
    6652:	07 02 00 00 e0 ff ff ff	add64 r2, -32
    6653:	85 10 00 00 37 10 00 00	call 4151
    6654:	b7 01 00 00 01 00 00 00	mov64 r1, 1
    6655:	63 1a 94 ff 00 00 00 00	stxw [r10 - 108], r1
    6656:	bf a8 00 00 00 00 00 00	mov64 r8, r10
    6657:	07 08 00 00 6c ff ff ff	add64 r8, -148
    6658:	bf a2 00 00 00 00 00 00	mov64 r2, r10
    6659:	07 02 00 00 94 ff ff ff	add64 r2, -108
    6660:	bf 81 00 00 00 00 00 00	mov64 r1, r8
    6661:	b7 03 00 00 24 00 00 00	mov64 r3, 36
    6662:	85 10 00 00 93 2d 00 00	call 11667
    6663:	bf a1 00 00 00 00 00 00	mov64 r1, r10
    6664:	07 01 00 00 48 ff ff ff	add64 r1, -184
    6665:	bf 82 00 00 00 00 00 00	mov64 r2, r8
    6666:	b7 03 00 00 24 00 00 00	mov64 r3, 36
    6667:	85 10 00 00 8e 2d 00 00	call 11662
    6668:	b7 09 00 00 00 00 00 00	mov64 r9, 0
    6669:	71 73 2c 00 00 00 00 00	ldxb r3, [r7 + 44]
    6670:	79 78 24 00 00 00 00 00	ldxdw r8, [r7 + 36]
    6671:	71 71 2d 00 00 00 00 00	ldxb r1, [r7 + 45]
    6672:	15 01 07 00 00 00 00 00	jeq r1, 0, +7 <custom_panic+0x1c48>
    6673:	15 01 05 00 01 00 00 00	jeq r1, 1, +5 <custom_panic+0x1c40>
    6674:	b7 01 00 00 02 00 00 00	mov64 r1, 2
    6675:	63 16 00 00 00 00 00 00	stxw [r6 + 0], r1
    6676:	b7 01 00 00 03 00 00 00	mov64 r1, 3
    6677:	63 16 08 00 00 00 00 00	stxw [r6 + 8], r1
    6678:	05 00 cb ff 00 00 00 00	ja -53 <custom_panic+0x1a98>
    6679:	b7 09 00 00 01 00 00 00	mov64 r9, 1
    6680:	71 71 2e 00 00 00 00 00	ldxb r1, [r7 + 46]
    6681:	15 01 02 00 00 00 00 00	jeq r1, 0, +2 <custom_panic+0x1c68>
    6682:	15 01 09 00 01 00 00 00	jeq r1, 1, +9 <custom_panic+0x1ca8>
    6683:	05 00 b6 ff 00 00 00 00	ja -74 <custom_panic+0x1a18>
    6684:	71 71 2f 00 00 00 00 00	ldxb r1, [r7 + 47]
    6685:	55 01 fd ff 00 00 00 00	jne r1, 0, -3 <custom_panic+0x1c60>
    6686:	71 71 30 00 00 00 00 00	ldxb r1, [r7 + 48]
    6687:	55 01 fb ff 00 00 00 00	jne r1, 0, -5 <custom_panic+0x1c60>
    6688:	b7 01 00 00 00 00 00 00	mov64 r1, 0
    6689:	71 72 31 00 00 00 00 00	ldxb r2, [r7 + 49]
    6690:	15 02 17 00 00 00 00 00	jeq r2, 0, +23 <custom_panic+0x1d58>
    6691:	05 00 f7 ff 00 00 00 00	ja -9 <custom_panic+0x1c60>
    6692:	71 71 2f 00 00 00 00 00	ldxb r1, [r7 + 47]
    6693:	55 01 f5 ff 00 00 00 00	jne r1, 0, -11 <custom_panic+0x1c60>
    6694:	71 71 30 00 00 00 00 00	ldxb r1, [r7 + 48]
    6695:	55 01 f3 ff 00 00 00 00	jne r1, 0, -13 <custom_panic+0x1c60>
    6696:	71 71 31 00 00 00 00 00	ldxb r1, [r7 + 49]
    6697:	55 01 f1 ff 00 00 00 00	jne r1, 0, -15 <custom_panic+0x1c60>
    6698:	79 71 32 00 00 00 00 00	ldxdw r1, [r7 + 50]
    6699:	79 72 3a 00 00 00 00 00	ldxdw r2, [r7 + 58]
    6700:	7b 3a 40 ff 00 00 00 00	stxdw [r10 - 192], r3
    6701:	79 73 42 00 00 00 00 00	ldxdw r3, [r7 + 66]
    6702:	79 74 4a 00 00 00 00 00	ldxdw r4, [r7 + 74]
    6703:	7b 4a f8 ff 00 00 00 00	stxdw [r10 - 8], r4
    6704:	7b 3a f0 ff 00 00 00 00	stxdw [r10 - 16], r3
    6705:	7b 2a e8 ff 00 00 00 00	stxdw [r10 - 24], r2
    6706:	7b 1a e0 ff 00 00 00 00	stxdw [r10 - 32], r1
    6707:	bf a1 00 00 00 00 00 00	mov64 r1, r10
    6708:	07 01 00 00 98 ff ff ff	add64 r1, -104
    6709:	bf a2 00 00 00 00 00 00	mov64 r2, r10
    6710:	07 02 00 00 e0 ff ff ff	add64 r2, -32
    6711:	85 10 00 00 fd 0f 00 00	call 4093
    6712:	79 a3 40 ff 00 00 00 00	ldxdw r3, [r10 - 192]
    6713:	b7 01 00 00 01 00 00 00	mov64 r1, 1
    6714:	7b 3a 40 ff 00 00 00 00	stxdw [r10 - 192], r3
    6715:	63 1a 94 ff 00 00 00 00	stxw [r10 - 108], r1
    6716:	bf a7 00 00 00 00 00 00	mov64 r7, r10
    6717:	07 07 00 00 6c ff ff ff	add64 r7, -148
    6718:	bf a2 00 00 00 00 00 00	mov64 r2, r10
    6719:	07 02 00 00 94 ff ff ff	add64 r2, -108
    6720:	bf 71 00 00 00 00 00 00	mov64 r1, r7
    6721:	b7 03 00 00 24 00 00 00	mov64 r3, 36
    6722:	85 10 00 00 57 2d 00 00	call 11607
    6723:	7b 8a 38 ff 00 00 00 00	stxdw [r10 - 200], r8
    6724:	bf a8 00 00 00 00 00 00	mov64 r8, r10
    6725:	07 08 00 00 b8 ff ff ff	add64 r8, -72
    6726:	bf 81 00 00 00 00 00 00	mov64 r1, r8
    6727:	bf 72 00 00 00 00 00 00	mov64 r2, r7
    6728:	b7 03 00 00 24 00 00 00	mov64 r3, 36
    6729:	85 10 00 00 50 2d 00 00	call 11600
    6730:	bf a2 00 00 00 00 00 00	mov64 r2, r10
    6731:	07 02 00 00 48 ff ff ff	add64 r2, -184
    6732:	bf 61 00 00 00 00 00 00	mov64 r1, r6
    6733:	b7 03 00 00 24 00 00 00	mov64 r3, 36
    6734:	85 10 00 00 4b 2d 00 00	call 11595
    6735:	bf a1 00 00 00 00 00 00	mov64 r1, r10
    6736:	07 01 00 00 92 ff ff ff	add64 r1, -110
    6737:	bf 82 00 00 00 00 00 00	mov64 r2, r8
    6738:	b7 03 00 00 24 00 00 00	mov64 r3, 36
    6739:	85 10 00 00 46 2d 00 00	call 11590
    6740:	73 96 31 00 00 00 00 00	stxb [r6 + 49], r9
    6741:	79 a1 40 ff 00 00 00 00	ldxdw r1, [r10 - 192]
    6742:	73 16 30 00 00 00 00 00	stxb [r6 + 48], r1
    6743:	79 a1 38 ff 00 00 00 00	ldxdw r1, [r10 - 200]
    6744:	7b 16 28 00 00 00 00 00	stxdw [r6 + 40], r1
    6745:	07 06 00 00 32 00 00 00	add64 r6, 50
    6746:	bf a2 00 00 00 00 00 00	mov64 r2, r10
    6747:	07 02 00 00 90 ff ff ff	add64 r2, -112
    6748:	bf 61 00 00 00 00 00 00	mov64 r1, r6
    6749:	b7 03 00 00 26 00 00 00	mov64 r3, 38
    6750:	85 10 00 00 3b 2d 00 00	call 11579
    6751:	05 00 82 ff 00 00 00 00	ja -126 <custom_panic+0x1a98>
    6752:	71 11 6c 00 00 00 00 00	ldxb r1, [r1 + 108]
    6753:	b7 00 00 00 01 00 00 00	mov64 r0, 1
    6754:	55 01 01 00 00 00 00 00	jne r1, 0, +1 <custom_panic+0x1ea8>
    6755:	b7 00 00 00 00 00 00 00	mov64 r0, 0
    6756:	95 00 00 00 00 00 00 00	exit
    6757:	bf 27 00 00 00 00 00 00	mov64 r7, r2
    6758:	bf 16 00 00 00 00 00 00	mov64 r6, r1
    6759:	25 03 06 00 a4 00 00 00	jgt r3, 164, +6 <custom_panic+0x1ef8>
    6760:	b7 01 00 00 a5 00 00 00	mov64 r1, 165
    6761:	bf 32 00 00 00 00 00 00	mov64 r2, r3
    6762:	18 03 00 00 f8 7b 02 00 00 00 00 00 00 00 00 00	lddw r3, 162808
    6764:	85 10 00 00 e3 25 00 00	call 9699
    6765:	85 10 00 00 ff ff ff ff	call -1
    6766:	79 71 00 00 00 00 00 00	ldxdw r1, [r7 + 0]
    6767:	79 72 08 00 00 00 00 00	ldxdw r2, [r7 + 8]
    6768:	79 73 10 00 00 00 00 00	ldxdw r3, [r7 + 16]
    6769:	79 74 18 00 00 00 00 00	ldxdw r4, [r7 + 24]
    6770:	7b 4a d0 ff 00 00 00 00	stxdw [r10 - 48], r4
    6771:	7b 3a c8 ff 00 00 00 00	stxdw [r10 - 56], r3
    6772:	7b 2a c0 ff 00 00 00 00	stxdw [r10 - 64], r2
    6773:	7b 1a b8 ff 00 00 00 00	stxdw [r10 - 72], r1
    6774:	bf a1 00 00 00 00 00 00	mov64 r1, r10
    6775:	07 01 00 00 30 ff ff ff	add64 r1, -208
    6776:	bf a2 00 00 00 00 00 00	mov64 r2, r10
    6777:	07 02 00 00 b8 ff ff ff	add64 r2, -72
    6778:	85 10 00 00 ba 0f 00 00	call 4026
    6779:	79 71 20 00 00 00 00 00	ldxdw r1, [r7 + 32]
    6780:	79 72 28 00 00 00 00 00	ldxdw r2, [r7 + 40]
    6781:	79 73 30 00 00 00 00 00	ldxdw r3, [r7 + 48]
    6782:	79 74 38 00 00 00 00 00	ldxdw r4, [r7 + 56]
    6783:	7b 4a d0 ff 00 00 00 00	stxdw [r10 - 48], r4
    6784:	7b 3a c8 ff 00 00 00 00	stxdw [r10 - 56], r3
    6785:	7b 2a c0 ff 00 00 00 00	stxdw [r10 - 64], r2
    6786:	7b 1a b8 ff 00 00 00 00	stxdw [r10 - 72], r1
    6787:	bf a1 00 00 00 00 00 00	mov64 r1, r10
    6788:	07 01 00 00 50 ff ff ff	add64 r1, -176
    6789:	bf a2 00 00 00 00 00 00	mov64 r2, r10
    6790:	07 02 00 00 b8 ff ff ff	add64 r2, -72
    6791:	85 10 00 00 ad 0f 00 00	call 4013
    6792:	79 78 40 00 00 00 00 00	ldxdw r8, [r7 + 64]
    6793:	71 71 48 00 00 00 00 00	ldxb r1, [r7 + 72]
    6794:	15 01 12 00 00 00 00 00	jeq r1, 0, +18 <custom_panic+0x2070>
    6795:	15 01 19 00 01 00 00 00	jeq r1, 1, +25 <custom_panic+0x20b0>
    6796:	b7 01 00 00 03 00 00 00	mov64 r1, 3
    6797:	63 1a c0 ff 00 00 00 00	stxw [r10 - 64], r1
    6798:	79 a1 c8 ff 00 00 00 00	ldxdw r1, [r10 - 56]
    6799:	7b 1a 7c ff 00 00 00 00	stxdw [r10 - 132], r1
    6800:	79 a2 d0 ff 00 00 00 00	ldxdw r2, [r10 - 48]
    6801:	7b 2a 84 ff 00 00 00 00	stxdw [r10 - 124], r2
    6802:	79 a3 d8 ff 00 00 00 00	ldxdw r3, [r10 - 40]
    6803:	7b 3a 8c ff 00 00 00 00	stxdw [r10 - 116], r3
    6804:	79 a4 c0 ff 00 00 00 00	ldxdw r4, [r10 - 64]
    6805:	7b 4a 74 ff 00 00 00 00	stxdw [r10 - 140], r4
    6806:	7b 36 18 00 00 00 00 00	stxdw [r6 + 24], r3
    6807:	7b 26 10 00 00 00 00 00	stxdw [r6 + 16], r2
    6808:	7b 16 08 00 00 00 00 00	stxdw [r6 + 8], r1
    6809:	7b 46 00 00 00 00 00 00	stxdw [r6 + 0], r4
    6810:	b7 01 00 00 02 00 00 00	mov64 r1, 2
    6811:	63 16 88 00 00 00 00 00	stxw [r6 + 136], r1
    6812:	05 00 38 00 00 00 00 00	ja +56 <custom_panic+0x2230>
    6813:	71 71 49 00 00 00 00 00	ldxb r1, [r7 + 73]
    6814:	55 01 ed ff 00 00 00 00	jne r1, 0, -19 <custom_panic+0x1fe8>
    6815:	71 71 4a 00 00 00 00 00	ldxb r1, [r7 + 74]
    6816:	55 01 eb ff 00 00 00 00	jne r1, 0, -21 <custom_panic+0x1fe8>
    6817:	b7 01 00 00 00 00 00 00	mov64 r1, 0
    6818:	71 72 4b 00 00 00 00 00	ldxb r2, [r7 + 75]
    6819:	15 02 15 00 00 00 00 00	jeq r2, 0, +21 <custom_panic+0x2150>
    6820:	05 00 e7 ff 00 00 00 00	ja -25 <custom_panic+0x1fe8>
    6821:	71 71 49 00 00 00 00 00	ldxb r1, [r7 + 73]
    6822:	55 01 e5 ff 00 00 00 00	jne r1, 0, -27 <custom_panic+0x1fe8>
    6823:	71 71 4a 00 00 00 00 00	ldxb r1, [r7 + 74]
    6824:	55 01 e3 ff 00 00 00 00	jne r1, 0, -29 <custom_panic+0x1fe8>
    6825:	71 71 4b 00 00 00 00 00	ldxb r1, [r7 + 75]
    6826:	55 01 e1 ff 00 00 00 00	jne r1, 0, -31 <custom_panic+0x1fe8>
    6827:	79 71 4c 00 00 00 00 00	ldxdw r1, [r7 + 76]
    6828:	79 72 54 00 00 00 00 00	ldxdw r2, [r7 + 84]
    6829:	79 73 5c 00 00 00 00 00	ldxdw r3, [r7 + 92]
    6830:	79 74 64 00 00 00 00 00	ldxdw r4, [r7 + 100]
    6831:	7b 4a ac ff 00 00 00 00	stxdw [r10 - 84], r4
    6832:	7b 3a a4 ff 00 00 00 00	stxdw [r10 - 92], r3
    6833:	7b 2a 9c ff 00 00 00 00	stxdw [r10 - 100], r2
    6834:	7b 1a 94 ff 00 00 00 00	stxdw [r10 - 108], r1
    6835:	bf a1 00 00 00 00 00 00	mov64 r1, r10
    6836:	07 01 00 00 c0 ff ff ff	add64 r1, -64
    6837:	bf a2 00 00 00 00 00 00	mov64 r2, r10
    6838:	07 02 00 00 94 ff ff ff	add64 r2, -108
    6839:	85 10 00 00 7d 0f 00 00	call 3965
    6840:	b7 01 00 00 01 00 00 00	mov64 r1, 1
    6841:	63 1a bc ff 00 00 00 00	stxw [r10 - 68], r1
    6842:	bf a1 00 00 00 00 00 00	mov64 r1, r10
    6843:	07 01 00 00 70 ff ff ff	add64 r1, -144
    6844:	bf a2 00 00 00 00 00 00	mov64 r2, r10
    6845:	07 02 00 00 bc ff ff ff	add64 r2, -68
    6846:	b7 03 00 00 24 00 00 00	mov64 r3, 36
    6847:	85 10 00 00 da 2c 00 00	call 11482
    6848:	71 79 6c 00 00 00 00 00	ldxb r9, [r7 + 108]
    6849:	b7 01 00 00 03 00 00 00	mov64 r1, 3
    6850:	2d 91 04 00 00 00 00 00	jgt r1, r9, +4 <custom_panic+0x21c0>
    6851:	b7 02 00 00 02 00 00 00	mov64 r2, 2
    6852:	63 26 88 00 00 00 00 00	stxw [r6 + 136], r2
    6853:	73 96 04 00 00 00 00 00	stxb [r6 + 4], r9
    6854:	05 00 0d 00 00 00 00 00	ja +13 <custom_panic+0x2228>
    6855:	71 71 6d 00 00 00 00 00	ldxb r1, [r7 + 109]
    6856:	15 01 0d 00 01 00 00 00	jeq r1, 1, +13 <custom_panic+0x2238>
    6857:	55 01 07 00 00 00 00 00	jne r1, 0, +7 <custom_panic+0x2210>
    6858:	71 71 6e 00 00 00 00 00	ldxb r1, [r7 + 110]
    6859:	55 01 05 00 00 00 00 00	jne r1, 0, +5 <custom_panic+0x2210>
    6860:	71 71 6f 00 00 00 00 00	ldxb r1, [r7 + 111]
    6861:	55 01 03 00 00 00 00 00	jne r1, 0, +3 <custom_panic+0x2210>
    6862:	b7 03 00 00 00 00 00 00	mov64 r3, 0
    6863:	71 71 70 00 00 00 00 00	ldxb r1, [r7 + 112]
    6864:	15 01 0e 00 00 00 00 00	jeq r1, 0, +14 <custom_panic+0x2280>
    6865:	b7 01 00 00 02 00 00 00	mov64 r1, 2
    6866:	63 16 88 00 00 00 00 00	stxw [r6 + 136], r1
    6867:	b7 01 00 00 03 00 00 00	mov64 r1, 3
    6868:	63 16 00 00 00 00 00 00	stxw [r6 + 0], r1
    6869:	95 00 00 00 00 00 00 00	exit
    6870:	71 71 6e 00 00 00 00 00	ldxb r1, [r7 + 110]
    6871:	55 01 f9 ff 00 00 00 00	jne r1, 0, -7 <custom_panic+0x2210>
    6872:	71 71 6f 00 00 00 00 00	ldxb r1, [r7 + 111]
    6873:	55 01 f7 ff 00 00 00 00	jne r1, 0, -9 <custom_panic+0x2210>
    6874:	71 71 70 00 00 00 00 00	ldxb r1, [r7 + 112]
    6875:	55 01 f5 ff 00 00 00 00	jne r1, 0, -11 <custom_panic+0x2210>
    6876:	b7 03 00 00 01 00 00 00	mov64 r3, 1
    6877:	79 71 71 00 00 00 00 00	ldxdw r1, [r7 + 113]
    6878:	7b 1a d8 fe 00 00 00 00	stxdw [r10 - 296], r1
    6879:	79 74 79 00 00 00 00 00	ldxdw r4, [r7 + 121]
    6880:	71 71 81 00 00 00 00 00	ldxb r1, [r7 + 129]
    6881:	15 01 0c 00 00 00 00 00	jeq r1, 0, +12 <custom_panic+0x22f8>
    6882:	15 01 13 00 01 00 00 00	jeq r1, 1, +19 <custom_panic+0x2338>
    6883:	b7 01 00 00 03 00 00 00	mov64 r1, 3
    6884:	63 1a c0 ff 00 00 00 00	stxw [r10 - 64], r1
    6885:	79 a1 c8 ff 00 00 00 00	ldxdw r1, [r10 - 56]
    6886:	7b 1a a0 ff 00 00 00 00	stxdw [r10 - 96], r1
    6887:	79 a2 d0 ff 00 00 00 00	ldxdw r2, [r10 - 48]
    6888:	7b 2a a8 ff 00 00 00 00	stxdw [r10 - 88], r2
    6889:	79 a3 d8 ff 00 00 00 00	ldxdw r3, [r10 - 40]
    6890:	7b 3a b0 ff 00 00 00 00	stxdw [r10 - 80], r3
    6891:	79 a4 c0 ff 00 00 00 00	ldxdw r4, [r10 - 64]
    6892:	7b 4a 98 ff 00 00 00 00	stxdw [r10 - 104], r4
    6893:	05 00 a8 ff 00 00 00 00	ja -88 <custom_panic+0x2038>
    6894:	71 71 82 00 00 00 00 00	ldxb r1, [r7 + 130]
    6895:	55 01 f3 ff 00 00 00 00	jne r1, 0, -13 <custom_panic+0x22a0>
    6896:	71 71 83 00 00 00 00 00	ldxb r1, [r7 + 131]
    6897:	55 01 f1 ff 00 00 00 00	jne r1, 0, -15 <custom_panic+0x22a0>
    6898:	b7 01 00 00 00 00 00 00	mov64 r1, 0
    6899:	71 72 84 00 00 00 00 00	ldxb r2, [r7 + 132]
    6900:	15 02 19 00 00 00 00 00	jeq r2, 0, +25 <custom_panic+0x23f8>
    6901:	05 00 ed ff 00 00 00 00	ja -19 <custom_panic+0x22a0>
    6902:	71 71 82 00 00 00 00 00	ldxb r1, [r7 + 130]
    6903:	55 01 eb ff 00 00 00 00	jne r1, 0, -21 <custom_panic+0x22a0>
    6904:	71 71 83 00 00 00 00 00	ldxb r1, [r7 + 131]
    6905:	55 01 e9 ff 00 00 00 00	jne r1, 0, -23 <custom_panic+0x22a0>
    6906:	71 71 84 00 00 00 00 00	ldxb r1, [r7 + 132]
    6907:	55 01 e7 ff 00 00 00 00	jne r1, 0, -25 <custom_panic+0x22a0>
    6908:	79 71 85 00 00 00 00 00	ldxdw r1, [r7 + 133]
    6909:	79 72 8d 00 00 00 00 00	ldxdw r2, [r7 + 141]
    6910:	7b 3a e8 fe 00 00 00 00	stxdw [r10 - 280], r3
    6911:	79 73 95 00 00 00 00 00	ldxdw r3, [r7 + 149]
    6912:	7b 4a e0 fe 00 00 00 00	stxdw [r10 - 288], r4
    6913:	79 74 9d 00 00 00 00 00	ldxdw r4, [r7 + 157]
    6914:	7b 4a f8 ff 00 00 00 00	stxdw [r10 - 8], r4
    6915:	7b 3a f0 ff 00 00 00 00	stxdw [r10 - 16], r3
    6916:	7b 2a e8 ff 00 00 00 00	stxdw [r10 - 24], r2
    6917:	7b 1a e0 ff 00 00 00 00	stxdw [r10 - 32], r1
    6918:	bf a1 00 00 00 00 00 00	mov64 r1, r10
    6919:	07 01 00 00 c0 ff ff ff	add64 r1, -64
    6920:	bf a2 00 00 00 00 00 00	mov64 r2, r10
    6921:	07 02 00 00 e0 ff ff ff	add64 r2, -32
    6922:	85 10 00 00 2a 0f 00 00	call 3882
    6923:	79 a4 e0 fe 00 00 00 00	ldxdw r4, [r10 - 288]
    6924:	79 a3 e8 fe 00 00 00 00	ldxdw r3, [r10 - 280]
    6925:	b7 01 00 00 01 00 00 00	mov64 r1, 1
    6926:	7b 4a e0 fe 00 00 00 00	stxdw [r10 - 288], r4
    6927:	7b 3a e8 fe 00 00 00 00	stxdw [r10 - 280], r3
    6928:	63 1a bc ff 00 00 00 00	stxw [r10 - 68], r1
    6929:	bf a7 00 00 00 00 00 00	mov64 r7, r10
    6930:	07 07 00 00 94 ff ff ff	add64 r7, -108
    6931:	bf a2 00 00 00 00 00 00	mov64 r2, r10
    6932:	07 02 00 00 bc ff ff ff	add64 r2, -68
    6933:	bf 71 00 00 00 00 00 00	mov64 r1, r7
    6934:	b7 03 00 00 24 00 00 00	mov64 r3, 36
    6935:	85 10 00 00 82 2c 00 00	call 11394
    6936:	bf 61 00 00 00 00 00 00	mov64 r1, r6
    6937:	07 01 00 00 88 00 00 00	add64 r1, 136
    6938:	bf 72 00 00 00 00 00 00	mov64 r2, r7
    6939:	b7 03 00 00 24 00 00 00	mov64 r3, 36
    6940:	85 10 00 00 7d 2c 00 00	call 11389
    6941:	79 a1 30 ff 00 00 00 00	ldxdw r1, [r10 - 208]
    6942:	7b 1a f0 fe 00 00 00 00	stxdw [r10 - 272], r1
    6943:	79 a1 38 ff 00 00 00 00	ldxdw r1, [r10 - 200]
    6944:	7b 1a f8 fe 00 00 00 00	stxdw [r10 - 264], r1
    6945:	79 a1 40 ff 00 00 00 00	ldxdw r1, [r10 - 192]
    6946:	7b 1a 00 ff 00 00 00 00	stxdw [r10 - 256], r1
    6947:	79 a1 48 ff 00 00 00 00	ldxdw r1, [r10 - 184]
    6948:	7b 1a 08 ff 00 00 00 00	stxdw [r10 - 248], r1
    6949:	79 a1 50 ff 00 00 00 00	ldxdw r1, [r10 - 176]
    6950:	7b 1a 10 ff 00 00 00 00	stxdw [r10 - 240], r1
    6951:	79 a1 58 ff 00 00 00 00	ldxdw r1, [r10 - 168]
    6952:	7b 1a 18 ff 00 00 00 00	stxdw [r10 - 232], r1
    6953:	79 a1 60 ff 00 00 00 00	ldxdw r1, [r10 - 160]
    6954:	7b 1a 20 ff 00 00 00 00	stxdw [r10 - 224], r1
    6955:	79 a1 68 ff 00 00 00 00	ldxdw r1, [r10 - 152]
    6956:	7b 1a 28 ff 00 00 00 00	stxdw [r10 - 216], r1
    6957:	bf 61 00 00 00 00 00 00	mov64 r1, r6
    6958:	07 01 00 00 48 00 00 00	add64 r1, 72
    6959:	bf a2 00 00 00 00 00 00	mov64 r2, r10
    6960:	07 02 00 00 70 ff ff ff	add64 r2, -144
    6961:	b7 03 00 00 24 00 00 00	mov64 r3, 36
    6962:	85 10 00 00 67 2c 00 00	call 11367
    6963:	bf a2 00 00 00 00 00 00	mov64 r2, r10
    6964:	07 02 00 00 f0 fe ff ff	add64 r2, -272
    6965:	bf 61 00 00 00 00 00 00	mov64 r1, r6
    6966:	b7 03 00 00 40 00 00 00	mov64 r3, 64
    6967:	85 10 00 00 62 2c 00 00	call 11362
    6968:	79 a1 e0 fe 00 00 00 00	ldxdw r1, [r10 - 288]
    6969:	7b 16 80 00 00 00 00 00	stxdw [r6 + 128], r1
    6970:	79 a1 d8 fe 00 00 00 00	ldxdw r1, [r10 - 296]
    6971:	7b 16 78 00 00 00 00 00	stxdw [r6 + 120], r1
    6972:	79 a1 e8 fe 00 00 00 00	ldxdw r1, [r10 - 280]
    6973:	63 16 70 00 00 00 00 00	stxw [r6 + 112], r1
    6974:	73 96 6c 00 00 00 00 00	stxb [r6 + 108], r9
    6975:	7b 86 40 00 00 00 00 00	stxdw [r6 + 64], r8
    6976:	05 00 94 ff 00 00 00 00	ja -108 <custom_panic+0x2230>
    6977:	bf 23 00 00 00 00 00 00	mov64 r3, r2
    6978:	79 11 00 00 00 00 00 00	ldxdw r1, [r1 + 0]
    6979:	79 12 10 00 00 00 00 00	ldxdw r2, [r1 + 16]
    6980:	79 11 00 00 00 00 00 00	ldxdw r1, [r1 + 0]
    6981:	85 10 00 00 9d 24 00 00	call 9373
    6982:	95 00 00 00 00 00 00 00	exit
    6983:	bf 23 00 00 00 00 00 00	mov64 r3, r2
    6984:	79 12 08 00 00 00 00 00	ldxdw r2, [r1 + 8]
    6985:	79 11 00 00 00 00 00 00	ldxdw r1, [r1 + 0]
    6986:	85 10 00 00 98 24 00 00	call 9368
    6987:	95 00 00 00 00 00 00 00	exit
    6988:	7b 1a c8 ff 00 00 00 00	stxdw [r10 - 56], r1
    6989:	bf a6 00 00 00 00 00 00	mov64 r6, r10
    6990:	07 06 00 00 d0 ff ff ff	add64 r6, -48
    6991:	bf 61 00 00 00 00 00 00	mov64 r1, r6
    6992:	b7 03 00 00 30 00 00 00	mov64 r3, 48
    6993:	85 10 00 00 48 2c 00 00	call 11336
    6994:	bf a1 00 00 00 00 00 00	mov64 r1, r10
    6995:	07 01 00 00 c8 ff ff ff	add64 r1, -56
    6996:	18 02 00 00 78 7c 02 00 00 00 00 00 00 00 00 00	lddw r2, 162936
    6998:	bf 63 00 00 00 00 00 00	mov64 r3, r6
    6999:	85 10 00 00 d7 20 00 00	call 8407
    7000:	95 00 00 00 00 00 00 00	exit
    7001:	95 00 00 00 00 00 00 00	exit
    7002:	95 00 00 00 00 00 00 00	exit
    7003:	79 12 08 00 00 00 00 00	ldxdw r2, [r1 + 8]
    7004:	15 02 03 00 00 00 00 00	jeq r2, 0, +3 <custom_panic+0x2688>
    7005:	79 11 00 00 00 00 00 00	ldxdw r1, [r1 + 0]
    7006:	b7 03 00 00 01 00 00 00	mov64 r3, 1
    7007:	85 10 00 00 0d fb ff ff	call -1267
    7008:	95 00 00 00 00 00 00 00	exit
    7009:	bf 16 00 00 00 00 00 00	mov64 r6, r1
    7010:	79 67 10 00 00 00 00 00	ldxdw r7, [r6 + 16]
    7011:	79 61 08 00 00 00 00 00	ldxdw r1, [r6 + 8]
    7012:	79 12 00 00 00 00 00 00	ldxdw r2, [r1 + 0]
    7013:	07 02 00 00 ff ff ff ff	add64 r2, -1
    7014:	7b 21 00 00 00 00 00 00	stxdw [r1 + 0], r2
    7015:	55 02 07 00 00 00 00 00	jne r2, 0, +7 <custom_panic+0x2700>
    7016:	79 12 08 00 00 00 00 00	ldxdw r2, [r1 + 8]
    7017:	07 02 00 00 ff ff ff ff	add64 r2, -1
    7018:	7b 21 08 00 00 00 00 00	stxdw [r1 + 8], r2
    7019:	55 02 03 00 00 00 00 00	jne r2, 0, +3 <custom_panic+0x2700>
    7020:	b7 02 00 00 20 00 00 00	mov64 r2, 32
    7021:	b7 03 00 00 08 00 00 00	mov64 r3, 8
    7022:	85 10 00 00 fe fa ff ff	call -1282
    7023:	79 71 00 00 00 00 00 00	ldxdw r1, [r7 + 0]
    7024:	07 01 00 00 ff ff ff ff	add64 r1, -1
    7025:	7b 17 00 00 00 00 00 00	stxdw [r7 + 0], r1
    7026:	55 01 08 00 00 00 00 00	jne r1, 0, +8 <custom_panic+0x2760>
    7027:	79 71 08 00 00 00 00 00	ldxdw r1, [r7 + 8]
    7028:	07 01 00 00 ff ff ff ff	add64 r1, -1
    7029:	7b 17 08 00 00 00 00 00	stxdw [r7 + 8], r1
    7030:	55 01 04 00 00 00 00 00	jne r1, 0, +4 <custom_panic+0x2760>
    7031:	bf 71 00 00 00 00 00 00	mov64 r1, r7
    7032:	b7 02 00 00 28 00 00 00	mov64 r2, 40
    7033:	b7 03 00 00 08 00 00 00	mov64 r3, 8
    7034:	85 10 00 00 f2 fa ff ff	call -1294
    7035:	79 67 40 00 00 00 00 00	ldxdw r7, [r6 + 64]
    7036:	79 61 38 00 00 00 00 00	ldxdw r1, [r6 + 56]
    7037:	79 12 00 00 00 00 00 00	ldxdw r2, [r1 + 0]
    7038:	07 02 00 00 ff ff ff ff	add64 r2, -1
    7039:	7b 21 00 00 00 00 00 00	stxdw [r1 + 0], r2
    7040:	55 02 07 00 00 00 00 00	jne r2, 0, +7 <custom_panic+0x27c8>
    7041:	79 12 08 00 00 00 00 00	ldxdw r2, [r1 + 8]
    7042:	07 02 00 00 ff ff ff ff	add64 r2, -1
    7043:	7b 21 08 00 00 00 00 00	stxdw [r1 + 8], r2
    7044:	55 02 03 00 00 00 00 00	jne r2, 0, +3 <custom_panic+0x27c8>
    7045:	b7 02 00 00 20 00 00 00	mov64 r2, 32
    7046:	b7 03 00 00 08 00 00 00	mov64 r3, 8
    7047:	85 10 00 00 e5 fa ff ff	call -1307
    7048:	79 71 00 00 00 00 00 00	ldxdw r1, [r7 + 0]
    7049:	07 01 00 00 ff ff ff ff	add64 r1, -1
    7050:	7b 17 00 00 00 00 00 00	stxdw [r7 + 0], r1
    7051:	55 01 08 00 00 00 00 00	jne r1, 0, +8 <custom_panic+0x2828>
    7052:	79 71 08 00 00 00 00 00	ldxdw r1, [r7 + 8]
    7053:	07 01 00 00 ff ff ff ff	add64 r1, -1
    7054:	7b 17 08 00 00 00 00 00	stxdw [r7 + 8], r1
    7055:	55 01 04 00 00 00 00 00	jne r1, 0, +4 <custom_panic+0x2828>
    7056:	bf 71 00 00 00 00 00 00	mov64 r1, r7
    7057:	b7 02 00 00 28 00 00 00	mov64 r2, 40
    7058:	b7 03 00 00 08 00 00 00	mov64 r3, 8
    7059:	85 10 00 00 d9 fa ff ff	call -1319
    7060:	95 00 00 00 00 00 00 00	exit
    7061:	bf 17 00 00 00 00 00 00	mov64 r7, r1
    7062:	79 71 00 00 00 00 00 00	ldxdw r1, [r7 + 0]
    7063:	7b 1a f8 ff 00 00 00 00	stxdw [r10 - 8], r1
    7064:	79 79 10 00 00 00 00 00	ldxdw r9, [r7 + 16]
    7065:	15 09 12 00 00 00 00 00	jeq r9, 0, +18 <custom_panic+0x28e8>
    7066:	79 a6 f8 ff 00 00 00 00	ldxdw r6, [r10 - 8]
    7067:	07 06 00 00 10 00 00 00	add64 r6, 16
    7068:	05 00 16 00 00 00 00 00	ja +22 <custom_panic+0x2920>
    7069:	79 81 00 00 00 00 00 00	ldxdw r1, [r8 + 0]
    7070:	07 01 00 00 ff ff ff ff	add64 r1, -1
    7071:	7b 18 00 00 00 00 00 00	stxdw [r8 + 0], r1
    7072:	55 01 08 00 00 00 00 00	jne r1, 0, +8 <custom_panic+0x28d0>
    7073:	79 81 08 00 00 00 00 00	ldxdw r1, [r8 + 8]
    7074:	07 01 00 00 ff ff ff ff	add64 r1, -1
    7075:	7b 18 08 00 00 00 00 00	stxdw [r8 + 8], r1
    7076:	55 01 04 00 00 00 00 00	jne r1, 0, +4 <custom_panic+0x28d0>
    7077:	bf 81 00 00 00 00 00 00	mov64 r1, r8
    7078:	b7 02 00 00 28 00 00 00	mov64 r2, 40
    7079:	b7 03 00 00 08 00 00 00	mov64 r3, 8
    7080:	85 10 00 00 c4 fa ff ff	call -1340
    7081:	07 06 00 00 30 00 00 00	add64 r6, 48
    7082:	07 09 00 00 ff ff ff ff	add64 r9, -1
    7083:	55 09 07 00 00 00 00 00	jne r9, 0, +7 <custom_panic+0x2920>
    7084:	79 72 08 00 00 00 00 00	ldxdw r2, [r7 + 8]
    7085:	15 02 13 00 00 00 00 00	jeq r2, 0, +19 <custom_panic+0x2990>
    7086:	27 02 00 00 30 00 00 00	mul64 r2, 48
    7087:	79 a1 f8 ff 00 00 00 00	ldxdw r1, [r10 - 8]
    7088:	b7 03 00 00 08 00 00 00	mov64 r3, 8
    7089:	85 10 00 00 bb fa ff ff	call -1349
    7090:	05 00 0e 00 00 00 00 00	ja +14 <custom_panic+0x2990>
    7091:	79 68 00 00 00 00 00 00	ldxdw r8, [r6 + 0]
    7092:	79 61 f8 ff 00 00 00 00	ldxdw r1, [r6 - 8]
    7093:	79 12 00 00 00 00 00 00	ldxdw r2, [r1 + 0]
    7094:	07 02 00 00 ff ff ff ff	add64 r2, -1
    7095:	7b 21 00 00 00 00 00 00	stxdw [r1 + 0], r2
    7096:	55 02 e4 ff 00 00 00 00	jne r2, 0, -28 <custom_panic+0x2870>
    7097:	79 12 08 00 00 00 00 00	ldxdw r2, [r1 + 8]
    7098:	07 02 00 00 ff ff ff ff	add64 r2, -1
    7099:	7b 21 08 00 00 00 00 00	stxdw [r1 + 8], r2
    7100:	55 02 e0 ff 00 00 00 00	jne r2, 0, -32 <custom_panic+0x2870>
    7101:	b7 02 00 00 20 00 00 00	mov64 r2, 32
    7102:	b7 03 00 00 08 00 00 00	mov64 r3, 8
    7103:	85 10 00 00 ad fa ff ff	call -1363
    7104:	05 00 dc ff 00 00 00 00	ja -36 <custom_panic+0x2870>
    7105:	95 00 00 00 00 00 00 00	exit
    7106:	79 11 00 00 00 00 00 00	ldxdw r1, [r1 + 0]
    7107:	85 10 00 00 25 00 00 00	call 37
    7108:	b7 00 00 00 00 00 00 00	mov64 r0, 0
    7109:	95 00 00 00 00 00 00 00	exit
    7110:	79 17 00 00 00 00 00 00	ldxdw r7, [r1 + 0]
    7111:	bf a6 00 00 00 00 00 00	mov64 r6, r10
    7112:	07 06 00 00 d0 ff ff ff	add64 r6, -48
    7113:	bf 61 00 00 00 00 00 00	mov64 r1, r6
    7114:	b7 03 00 00 30 00 00 00	mov64 r3, 48
    7115:	85 10 00 00 ce 2b 00 00	call 11214
    7116:	7b 7a c8 ff 00 00 00 00	stxdw [r10 - 56], r7
    7117:	bf a1 00 00 00 00 00 00	mov64 r1, r10
    7118:	07 01 00 00 c8 ff ff ff	add64 r1, -56
    7119:	18 02 00 00 78 7c 02 00 00 00 00 00 00 00 00 00	lddw r2, 162936
    7121:	bf 63 00 00 00 00 00 00	mov64 r3, r6
    7122:	85 10 00 00 5c 20 00 00	call 8284
    7123:	95 00 00 00 00 00 00 00	exit
    7124:	bf 36 00 00 00 00 00 00	mov64 r6, r3
    7125:	bf 28 00 00 00 00 00 00	mov64 r8, r2
    7126:	79 17 00 00 00 00 00 00	ldxdw r7, [r1 + 0]
    7127:	79 79 10 00 00 00 00 00	ldxdw r9, [r7 + 16]
    7128:	79 71 08 00 00 00 00 00	ldxdw r1, [r7 + 8]
    7129:	1f 91 00 00 00 00 00 00	sub64 r1, r9
    7130:	3d 61 05 00 00 00 00 00	jge r1, r6, +5 <custom_panic+0x2a88>
    7131:	bf 71 00 00 00 00 00 00	mov64 r1, r7
    7132:	bf 92 00 00 00 00 00 00	mov64 r2, r9
    7133:	bf 63 00 00 00 00 00 00	mov64 r3, r6
    7134:	85 10 00 00 e6 00 00 00	call 230
    7135:	79 79 10 00 00 00 00 00	ldxdw r9, [r7 + 16]
    7136:	79 71 00 00 00 00 00 00	ldxdw r1, [r7 + 0]
    7137:	0f 91 00 00 00 00 00 00	add64 r1, r9
    7138:	bf 82 00 00 00 00 00 00	mov64 r2, r8
    7139:	bf 63 00 00 00 00 00 00	mov64 r3, r6
    7140:	85 10 00 00 b5 2b 00 00	call 11189
    7141:	0f 69 00 00 00 00 00 00	add64 r9, r6
    7142:	7b 97 10 00 00 00 00 00	stxdw [r7 + 16], r9
    7143:	b7 00 00 00 00 00 00 00	mov64 r0, 0
    7144:	95 00 00 00 00 00 00 00	exit
    7145:	bf 27 00 00 00 00 00 00	mov64 r7, r2
    7146:	bf 16 00 00 00 00 00 00	mov64 r6, r1
    7147:	bf 71 00 00 00 00 00 00	mov64 r1, r7
    7148:	67 01 00 00 20 00 00 00	lsh64 r1, 32
    7149:	77 01 00 00 20 00 00 00	rsh64 r1, 32
    7150:	b7 02 00 00 80 00 00 00	mov64 r2, 128
    7151:	2d 12 18 00 00 00 00 00	jgt r2, r1, +24 <custom_panic+0x2bc8>
    7152:	b7 02 00 00 00 00 00 00	mov64 r2, 0
    7153:	63 2a fc ff 00 00 00 00	stxw [r10 - 4], r2
    7154:	b7 02 00 00 00 08 00 00	mov64 r2, 2048
    7155:	2d 12 20 00 00 00 00 00	jgt r2, r1, +32 <custom_panic+0x2c28>
    7156:	bf 71 00 00 00 00 00 00	mov64 r1, r7
    7157:	67 01 00 00 20 00 00 00	lsh64 r1, 32
    7158:	77 01 00 00 20 00 00 00	rsh64 r1, 32
    7159:	b7 02 00 00 00 00 01 00	mov64 r2, 65536
    7160:	2d 12 01 00 00 00 00 00	jgt r2, r1, +1 <custom_panic+0x2b58>
    7161:	05 00 23 00 00 00 00 00	ja +35 <custom_panic+0x2c70>
    7162:	bf 71 00 00 00 00 00 00	mov64 r1, r7
    7163:	57 01 00 00 3f 00 00 00	and64 r1, 63
    7164:	47 01 00 00 80 00 00 00	or64 r1, 128
    7165:	73 1a fe ff 00 00 00 00	stxb [r10 - 2], r1
    7166:	bf 71 00 00 00 00 00 00	mov64 r1, r7
    7167:	77 01 00 00 0c 00 00 00	rsh64 r1, 12
    7168:	47 01 00 00 e0 00 00 00	or64 r1, 224
    7169:	73 1a fc ff 00 00 00 00	stxb [r10 - 4], r1
    7170:	77 07 00 00 06 00 00 00	rsh64 r7, 6
    7171:	57 07 00 00 3f 00 00 00	and64 r7, 63
    7172:	47 07 00 00 80 00 00 00	or64 r7, 128
    7173:	73 7a fd ff 00 00 00 00	stxb [r10 - 3], r7
    7174:	b7 07 00 00 03 00 00 00	mov64 r7, 3
    7175:	05 00 28 00 00 00 00 00	ja +40 <custom_panic+0x2d08>
    7176:	79 62 10 00 00 00 00 00	ldxdw r2, [r6 + 16]
    7177:	79 61 08 00 00 00 00 00	ldxdw r1, [r6 + 8]
    7178:	5d 12 03 00 00 00 00 00	jne r2, r1, +3 <custom_panic+0x2bf8>
    7179:	bf 61 00 00 00 00 00 00	mov64 r1, r6
    7180:	85 10 00 00 89 00 00 00	call 137
    7181:	79 62 10 00 00 00 00 00	ldxdw r2, [r6 + 16]
    7182:	79 61 00 00 00 00 00 00	ldxdw r1, [r6 + 0]
    7183:	0f 21 00 00 00 00 00 00	add64 r1, r2
    7184:	73 71 00 00 00 00 00 00	stxb [r1 + 0], r7
    7185:	07 02 00 00 01 00 00 00	add64 r2, 1
    7186:	7b 26 10 00 00 00 00 00	stxdw [r6 + 16], r2
    7187:	05 00 2d 00 00 00 00 00	ja +45 <custom_panic+0x2d90>
    7188:	bf 71 00 00 00 00 00 00	mov64 r1, r7
    7189:	57 01 00 00 3f 00 00 00	and64 r1, 63
    7190:	47 01 00 00 80 00 00 00	or64 r1, 128
    7191:	73 1a fd ff 00 00 00 00	stxb [r10 - 3], r1
    7192:	77 07 00 00 06 00 00 00	rsh64 r7, 6
    7193:	47 07 00 00 c0 00 00 00	or64 r7, 192
    7194:	73 7a fc ff 00 00 00 00	stxb [r10 - 4], r7
    7195:	b7 07 00 00 02 00 00 00	mov64 r7, 2
    7196:	05 00 13 00 00 00 00 00	ja +19 <custom_panic+0x2d08>
    7197:	bf 71 00 00 00 00 00 00	mov64 r1, r7
    7198:	57 01 00 00 3f 00 00 00	and64 r1, 63
    7199:	47 01 00 00 80 00 00 00	or64 r1, 128
    7200:	73 1a ff ff 00 00 00 00	stxb [r10 - 1], r1
    7201:	bf 71 00 00 00 00 00 00	mov64 r1, r7
    7202:	77 01 00 00 06 00 00 00	rsh64 r1, 6
    7203:	57 01 00 00 3f 00 00 00	and64 r1, 63
    7204:	47 01 00 00 80 00 00 00	or64 r1, 128
    7205:	73 1a fe ff 00 00 00 00	stxb [r10 - 2], r1
    7206:	bf 71 00 00 00 00 00 00	mov64 r1, r7
    7207:	77 01 00 00 0c 00 00 00	rsh64 r1, 12
    7208:	57 01 00 00 3f 00 00 00	and64 r1, 63
    7209:	47 01 00 00 80 00 00 00	or64 r1, 128
    7210:	73 1a fd ff 00 00 00 00	stxb [r10 - 3], r1
    7211:	77 07 00 00 12 00 00 00	rsh64 r7, 18
    7212:	57 07 00 00 07 00 00 00	and64 r7, 7
    7213:	47 07 00 00 f0 00 00 00	or64 r7, 240
    7214:	73 7a fc ff 00 00 00 00	stxb [r10 - 4], r7
    7215:	b7 07 00 00 04 00 00 00	mov64 r7, 4
    7216:	79 68 10 00 00 00 00 00	ldxdw r8, [r6 + 16]
    7217:	79 61 08 00 00 00 00 00	ldxdw r1, [r6 + 8]
    7218:	1f 81 00 00 00 00 00 00	sub64 r1, r8
    7219:	3d 71 05 00 00 00 00 00	jge r1, r7, +5 <custom_panic+0x2d50>
    7220:	bf 61 00 00 00 00 00 00	mov64 r1, r6
    7221:	bf 82 00 00 00 00 00 00	mov64 r2, r8
    7222:	bf 73 00 00 00 00 00 00	mov64 r3, r7
    7223:	85 10 00 00 8d 00 00 00	call 141
    7224:	79 68 10 00 00 00 00 00	ldxdw r8, [r6 + 16]
    7225:	79 61 00 00 00 00 00 00	ldxdw r1, [r6 + 0]
    7226:	0f 81 00 00 00 00 00 00	add64 r1, r8
    7227:	bf a2 00 00 00 00 00 00	mov64 r2, r10
    7228:	07 02 00 00 fc ff ff ff	add64 r2, -4
    7229:	bf 73 00 00 00 00 00 00	mov64 r3, r7
    7230:	85 10 00 00 5b 2b 00 00	call 11099
    7231:	0f 78 00 00 00 00 00 00	add64 r8, r7
    7232:	7b 86 10 00 00 00 00 00	stxdw [r6 + 16], r8
    7233:	b7 00 00 00 00 00 00 00	mov64 r0, 0
    7234:	95 00 00 00 00 00 00 00	exit
    7235:	bf 36 00 00 00 00 00 00	mov64 r6, r3
    7236:	bf 28 00 00 00 00 00 00	mov64 r8, r2
    7237:	bf 17 00 00 00 00 00 00	mov64 r7, r1
    7238:	79 79 10 00 00 00 00 00	ldxdw r9, [r7 + 16]
    7239:	79 71 08 00 00 00 00 00	ldxdw r1, [r7 + 8]
    7240:	1f 91 00 00 00 00 00 00	sub64 r1, r9
    7241:	3d 61 05 00 00 00 00 00	jge r1, r6, +5 <custom_panic+0x2e00>
    7242:	bf 71 00 00 00 00 00 00	mov64 r1, r7
    7243:	bf 92 00 00 00 00 00 00	mov64 r2, r9
    7244:	bf 63 00 00 00 00 00 00	mov64 r3, r6
    7245:	85 10 00 00 77 00 00 00	call 119
    7246:	79 79 10 00 00 00 00 00	ldxdw r9, [r7 + 16]
    7247:	79 71 00 00 00 00 00 00	ldxdw r1, [r7 + 0]
    7248:	0f 91 00 00 00 00 00 00	add64 r1, r9
    7249:	bf 82 00 00 00 00 00 00	mov64 r2, r8
    7250:	bf 63 00 00 00 00 00 00	mov64 r3, r6
    7251:	85 10 00 00 46 2b 00 00	call 11078
    7252:	0f 69 00 00 00 00 00 00	add64 r9, r6
    7253:	7b 97 10 00 00 00 00 00	stxdw [r7 + 16], r9
    7254:	b7 00 00 00 00 00 00 00	mov64 r0, 0
    7255:	95 00 00 00 00 00 00 00	exit
    7256:	bf 37 00 00 00 00 00 00	mov64 r7, r3
    7257:	bf 28 00 00 00 00 00 00	mov64 r8, r2
    7258:	bf 16 00 00 00 00 00 00	mov64 r6, r1
    7259:	15 08 0a 00 00 00 00 00	jeq r8, 0, +10 <custom_panic+0x2eb8>
    7260:	79 41 08 00 00 00 00 00	ldxdw r1, [r4 + 8]
    7261:	15 01 12 00 00 00 00 00	jeq r1, 0, +18 <custom_panic+0x2f08>
    7262:	79 42 10 00 00 00 00 00	ldxdw r2, [r4 + 16]
    7263:	55 02 0a 00 00 00 00 00	jne r2, 0, +10 <custom_panic+0x2ed8>
    7264:	15 07 19 00 00 00 00 00	jeq r7, 0, +25 <custom_panic+0x2f58>
    7265:	bf 71 00 00 00 00 00 00	mov64 r1, r7
    7266:	bf 82 00 00 00 00 00 00	mov64 r2, r8
    7267:	85 10 00 00 ef f9 ff ff	call -1553
    7268:	15 00 11 00 00 00 00 00	jeq r0, 0, +17 <custom_panic+0x2f38>
    7269:	05 00 16 00 00 00 00 00	ja +22 <custom_panic+0x2f68>
    7270:	7b 76 10 00 00 00 00 00	stxdw [r6 + 16], r7
    7271:	b7 01 00 00 00 00 00 00	mov64 r1, 0
    7272:	7b 16 08 00 00 00 00 00	stxdw [r6 + 8], r1
    7273:	05 00 0e 00 00 00 00 00	ja +14 <custom_panic+0x2f48>
    7274:	79 41 00 00 00 00 00 00	ldxdw r1, [r4 + 0]
    7275:	bf 83 00 00 00 00 00 00	mov64 r3, r8
    7276:	bf 74 00 00 00 00 00 00	mov64 r4, r7
    7277:	85 10 00 00 00 fa ff ff	call -1536
    7278:	15 00 07 00 00 00 00 00	jeq r0, 0, +7 <custom_panic+0x2f38>
    7279:	05 00 0c 00 00 00 00 00	ja +12 <custom_panic+0x2f68>
    7280:	15 07 09 00 00 00 00 00	jeq r7, 0, +9 <custom_panic+0x2f58>
    7281:	bf 71 00 00 00 00 00 00	mov64 r1, r7
    7282:	bf 82 00 00 00 00 00 00	mov64 r2, r8
    7283:	85 10 00 00 df f9 ff ff	call -1569
    7284:	15 00 01 00 00 00 00 00	jeq r0, 0, +1 <custom_panic+0x2f38>
    7285:	05 00 06 00 00 00 00 00	ja +6 <custom_panic+0x2f68>
    7286:	7b 76 10 00 00 00 00 00	stxdw [r6 + 16], r7
    7287:	7b 86 08 00 00 00 00 00	stxdw [r6 + 8], r8
    7288:	b7 01 00 00 01 00 00 00	mov64 r1, 1
    7289:	05 00 05 00 00 00 00 00	ja +5 <custom_panic+0x2f80>
    7290:	b7 07 00 00 00 00 00 00	mov64 r7, 0
    7291:	bf 80 00 00 00 00 00 00	mov64 r0, r8
    7292:	7b 76 10 00 00 00 00 00	stxdw [r6 + 16], r7
    7293:	7b 06 08 00 00 00 00 00	stxdw [r6 + 8], r0
    7294:	b7 01 00 00 00 00 00 00	mov64 r1, 0
    7295:	7b 16 00 00 00 00 00 00	stxdw [r6 + 0], r1
    7296:	95 00 00 00 00 00 00 00	exit
    7297:	bf 26 00 00 00 00 00 00	mov64 r6, r2
    7298:	bf 17 00 00 00 00 00 00	mov64 r7, r1
    7299:	b7 00 00 00 01 00 00 00	mov64 r0, 1
    7300:	15 06 0e 00 00 00 00 00	jeq r6, 0, +14 <custom_panic+0x3020>
    7301:	65 06 02 00 ff ff ff ff	jsgt r6, -1, +2 <custom_panic+0x2fc8>
    7302:	85 10 00 00 f8 19 00 00	call 6648
    7303:	85 10 00 00 ff ff ff ff	call -1
    7304:	bf 68 00 00 00 00 00 00	mov64 r8, r6
    7305:	a7 08 00 00 ff ff ff ff	xor64 r8, -1
    7306:	77 08 00 00 3f 00 00 00	rsh64 r8, 63
    7307:	bf 61 00 00 00 00 00 00	mov64 r1, r6
    7308:	bf 82 00 00 00 00 00 00	mov64 r2, r8
    7309:	85 10 00 00 c5 f9 ff ff	call -1595
    7310:	55 00 04 00 00 00 00 00	jne r0, 0, +4 <custom_panic+0x3020>
    7311:	bf 81 00 00 00 00 00 00	mov64 r1, r8
    7312:	bf 62 00 00 00 00 00 00	mov64 r2, r6
    7313:	85 10 00 00 fe 19 00 00	call 6654
    7314:	85 10 00 00 ff ff ff ff	call -1
    7315:	7b 67 08 00 00 00 00 00	stxdw [r7 + 8], r6
    7316:	7b 07 00 00 00 00 00 00	stxdw [r7 + 0], r0
    7317:	95 00 00 00 00 00 00 00	exit
    7318:	bf 16 00 00 00 00 00 00	mov64 r6, r1
    7319:	07 02 00 00 01 00 00 00	add64 r2, 1
    7320:	b7 01 00 00 01 00 00 00	mov64 r1, 1
    7321:	15 02 01 00 00 00 00 00	jeq r2, 0, +1 <custom_panic+0x3060>
    7322:	b7 01 00 00 00 00 00 00	mov64 r1, 0
    7323:	57 01 00 00 01 00 00 00	and64 r1, 1
    7324:	55 01 23 00 00 00 00 00	jne r1, 0, +35 <custom_panic+0x3188>
    7325:	79 61 08 00 00 00 00 00	ldxdw r1, [r6 + 8]
    7326:	bf 17 00 00 00 00 00 00	mov64 r7, r1
    7327:	67 07 00 00 01 00 00 00	lsh64 r7, 1
    7328:	2d 27 01 00 00 00 00 00	jgt r7, r2, +1 <custom_panic+0x3098>
    7329:	bf 27 00 00 00 00 00 00	mov64 r7, r2
    7330:	25 07 01 00 08 00 00 00	jgt r7, 8, +1 <custom_panic+0x30a8>
    7331:	b7 07 00 00 08 00 00 00	mov64 r7, 8
    7332:	bf 72 00 00 00 00 00 00	mov64 r2, r7
    7333:	a7 02 00 00 ff ff ff ff	xor64 r2, -1
    7334:	77 02 00 00 3f 00 00 00	rsh64 r2, 63
    7335:	15 01 06 00 00 00 00 00	jeq r1, 0, +6 <custom_panic+0x30f8>
    7336:	79 63 00 00 00 00 00 00	ldxdw r3, [r6 + 0]
    7337:	7b 1a f8 ff 00 00 00 00	stxdw [r10 - 8], r1
    7338:	b7 01 00 00 01 00 00 00	mov64 r1, 1
    7339:	7b 1a f0 ff 00 00 00 00	stxdw [r10 - 16], r1
    7340:	7b 3a e8 ff 00 00 00 00	stxdw [r10 - 24], r3
    7341:	05 00 02 00 00 00 00 00	ja +2 <custom_panic+0x3108>
    7342:	b7 01 00 00 00 00 00 00	mov64 r1, 0
    7343:	7b 1a f0 ff 00 00 00 00	stxdw [r10 - 16], r1
    7344:	bf a1 00 00 00 00 00 00	mov64 r1, r10
    7345:	07 01 00 00 d0 ff ff ff	add64 r1, -48
    7346:	bf a4 00 00 00 00 00 00	mov64 r4, r10
    7347:	07 04 00 00 e8 ff ff ff	add64 r4, -24
    7348:	bf 73 00 00 00 00 00 00	mov64 r3, r7
    7349:	85 10 00 00 a2 ff ff ff	call -94
    7350:	79 a1 d8 ff 00 00 00 00	ldxdw r1, [r10 - 40]
    7351:	79 a2 d0 ff 00 00 00 00	ldxdw r2, [r10 - 48]
    7352:	55 02 03 00 00 00 00 00	jne r2, 0, +3 <custom_panic+0x3168>
    7353:	7b 76 08 00 00 00 00 00	stxdw [r6 + 8], r7
    7354:	7b 16 00 00 00 00 00 00	stxdw [r6 + 0], r1
    7355:	95 00 00 00 00 00 00 00	exit
    7356:	18 02 00 00 01 00 00 00 00 00 00 00 00 00 00 80	lddw r2, -9223372036854775807
    7358:	1d 21 fc ff 00 00 00 00	jeq r1, r2, -4 <custom_panic+0x3160>
    7359:	55 01 02 00 00 00 00 00	jne r1, 0, +2 <custom_panic+0x3198>
    7360:	85 10 00 00 be 19 00 00	call 6590
    7361:	85 10 00 00 ff ff ff ff	call -1
    7362:	79 a2 e0 ff 00 00 00 00	ldxdw r2, [r10 - 32]
    7363:	85 10 00 00 cc 19 00 00	call 6604
    7364:	85 10 00 00 ff ff ff ff	call -1
    7365:	bf 16 00 00 00 00 00 00	mov64 r6, r1
    7366:	bf 24 00 00 00 00 00 00	mov64 r4, r2
    7367:	0f 34 00 00 00 00 00 00	add64 r4, r3
    7368:	b7 01 00 00 01 00 00 00	mov64 r1, 1
    7369:	2d 42 01 00 00 00 00 00	jgt r2, r4, +1 <custom_panic+0x31e0>
    7370:	b7 01 00 00 00 00 00 00	mov64 r1, 0
    7371:	57 01 00 00 01 00 00 00	and64 r1, 1
    7372:	55 01 23 00 00 00 00 00	jne r1, 0, +35 <custom_panic+0x3308>
    7373:	79 61 08 00 00 00 00 00	ldxdw r1, [r6 + 8]
    7374:	bf 17 00 00 00 00 00 00	mov64 r7, r1
    7375:	67 07 00 00 01 00 00 00	lsh64 r7, 1
    7376:	2d 47 01 00 00 00 00 00	jgt r7, r4, +1 <custom_panic+0x3218>
    7377:	bf 47 00 00 00 00 00 00	mov64 r7, r4
    7378:	25 07 01 00 08 00 00 00	jgt r7, 8, +1 <custom_panic+0x3228>
    7379:	b7 07 00 00 08 00 00 00	mov64 r7, 8
    7380:	bf 72 00 00 00 00 00 00	mov64 r2, r7
    7381:	a7 02 00 00 ff ff ff ff	xor64 r2, -1
    7382:	77 02 00 00 3f 00 00 00	rsh64 r2, 63
    7383:	15 01 06 00 00 00 00 00	jeq r1, 0, +6 <custom_panic+0x3278>
    7384:	79 63 00 00 00 00 00 00	ldxdw r3, [r6 + 0]
    7385:	7b 1a f8 ff 00 00 00 00	stxdw [r10 - 8], r1
    7386:	b7 01 00 00 01 00 00 00	mov64 r1, 1
    7387:	7b 1a f0 ff 00 00 00 00	stxdw [r10 - 16], r1
    7388:	7b 3a e8 ff 00 00 00 00	stxdw [r10 - 24], r3
    7389:	05 00 02 00 00 00 00 00	ja +2 <custom_panic+0x3288>
    7390:	b7 01 00 00 00 00 00 00	mov64 r1, 0
    7391:	7b 1a f0 ff 00 00 00 00	stxdw [r10 - 16], r1
    7392:	bf a1 00 00 00 00 00 00	mov64 r1, r10
    7393:	07 01 00 00 d0 ff ff ff	add64 r1, -48
    7394:	bf a4 00 00 00 00 00 00	mov64 r4, r10
    7395:	07 04 00 00 e8 ff ff ff	add64 r4, -24
    7396:	bf 73 00 00 00 00 00 00	mov64 r3, r7
    7397:	85 10 00 00 72 ff ff ff	call -142
    7398:	79 a1 d8 ff 00 00 00 00	ldxdw r1, [r10 - 40]
    7399:	79 a2 d0 ff 00 00 00 00	ldxdw r2, [r10 - 48]
    7400:	55 02 03 00 00 00 00 00	jne r2, 0, +3 <custom_panic+0x32e8>
    7401:	7b 76 08 00 00 00 00 00	stxdw [r6 + 8], r7
    7402:	7b 16 00 00 00 00 00 00	stxdw [r6 + 0], r1
    7403:	95 00 00 00 00 00 00 00	exit
    7404:	18 02 00 00 01 00 00 00 00 00 00 00 00 00 00 80	lddw r2, -9223372036854775807
    7406:	1d 21 fc ff 00 00 00 00	jeq r1, r2, -4 <custom_panic+0x32e0>
    7407:	55 01 02 00 00 00 00 00	jne r1, 0, +2 <custom_panic+0x3318>
    7408:	85 10 00 00 8e 19 00 00	call 6542
    7409:	85 10 00 00 ff ff ff ff	call -1
    7410:	79 a2 e0 ff 00 00 00 00	ldxdw r2, [r10 - 32]
    7411:	85 10 00 00 9c 19 00 00	call 6556
    7412:	85 10 00 00 ff ff ff ff	call -1
    7413:	bf 23 00 00 00 00 00 00	mov64 r3, r2
    7414:	79 12 10 00 00 00 00 00	ldxdw r2, [r1 + 16]
    7415:	79 11 00 00 00 00 00 00	ldxdw r1, [r1 + 0]
    7416:	85 10 00 00 ea 22 00 00	call 8938
    7417:	95 00 00 00 00 00 00 00	exit
    7418:	bf 16 00 00 00 00 00 00	mov64 r6, r1
    7419:	61 21 00 00 00 00 00 00	ldxw r1, [r2 + 0]
    7420:	65 01 05 00 0a 00 00 00	jsgt r1, 10, +5 <custom_panic+0x3398>
    7421:	65 01 09 00 04 00 00 00	jsgt r1, 4, +9 <custom_panic+0x33c0>
    7422:	65 01 12 00 01 00 00 00	jsgt r1, 1, +18 <custom_panic+0x3410>
    7423:	15 01 21 00 00 00 00 00	jeq r1, 0, +33 <custom_panic+0x3490>
    7424:	b7 01 00 00 01 00 00 00	mov64 r1, 1
    7425:	05 00 40 00 00 00 00 00	ja +64 <custom_panic+0x3598>
    7426:	65 01 09 00 0f 00 00 00	jsgt r1, 15, +9 <custom_panic+0x33e8>
    7427:	65 01 11 00 0c 00 00 00	jsgt r1, 12, +17 <custom_panic+0x3430>
    7428:	15 01 20 00 0b 00 00 00	jeq r1, 11, +32 <custom_panic+0x34b0>
    7429:	b7 01 00 00 0c 00 00 00	mov64 r1, 12
    7430:	05 00 3b 00 00 00 00 00	ja +59 <custom_panic+0x3598>
    7431:	65 01 11 00 07 00 00 00	jsgt r1, 7, +17 <custom_panic+0x3450>
    7432:	15 01 1e 00 05 00 00 00	jeq r1, 5, +30 <custom_panic+0x34c0>
    7433:	15 01 1f 00 06 00 00 00	jeq r1, 6, +31 <custom_panic+0x34d0>
    7434:	b7 01 00 00 07 00 00 00	mov64 r1, 7
    7435:	05 00 36 00 00 00 00 00	ja +54 <custom_panic+0x3598>
    7436:	65 01 10 00 12 00 00 00	jsgt r1, 18, +16 <custom_panic+0x3470>
    7437:	15 01 1d 00 10 00 00 00	jeq r1, 16, +29 <custom_panic+0x34e0>
    7438:	15 01 1e 00 11 00 00 00	jeq r1, 17, +30 <custom_panic+0x34f0>
    7439:	b7 01 00 00 12 00 00 00	mov64 r1, 18
    7440:	05 00 31 00 00 00 00 00	ja +49 <custom_panic+0x3598>
    7441:	15 01 1d 00 02 00 00 00	jeq r1, 2, +29 <custom_panic+0x3500>
    7442:	15 01 1e 00 03 00 00 00	jeq r1, 3, +30 <custom_panic+0x3510>
    7443:	b7 01 00 00 04 00 00 00	mov64 r1, 4
    7444:	05 00 2d 00 00 00 00 00	ja +45 <custom_panic+0x3598>
    7445:	15 01 1d 00 0d 00 00 00	jeq r1, 13, +29 <custom_panic+0x3520>
    7446:	15 01 1e 00 0e 00 00 00	jeq r1, 14, +30 <custom_panic+0x3530>
    7447:	b7 01 00 00 0f 00 00 00	mov64 r1, 15
    7448:	05 00 29 00 00 00 00 00	ja +41 <custom_panic+0x3598>
    7449:	15 01 21 00 08 00 00 00	jeq r1, 8, +33 <custom_panic+0x3560>
    7450:	15 01 22 00 09 00 00 00	jeq r1, 9, +34 <custom_panic+0x3570>
    7451:	b7 01 00 00 0a 00 00 00	mov64 r1, 10
    7452:	05 00 25 00 00 00 00 00	ja +37 <custom_panic+0x3598>
    7453:	15 01 21 00 13 00 00 00	jeq r1, 19, +33 <custom_panic+0x3580>
    7454:	15 01 22 00 14 00 00 00	jeq r1, 20, +34 <custom_panic+0x3590>
    7455:	b7 01 00 00 15 00 00 00	mov64 r1, 21
    7456:	05 00 21 00 00 00 00 00	ja +33 <custom_panic+0x3598>
    7457:	61 21 04 00 00 00 00 00	ldxw r1, [r2 + 4]
    7458:	63 16 04 00 00 00 00 00	stxw [r6 + 4], r1
    7459:	b7 01 00 00 00 00 00 00	mov64 r1, 0
    7460:	05 00 1d 00 00 00 00 00	ja +29 <custom_panic+0x3598>
    7461:	b7 01 00 00 0b 00 00 00	mov64 r1, 11
    7462:	05 00 1b 00 00 00 00 00	ja +27 <custom_panic+0x3598>
    7463:	b7 01 00 00 05 00 00 00	mov64 r1, 5
    7464:	05 00 19 00 00 00 00 00	ja +25 <custom_panic+0x3598>
    7465:	b7 01 00 00 06 00 00 00	mov64 r1, 6
    7466:	05 00 17 00 00 00 00 00	ja +23 <custom_panic+0x3598>
    7467:	b7 01 00 00 10 00 00 00	mov64 r1, 16
    7468:	05 00 15 00 00 00 00 00	ja +21 <custom_panic+0x3598>
    7469:	b7 01 00 00 11 00 00 00	mov64 r1, 17
    7470:	05 00 13 00 00 00 00 00	ja +19 <custom_panic+0x3598>
    7471:	b7 01 00 00 02 00 00 00	mov64 r1, 2
    7472:	05 00 11 00 00 00 00 00	ja +17 <custom_panic+0x3598>
    7473:	b7 01 00 00 03 00 00 00	mov64 r1, 3
    7474:	05 00 0f 00 00 00 00 00	ja +15 <custom_panic+0x3598>
    7475:	b7 01 00 00 0d 00 00 00	mov64 r1, 13
    7476:	05 00 0d 00 00 00 00 00	ja +13 <custom_panic+0x3598>
    7477:	bf 61 00 00 00 00 00 00	mov64 r1, r6
    7478:	07 01 00 00 08 00 00 00	add64 r1, 8
    7479:	07 02 00 00 08 00 00 00	add64 r2, 8
    7480:	85 10 00 00 34 1a 00 00	call 6708
    7481:	b7 01 00 00 0e 00 00 00	mov64 r1, 14
    7482:	05 00 07 00 00 00 00 00	ja +7 <custom_panic+0x3598>
    7483:	b7 01 00 00 08 00 00 00	mov64 r1, 8
    7484:	05 00 05 00 00 00 00 00	ja +5 <custom_panic+0x3598>
    7485:	b7 01 00 00 09 00 00 00	mov64 r1, 9
    7486:	05 00 03 00 00 00 00 00	ja +3 <custom_panic+0x3598>
    7487:	b7 01 00 00 13 00 00 00	mov64 r1, 19
    7488:	05 00 01 00 00 00 00 00	ja +1 <custom_panic+0x3598>
    7489:	b7 01 00 00 14 00 00 00	mov64 r1, 20
    7490:	63 16 00 00 00 00 00 00	stxw [r6 + 0], r1
    7491:	95 00 00 00 00 00 00 00	exit
    7492:	bf 16 00 00 00 00 00 00	mov64 r6, r1
    7493:	71 21 28 00 00 00 00 00	ldxb r1, [r2 + 40]
    7494:	15 01 23 00 00 00 00 00	jeq r1, 0, +35 <custom_panic+0x36d8>
    7495:	79 23 08 00 00 00 00 00	ldxdw r3, [r2 + 8]
    7496:	79 35 00 00 00 00 00 00	ldxdw r5, [r3 + 0]
    7497:	07 05 00 00 01 00 00 00	add64 r5, 1
    7498:	b7 00 00 00 01 00 00 00	mov64 r0, 1
    7499:	15 05 01 00 00 00 00 00	jeq r5, 0, +1 <custom_panic+0x35f0>
    7500:	b7 00 00 00 00 00 00 00	mov64 r0, 0
    7501:	79 24 00 00 00 00 00 00	ldxdw r4, [r2 + 0]
    7502:	7b 53 00 00 00 00 00 00	stxdw [r3 + 0], r5
    7503:	55 00 02 00 01 00 00 00	jne r0, 1, +2 <custom_panic+0x3618>
    7504:	85 10 00 00 ff ff ff ff	call -1
    7505:	85 10 00 00 ff ff ff ff	call -1
    7506:	79 25 10 00 00 00 00 00	ldxdw r5, [r2 + 16]
    7507:	79 50 00 00 00 00 00 00	ldxdw r0, [r5 + 0]
    7508:	07 00 00 00 01 00 00 00	add64 r0, 1
    7509:	b7 07 00 00 01 00 00 00	mov64 r7, 1
    7510:	15 00 01 00 00 00 00 00	jeq r0, 0, +1 <custom_panic+0x3648>
    7511:	b7 07 00 00 00 00 00 00	mov64 r7, 0
    7512:	7b 05 00 00 00 00 00 00	stxdw [r5 + 0], r0
    7513:	55 07 01 00 01 00 00 00	jne r7, 1, +1 <custom_panic+0x3660>
    7514:	05 00 f5 ff 00 00 00 00	ja -11 <custom_panic+0x3608>
    7515:	79 20 18 00 00 00 00 00	ldxdw r0, [r2 + 24]
    7516:	79 27 20 00 00 00 00 00	ldxdw r7, [r2 + 32]
    7517:	71 28 29 00 00 00 00 00	ldxb r8, [r2 + 41]
    7518:	71 22 2a 00 00 00 00 00	ldxb r2, [r2 + 42]
    7519:	73 26 32 00 00 00 00 00	stxb [r6 + 50], r2
    7520:	73 86 31 00 00 00 00 00	stxb [r6 + 49], r8
    7521:	73 16 30 00 00 00 00 00	stxb [r6 + 48], r1
    7522:	7b 76 28 00 00 00 00 00	stxdw [r6 + 40], r7
    7523:	7b 06 20 00 00 00 00 00	stxdw [r6 + 32], r0
    7524:	7b 56 18 00 00 00 00 00	stxdw [r6 + 24], r5
    7525:	7b 36 10 00 00 00 00 00	stxdw [r6 + 16], r3
    7526:	7b 46 08 00 00 00 00 00	stxdw [r6 + 8], r4
    7527:	b7 01 00 00 04 00 00 00	mov64 r1, 4
    7528:	7b 16 00 00 00 00 00 00	stxdw [r6 + 0], r1
    7529:	05 00 3a 00 00 00 00 00	ja +58 <custom_panic+0x38a8>
    7530:	b7 09 00 00 c2 0b 00 00	mov64 r9, 3010
    7531:	63 9a 8c ff 00 00 00 00	stxw [r10 - 116], r9
    7532:	bf a1 00 00 00 00 00 00	mov64 r1, r10
    7533:	07 01 00 00 90 ff ff ff	add64 r1, -112
    7534:	bf a7 00 00 00 00 00 00	mov64 r7, r10
    7535:	07 07 00 00 8c ff ff ff	add64 r7, -116
    7536:	bf 72 00 00 00 00 00 00	mov64 r2, r7
    7537:	85 10 00 00 f0 03 00 00	call 1008
    7538:	b7 01 00 00 01 00 00 00	mov64 r1, 1
    7539:	7b 1a a8 ff 00 00 00 00	stxdw [r10 - 88], r1
    7540:	b7 01 00 00 00 00 00 00	mov64 r1, 0
    7541:	7b 1a b0 ff 00 00 00 00	stxdw [r10 - 80], r1
    7542:	7b 1a b8 ff 00 00 00 00	stxdw [r10 - 72], r1
    7543:	bf a8 00 00 00 00 00 00	mov64 r8, r10
    7544:	07 08 00 00 c0 ff ff ff	add64 r8, -64
    7545:	bf a2 00 00 00 00 00 00	mov64 r2, r10
    7546:	07 02 00 00 a8 ff ff ff	add64 r2, -88
    7547:	bf 81 00 00 00 00 00 00	mov64 r1, r8
    7548:	18 03 00 00 10 7c 02 00 00 00 00 00 00 00 00 00	lddw r3, 162832
    7550:	85 10 00 00 a6 1e 00 00	call 7846
    7551:	bf 71 00 00 00 00 00 00	mov64 r1, r7
    7552:	bf 82 00 00 00 00 00 00	mov64 r2, r8
    7553:	85 10 00 00 76 07 00 00	call 1910
    7554:	15 00 0b 00 00 00 00 00	jeq r0, 0, +11 <custom_panic+0x37f8>
    7555:	bf a3 00 00 00 00 00 00	mov64 r3, r10
    7556:	07 03 00 00 28 ff ff ff	add64 r3, -216
    7557:	18 01 00 00 4c 56 02 00 00 00 00 00 00 00 00 00	lddw r1, 153164
    7559:	b7 02 00 00 37 00 00 00	mov64 r2, 55
    7560:	18 04 00 00 40 7c 02 00 00 00 00 00 00 00 00 00	lddw r4, 162880
    7562:	18 05 00 00 60 7c 02 00 00 00 00 00 00 00 00 00	lddw r5, 162912
    7564:	85 10 00 00 08 1c 00 00	call 7176
    7565:	85 10 00 00 ff ff ff ff	call -1
    7566:	79 a1 b8 ff 00 00 00 00	ldxdw r1, [r10 - 72]
    7567:	7b 16 90 00 00 00 00 00	stxdw [r6 + 144], r1
    7568:	79 a1 b0 ff 00 00 00 00	ldxdw r1, [r10 - 80]
    7569:	7b 16 88 00 00 00 00 00	stxdw [r6 + 136], r1
    7570:	79 a1 a8 ff 00 00 00 00	ldxdw r1, [r10 - 88]
    7571:	7b 16 80 00 00 00 00 00	stxdw [r6 + 128], r1
    7572:	79 a1 90 ff 00 00 00 00	ldxdw r1, [r10 - 112]
    7573:	7b 1a 6f ff 00 00 00 00	stxdw [r10 - 145], r1
    7574:	79 a1 98 ff 00 00 00 00	ldxdw r1, [r10 - 104]
    7575:	7b 1a 77 ff 00 00 00 00	stxdw [r10 - 137], r1
    7576:	79 a1 a0 ff 00 00 00 00	ldxdw r1, [r10 - 96]
    7577:	7b 1a 7f ff 00 00 00 00	stxdw [r10 - 129], r1
    7578:	b7 01 00 00 02 00 00 00	mov64 r1, 2
    7579:	73 16 20 00 00 00 00 00	stxb [r6 + 32], r1
    7580:	7b 16 00 00 00 00 00 00	stxdw [r6 + 0], r1
    7581:	bf 61 00 00 00 00 00 00	mov64 r1, r6
    7582:	07 01 00 00 21 00 00 00	add64 r1, 33
    7583:	bf a2 00 00 00 00 00 00	mov64 r2, r10
    7584:	07 02 00 00 28 ff ff ff	add64 r2, -216
    7585:	b7 03 00 00 5f 00 00 00	mov64 r3, 95
    7586:	85 10 00 00 f7 29 00 00	call 10743
    7587:	63 96 98 00 00 00 00 00	stxw [r6 + 152], r9
    7588:	95 00 00 00 00 00 00 00	exit
    7589:	bf 16 00 00 00 00 00 00	mov64 r6, r1
    7590:	79 31 08 00 00 00 00 00	ldxdw r1, [r3 + 8]
    7591:	55 01 24 00 00 00 00 00	jne r1, 0, +36 <custom_panic+0x39e8>
    7592:	b7 09 00 00 bd 0b 00 00	mov64 r9, 3005
    7593:	63 9a 8c ff 00 00 00 00	stxw [r10 - 116], r9
    7594:	bf a1 00 00 00 00 00 00	mov64 r1, r10
    7595:	07 01 00 00 90 ff ff ff	add64 r1, -112
    7596:	bf a7 00 00 00 00 00 00	mov64 r7, r10
    7597:	07 07 00 00 8c ff ff ff	add64 r7, -116
    7598:	bf 72 00 00 00 00 00 00	mov64 r2, r7
    7599:	85 10 00 00 b2 03 00 00	call 946
    7600:	b7 01 00 00 01 00 00 00	mov64 r1, 1
    7601:	7b 1a a8 ff 00 00 00 00	stxdw [r10 - 88], r1
    7602:	b7 01 00 00 00 00 00 00	mov64 r1, 0
    7603:	7b 1a b0 ff 00 00 00 00	stxdw [r10 - 80], r1
    7604:	7b 1a b8 ff 00 00 00 00	stxdw [r10 - 72], r1
    7605:	bf a8 00 00 00 00 00 00	mov64 r8, r10
    7606:	07 08 00 00 c0 ff ff ff	add64 r8, -64
    7607:	bf a2 00 00 00 00 00 00	mov64 r2, r10
    7608:	07 02 00 00 a8 ff ff ff	add64 r2, -88
    7609:	bf 81 00 00 00 00 00 00	mov64 r1, r8
    7610:	18 03 00 00 10 7c 02 00 00 00 00 00 00 00 00 00	lddw r3, 162832
    7612:	85 10 00 00 68 1e 00 00	call 7784
    7613:	bf 71 00 00 00 00 00 00	mov64 r1, r7
    7614:	bf 82 00 00 00 00 00 00	mov64 r2, r8
    7615:	85 10 00 00 38 07 00 00	call 1848
    7616:	15 00 14 00 00 00 00 00	jeq r0, 0, +20 <custom_panic+0x3a30>
    7617:	bf a3 00 00 00 00 00 00	mov64 r3, r10
    7618:	07 03 00 00 28 ff ff ff	add64 r3, -216
    7619:	18 01 00 00 4c 56 02 00 00 00 00 00 00 00 00 00	lddw r1, 153164
    7621:	b7 02 00 00 37 00 00 00	mov64 r2, 55
    7622:	18 04 00 00 40 7c 02 00 00 00 00 00 00 00 00 00	lddw r4, 162880
    7624:	18 05 00 00 60 7c 02 00 00 00 00 00 00 00 00 00	lddw r5, 162912
    7626:	85 10 00 00 ca 1b 00 00	call 7114
    7627:	85 10 00 00 ff ff ff ff	call -1
    7628:	07 01 00 00 ff ff ff ff	add64 r1, -1
    7629:	7b 13 08 00 00 00 00 00	stxdw [r3 + 8], r1
    7630:	79 32 00 00 00 00 00 00	ldxdw r2, [r3 + 0]
    7631:	bf 21 00 00 00 00 00 00	mov64 r1, r2
    7632:	07 01 00 00 30 00 00 00	add64 r1, 48
    7633:	7b 13 00 00 00 00 00 00	stxdw [r3 + 0], r1
    7634:	bf 61 00 00 00 00 00 00	mov64 r1, r6
    7635:	85 10 00 00 70 ff ff ff	call -144
    7636:	05 00 16 00 00 00 00 00	ja +22 <custom_panic+0x3ae0>
    7637:	79 a1 b8 ff 00 00 00 00	ldxdw r1, [r10 - 72]
    7638:	7b 16 90 00 00 00 00 00	stxdw [r6 + 144], r1
    7639:	79 a1 b0 ff 00 00 00 00	ldxdw r1, [r10 - 80]
    7640:	7b 16 88 00 00 00 00 00	stxdw [r6 + 136], r1
    7641:	79 a1 a8 ff 00 00 00 00	ldxdw r1, [r10 - 88]
    7642:	7b 16 80 00 00 00 00 00	stxdw [r6 + 128], r1
    7643:	79 a1 90 ff 00 00 00 00	ldxdw r1, [r10 - 112]
    7644:	7b 1a 6f ff 00 00 00 00	stxdw [r10 - 145], r1
    7645:	79 a1 98 ff 00 00 00 00	ldxdw r1, [r10 - 104]
    7646:	7b 1a 77 ff 00 00 00 00	stxdw [r10 - 137], r1
    7647:	79 a1 a0 ff 00 00 00 00	ldxdw r1, [r10 - 96]
    7648:	7b 1a 7f ff 00 00 00 00	stxdw [r10 - 129], r1
    7649:	b7 01 00 00 02 00 00 00	mov64 r1, 2
    7650:	73 16 20 00 00 00 00 00	stxb [r6 + 32], r1
    7651:	7b 16 00 00 00 00 00 00	stxdw [r6 + 0], r1
    7652:	bf 61 00 00 00 00 00 00	mov64 r1, r6
    7653:	07 01 00 00 21 00 00 00	add64 r1, 33
    7654:	bf a2 00 00 00 00 00 00	mov64 r2, r10
    7655:	07 02 00 00 28 ff ff ff	add64 r2, -216
    7656:	b7 03 00 00 5f 00 00 00	mov64 r3, 95
    7657:	85 10 00 00 b0 29 00 00	call 10672
    7658:	63 96 98 00 00 00 00 00	stxw [r6 + 152], r9
    7659:	95 00 00 00 00 00 00 00	exit
    7660:	bf 16 00 00 00 00 00 00	mov64 r6, r1
    7661:	79 31 08 00 00 00 00 00	ldxdw r1, [r3 + 8]
    7662:	55 01 24 00 00 00 00 00	jne r1, 0, +36 <custom_panic+0x3c20>
    7663:	b7 09 00 00 bd 0b 00 00	mov64 r9, 3005
    7664:	63 9a 8c ff 00 00 00 00	stxw [r10 - 116], r9
    7665:	bf a1 00 00 00 00 00 00	mov64 r1, r10
    7666:	07 01 00 00 90 ff ff ff	add64 r1, -112
    7667:	bf a7 00 00 00 00 00 00	mov64 r7, r10
    7668:	07 07 00 00 8c ff ff ff	add64 r7, -116
    7669:	bf 72 00 00 00 00 00 00	mov64 r2, r7
    7670:	85 10 00 00 6b 03 00 00	call 875
    7671:	b7 01 00 00 01 00 00 00	mov64 r1, 1
    7672:	7b 1a a8 ff 00 00 00 00	stxdw [r10 - 88], r1
    7673:	b7 01 00 00 00 00 00 00	mov64 r1, 0
    7674:	7b 1a b0 ff 00 00 00 00	stxdw [r10 - 80], r1
    7675:	7b 1a b8 ff 00 00 00 00	stxdw [r10 - 72], r1
    7676:	bf a8 00 00 00 00 00 00	mov64 r8, r10
    7677:	07 08 00 00 c0 ff ff ff	add64 r8, -64
    7678:	bf a2 00 00 00 00 00 00	mov64 r2, r10
    7679:	07 02 00 00 a8 ff ff ff	add64 r2, -88
    7680:	bf 81 00 00 00 00 00 00	mov64 r1, r8
    7681:	18 03 00 00 10 7c 02 00 00 00 00 00 00 00 00 00	lddw r3, 162832
    7683:	85 10 00 00 21 1e 00 00	call 7713
    7684:	bf 71 00 00 00 00 00 00	mov64 r1, r7
    7685:	bf 82 00 00 00 00 00 00	mov64 r2, r8
    7686:	85 10 00 00 f1 06 00 00	call 1777
    7687:	15 00 35 00 00 00 00 00	jeq r0, 0, +53 <custom_panic+0x3d70>
    7688:	bf a3 00 00 00 00 00 00	mov64 r3, r10
    7689:	07 03 00 00 28 ff ff ff	add64 r3, -216
    7690:	18 01 00 00 4c 56 02 00 00 00 00 00 00 00 00 00	lddw r1, 153164
    7692:	b7 02 00 00 37 00 00 00	mov64 r2, 55
    7693:	18 04 00 00 40 7c 02 00 00 00 00 00 00 00 00 00	lddw r4, 162880
    7695:	18 05 00 00 60 7c 02 00 00 00 00 00 00 00 00 00	lddw r5, 162912
    7697:	85 10 00 00 83 1b 00 00	call 7043
    7698:	85 10 00 00 ff ff ff ff	call -1
    7699:	07 01 00 00 ff ff ff ff	add64 r1, -1
    7700:	7b 13 08 00 00 00 00 00	stxdw [r3 + 8], r1
    7701:	79 32 00 00 00 00 00 00	ldxdw r2, [r3 + 0]
    7702:	bf 21 00 00 00 00 00 00	mov64 r1, r2
    7703:	07 01 00 00 30 00 00 00	add64 r1, 48
    7704:	7b 13 00 00 00 00 00 00	stxdw [r3 + 0], r1
    7705:	79 21 08 00 00 00 00 00	ldxdw r1, [r2 + 8]
    7706:	79 14 00 00 00 00 00 00	ldxdw r4, [r1 + 0]
    7707:	07 04 00 00 01 00 00 00	add64 r4, 1
    7708:	b7 05 00 00 01 00 00 00	mov64 r5, 1
    7709:	15 04 01 00 00 00 00 00	jeq r4, 0, +1 <custom_panic+0x3c80>
    7710:	b7 05 00 00 00 00 00 00	mov64 r5, 0
    7711:	79 23 00 00 00 00 00 00	ldxdw r3, [r2 + 0]
    7712:	7b 41 00 00 00 00 00 00	stxdw [r1 + 0], r4
    7713:	55 05 02 00 01 00 00 00	jne r5, 1, +2 <custom_panic+0x3ca8>
    7714:	85 10 00 00 ff ff ff ff	call -1
    7715:	85 10 00 00 ff ff ff ff	call -1
    7716:	79 24 10 00 00 00 00 00	ldxdw r4, [r2 + 16]
    7717:	79 45 00 00 00 00 00 00	ldxdw r5, [r4 + 0]
    7718:	07 05 00 00 01 00 00 00	add64 r5, 1
    7719:	b7 00 00 00 01 00 00 00	mov64 r0, 1
    7720:	15 05 01 00 00 00 00 00	jeq r5, 0, +1 <custom_panic+0x3cd8>
    7721:	b7 00 00 00 00 00 00 00	mov64 r0, 0
    7722:	7b 54 00 00 00 00 00 00	stxdw [r4 + 0], r5
    7723:	55 00 01 00 01 00 00 00	jne r0, 1, +1 <custom_panic+0x3cf0>
    7724:	05 00 f5 ff 00 00 00 00	ja -11 <custom_panic+0x3c98>
    7725:	79 25 18 00 00 00 00 00	ldxdw r5, [r2 + 24]
    7726:	79 20 20 00 00 00 00 00	ldxdw r0, [r2 + 32]
    7727:	71 27 28 00 00 00 00 00	ldxb r7, [r2 + 40]
    7728:	71 28 29 00 00 00 00 00	ldxb r8, [r2 + 41]
    7729:	71 22 2a 00 00 00 00 00	ldxb r2, [r2 + 42]
    7730:	73 26 32 00 00 00 00 00	stxb [r6 + 50], r2
    7731:	73 86 31 00 00 00 00 00	stxb [r6 + 49], r8
    7732:	73 76 30 00 00 00 00 00	stxb [r6 + 48], r7
    7733:	7b 06 28 00 00 00 00 00	stxdw [r6 + 40], r0
    7734:	7b 56 20 00 00 00 00 00	stxdw [r6 + 32], r5
    7735:	7b 46 18 00 00 00 00 00	stxdw [r6 + 24], r4
    7736:	7b 16 10 00 00 00 00 00	stxdw [r6 + 16], r1
    7737:	7b 36 08 00 00 00 00 00	stxdw [r6 + 8], r3
    7738:	b7 01 00 00 04 00 00 00	mov64 r1, 4
    7739:	7b 16 00 00 00 00 00 00	stxdw [r6 + 0], r1
    7740:	05 00 16 00 00 00 00 00	ja +22 <custom_panic+0x3e20>
    7741:	79 a1 b8 ff 00 00 00 00	ldxdw r1, [r10 - 72]
    7742:	7b 16 90 00 00 00 00 00	stxdw [r6 + 144], r1
    7743:	79 a1 b0 ff 00 00 00 00	ldxdw r1, [r10 - 80]
    7744:	7b 16 88 00 00 00 00 00	stxdw [r6 + 136], r1
    7745:	79 a1 a8 ff 00 00 00 00	ldxdw r1, [r10 - 88]
    7746:	7b 16 80 00 00 00 00 00	stxdw [r6 + 128], r1
    7747:	79 a1 90 ff 00 00 00 00	ldxdw r1, [r10 - 112]
    7748:	7b 1a 6f ff 00 00 00 00	stxdw [r10 - 145], r1
    7749:	79 a1 98 ff 00 00 00 00	ldxdw r1, [r10 - 104]
    7750:	7b 1a 77 ff 00 00 00 00	stxdw [r10 - 137], r1
    7751:	79 a1 a0 ff 00 00 00 00	ldxdw r1, [r10 - 96]
    7752:	7b 1a 7f ff 00 00 00 00	stxdw [r10 - 129], r1
    7753:	b7 01 00 00 02 00 00 00	mov64 r1, 2
    7754:	73 16 20 00 00 00 00 00	stxb [r6 + 32], r1
    7755:	7b 16 00 00 00 00 00 00	stxdw [r6 + 0], r1
    7756:	bf 61 00 00 00 00 00 00	mov64 r1, r6
    7757:	07 01 00 00 21 00 00 00	add64 r1, 33
    7758:	bf a2 00 00 00 00 00 00	mov64 r2, r10
    7759:	07 02 00 00 28 ff ff ff	add64 r2, -216
    7760:	b7 03 00 00 5f 00 00 00	mov64 r3, 95
    7761:	85 10 00 00 48 29 00 00	call 10568
    7762:	63 96 98 00 00 00 00 00	stxw [r6 + 152], r9
    7763:	95 00 00 00 00 00 00 00	exit
    7764:	bf 10 00 00 00 00 00 00	mov64 r0, r1
    7765:	95 00 00 00 00 00 00 00	exit
    7766:	bf 16 00 00 00 00 00 00	mov64 r6, r1
    7767:	79 21 18 00 00 00 00 00	ldxdw r1, [r2 + 24]
    7768:	7b 1a f8 ff 00 00 00 00	stxdw [r10 - 8], r1
    7769:	79 21 10 00 00 00 00 00	ldxdw r1, [r2 + 16]
    7770:	7b 1a f0 ff 00 00 00 00	stxdw [r10 - 16], r1
    7771:	79 21 08 00 00 00 00 00	ldxdw r1, [r2 + 8]
    7772:	7b 1a e8 ff 00 00 00 00	stxdw [r10 - 24], r1
    7773:	79 21 00 00 00 00 00 00	ldxdw r1, [r2 + 0]
    7774:	7b 1a e0 ff 00 00 00 00	stxdw [r10 - 32], r1
    7775:	b7 07 00 00 02 00 00 00	mov64 r7, 2
    7776:	7b 76 08 00 00 00 00 00	stxdw [r6 + 8], r7
    7777:	bf 61 00 00 00 00 00 00	mov64 r1, r6
    7778:	07 01 00 00 10 00 00 00	add64 r1, 16
    7779:	bf a2 00 00 00 00 00 00	mov64 r2, r10
    7780:	07 02 00 00 c8 ff ff ff	add64 r2, -56
    7781:	b7 03 00 00 38 00 00 00	mov64 r3, 56
    7782:	85 10 00 00 33 29 00 00	call 10547
    7783:	73 76 48 00 00 00 00 00	stxb [r6 + 72], r7
    7784:	b7 01 00 00 03 00 00 00	mov64 r1, 3
    7785:	7b 16 00 00 00 00 00 00	stxdw [r6 + 0], r1
    7786:	95 00 00 00 00 00 00 00	exit
    7787:	79 12 00 00 00 00 00 00	ldxdw r2, [r1 + 0]
    7788:	15 02 02 00 03 00 00 00	jeq r2, 3, +2 <custom_panic+0x3f00>
    7789:	85 10 00 00 4b 01 00 00	call 331
    7790:	05 00 02 00 00 00 00 00	ja +2 <custom_panic+0x3f10>
    7791:	07 01 00 00 08 00 00 00	add64 r1, 8
    7792:	85 10 00 00 47 00 00 00	call 71
    7793:	95 00 00 00 00 00 00 00	exit
    7794:	bf 26 00 00 00 00 00 00	mov64 r6, r2
    7795:	bf 17 00 00 00 00 00 00	mov64 r7, r1
    7796:	79 31 38 00 00 00 00 00	ldxdw r1, [r3 + 56]
    7797:	7b 1a f8 ff 00 00 00 00	stxdw [r10 - 8], r1
    7798:	79 31 30 00 00 00 00 00	ldxdw r1, [r3 + 48]
    7799:	7b 1a f0 ff 00 00 00 00	stxdw [r10 - 16], r1
    7800:	79 31 28 00 00 00 00 00	ldxdw r1, [r3 + 40]
    7801:	7b 1a e8 ff 00 00 00 00	stxdw [r10 - 24], r1
    7802:	79 31 20 00 00 00 00 00	ldxdw r1, [r3 + 32]
    7803:	7b 1a e0 ff 00 00 00 00	stxdw [r10 - 32], r1
    7804:	79 31 00 00 00 00 00 00	ldxdw r1, [r3 + 0]
    7805:	7b 1a c0 ff 00 00 00 00	stxdw [r10 - 64], r1
    7806:	79 31 08 00 00 00 00 00	ldxdw r1, [r3 + 8]
    7807:	7b 1a c8 ff 00 00 00 00	stxdw [r10 - 56], r1
    7808:	79 31 10 00 00 00 00 00	ldxdw r1, [r3 + 16]
    7809:	7b 1a d0 ff 00 00 00 00	stxdw [r10 - 48], r1
    7810:	79 31 18 00 00 00 00 00	ldxdw r1, [r3 + 24]
    7811:	7b 1a d8 ff 00 00 00 00	stxdw [r10 - 40], r1
    7812:	bf a1 00 00 00 00 00 00	mov64 r1, r10
    7813:	07 01 00 00 80 ff ff ff	add64 r1, -128
    7814:	bf a2 00 00 00 00 00 00	mov64 r2, r10
    7815:	07 02 00 00 c0 ff ff ff	add64 r2, -64
    7816:	b7 03 00 00 40 00 00 00	mov64 r3, 64
    7817:	85 10 00 00 10 29 00 00	call 10512
    7818:	79 61 00 00 00 00 00 00	ldxdw r1, [r6 + 0]
    7819:	15 01 12 00 03 00 00 00	jeq r1, 3, +18 <custom_panic+0x4078>
    7820:	71 61 20 00 00 00 00 00	ldxb r1, [r6 + 32]
    7821:	15 01 0b 00 02 00 00 00	jeq r1, 2, +11 <custom_panic+0x4050>
    7822:	55 01 0a 00 00 00 00 00	jne r1, 0, +10 <custom_panic+0x4050>
    7823:	79 62 30 00 00 00 00 00	ldxdw r2, [r6 + 48]
    7824:	15 02 03 00 00 00 00 00	jeq r2, 0, +3 <custom_panic+0x4028>
    7825:	79 61 28 00 00 00 00 00	ldxdw r1, [r6 + 40]
    7826:	b7 03 00 00 01 00 00 00	mov64 r3, 1
    7827:	85 10 00 00 d9 f7 ff ff	call -2087
    7828:	79 62 48 00 00 00 00 00	ldxdw r2, [r6 + 72]
    7829:	15 02 03 00 00 00 00 00	jeq r2, 0, +3 <custom_panic+0x4050>
    7830:	79 61 40 00 00 00 00 00	ldxdw r1, [r6 + 64]
    7831:	b7 03 00 00 01 00 00 00	mov64 r3, 1
    7832:	85 10 00 00 d4 f7 ff ff	call -2092
    7833:	b7 01 00 00 01 00 00 00	mov64 r1, 1
    7834:	73 16 20 00 00 00 00 00	stxb [r6 + 32], r1
    7835:	bf 61 00 00 00 00 00 00	mov64 r1, r6
    7836:	07 01 00 00 21 00 00 00	add64 r1, 33
    7837:	05 00 11 00 00 00 00 00	ja +17 <custom_panic+0x4100>
    7838:	71 61 48 00 00 00 00 00	ldxb r1, [r6 + 72]
    7839:	15 01 0b 00 02 00 00 00	jeq r1, 2, +11 <custom_panic+0x40e0>
    7840:	55 01 0a 00 00 00 00 00	jne r1, 0, +10 <custom_panic+0x40e0>
    7841:	79 62 58 00 00 00 00 00	ldxdw r2, [r6 + 88]
    7842:	15 02 03 00 00 00 00 00	jeq r2, 0, +3 <custom_panic+0x40b8>
    7843:	79 61 50 00 00 00 00 00	ldxdw r1, [r6 + 80]
    7844:	b7 03 00 00 01 00 00 00	mov64 r3, 1
    7845:	85 10 00 00 c7 f7 ff ff	call -2105
    7846:	79 62 70 00 00 00 00 00	ldxdw r2, [r6 + 112]
    7847:	15 02 03 00 00 00 00 00	jeq r2, 0, +3 <custom_panic+0x40e0>
    7848:	79 61 68 00 00 00 00 00	ldxdw r1, [r6 + 104]
    7849:	b7 03 00 00 01 00 00 00	mov64 r3, 1
    7850:	85 10 00 00 c2 f7 ff ff	call -2110
    7851:	b7 01 00 00 01 00 00 00	mov64 r1, 1
    7852:	73 16 48 00 00 00 00 00	stxb [r6 + 72], r1
    7853:	bf 61 00 00 00 00 00 00	mov64 r1, r6
    7854:	07 01 00 00 49 00 00 00	add64 r1, 73
    7855:	bf a2 00 00 00 00 00 00	mov64 r2, r10
    7856:	07 02 00 00 80 ff ff ff	add64 r2, -128
    7857:	b7 03 00 00 40 00 00 00	mov64 r3, 64
    7858:	85 10 00 00 e7 28 00 00	call 10471
    7859:	bf 71 00 00 00 00 00 00	mov64 r1, r7
    7860:	bf 62 00 00 00 00 00 00	mov64 r2, r6
    7861:	b7 03 00 00 a0 00 00 00	mov64 r3, 160
    7862:	85 10 00 00 e3 28 00 00	call 10467
    7863:	95 00 00 00 00 00 00 00	exit
    7864:	bf 16 00 00 00 00 00 00	mov64 r6, r1
    7865:	79 61 00 00 00 00 00 00	ldxdw r1, [r6 + 0]
    7866:	15 01 46 00 00 00 00 00	jeq r1, 0, +70 <custom_panic+0x4390>
    7867:	15 01 81 00 01 00 00 00	jeq r1, 1, +129 <custom_panic+0x4570>
    7868:	bf 67 00 00 00 00 00 00	mov64 r7, r6
    7869:	07 07 00 00 20 00 00 00	add64 r7, 32
    7870:	bf a8 00 00 00 00 00 00	mov64 r8, r10
    7871:	07 08 00 00 d0 ff ff ff	add64 r8, -48
    7872:	bf 81 00 00 00 00 00 00	mov64 r1, r8
    7873:	bf 72 00 00 00 00 00 00	mov64 r2, r7
    7874:	85 10 00 00 37 fe ff ff	call -457
    7875:	bf 81 00 00 00 00 00 00	mov64 r1, r8
    7876:	85 10 00 00 3e 10 00 00	call 4158
    7877:	7b 0a f8 ff 00 00 00 00	stxdw [r10 - 8], r0
    7878:	18 01 00 00 30 88 01 00 00 00 00 00 00 00 00 00	lddw r1, 100400
    7880:	7b 1a 78 ff 00 00 00 00	stxdw [r10 - 136], r1
    7881:	18 01 00 00 28 34 02 00 00 00 00 00 00 00 00 00	lddw r1, 144424
    7883:	7b 1a 68 ff 00 00 00 00	stxdw [r10 - 152], r1
    7884:	bf a1 00 00 00 00 00 00	mov64 r1, r10
    7885:	07 01 00 00 f8 ff ff ff	add64 r1, -8
    7886:	7b 1a 60 ff 00 00 00 00	stxdw [r10 - 160], r1
    7887:	18 01 00 00 98 83 01 00 00 00 00 00 00 00 00 00	lddw r1, 99224
    7889:	7b 1a 58 ff 00 00 00 00	stxdw [r10 - 168], r1
    7890:	7b 7a 70 ff 00 00 00 00	stxdw [r10 - 144], r7
    7891:	7b 7a 50 ff 00 00 00 00	stxdw [r10 - 176], r7
    7892:	b7 01 00 00 00 00 00 00	mov64 r1, 0
    7893:	7b 1a c0 ff 00 00 00 00	stxdw [r10 - 64], r1
    7894:	b7 01 00 00 04 00 00 00	mov64 r1, 4
    7895:	7b 1a a8 ff 00 00 00 00	stxdw [r10 - 88], r1
    7896:	18 01 00 00 a8 7c 02 00 00 00 00 00 00 00 00 00	lddw r1, 162984
    7898:	7b 1a a0 ff 00 00 00 00	stxdw [r10 - 96], r1
    7899:	b7 01 00 00 03 00 00 00	mov64 r1, 3
    7900:	7b 1a b8 ff 00 00 00 00	stxdw [r10 - 72], r1
    7901:	bf a1 00 00 00 00 00 00	mov64 r1, r10
    7902:	07 01 00 00 50 ff ff ff	add64 r1, -176
    7903:	7b 1a b0 ff 00 00 00 00	stxdw [r10 - 80], r1
    7904:	bf a1 00 00 00 00 00 00	mov64 r1, r10
    7905:	07 01 00 00 d0 ff ff ff	add64 r1, -48
    7906:	bf a2 00 00 00 00 00 00	mov64 r2, r10
    7907:	07 02 00 00 a0 ff ff ff	add64 r2, -96
    7908:	85 10 00 00 d3 17 00 00	call 6099
    7909:	79 a7 d8 ff 00 00 00 00	ldxdw r7, [r10 - 40]
    7910:	79 a8 d0 ff 00 00 00 00	ldxdw r8, [r10 - 48]
    7911:	79 a2 e0 ff 00 00 00 00	ldxdw r2, [r10 - 32]
    7912:	bf 81 00 00 00 00 00 00	mov64 r1, r8
    7913:	85 10 00 00 ff ff ff ff	call -1
    7914:	15 07 04 00 00 00 00 00	jeq r7, 0, +4 <custom_panic+0x4300>
    7915:	bf 81 00 00 00 00 00 00	mov64 r1, r8
    7916:	bf 72 00 00 00 00 00 00	mov64 r2, r7
    7917:	b7 03 00 00 01 00 00 00	mov64 r3, 1
    7918:	85 10 00 00 7e f7 ff ff	call -2178
    7919:	71 61 40 00 00 00 00 00	ldxb r1, [r6 + 64]
    7920:	15 01 85 00 00 00 00 00	jeq r1, 0, +133 <custom_panic+0x4738>
    7921:	15 01 c6 00 02 00 00 00	jeq r1, 2, +198 <custom_panic+0x4948>
    7922:	18 01 00 00 28 57 02 00 00 00 00 00 00 00 00 00	lddw r1, 153384
    7924:	b7 02 00 00 05 00 00 00	mov64 r2, 5
    7925:	85 10 00 00 ff ff ff ff	call -1
    7926:	bf 61 00 00 00 00 00 00	mov64 r1, r6
    7927:	07 01 00 00 41 00 00 00	add64 r1, 65
    7928:	85 10 00 00 06 11 00 00	call 4358
    7929:	18 01 00 00 2d 57 02 00 00 00 00 00 00 00 00 00	lddw r1, 153389
    7931:	b7 02 00 00 06 00 00 00	mov64 r2, 6
    7932:	85 10 00 00 ff ff ff ff	call -1
    7933:	07 06 00 00 61 00 00 00	add64 r6, 97
    7934:	bf 61 00 00 00 00 00 00	mov64 r1, r6
    7935:	85 10 00 00 ff 10 00 00	call 4351
    7936:	05 00 b7 00 00 00 00 00	ja +183 <custom_panic+0x4948>
    7937:	bf 67 00 00 00 00 00 00	mov64 r7, r6
    7938:	07 07 00 00 20 00 00 00	add64 r7, 32
    7939:	bf a8 00 00 00 00 00 00	mov64 r8, r10
    7940:	07 08 00 00 d0 ff ff ff	add64 r8, -48
    7941:	bf 81 00 00 00 00 00 00	mov64 r1, r8
    7942:	bf 72 00 00 00 00 00 00	mov64 r2, r7
    7943:	85 10 00 00 f2 fd ff ff	call -526
    7944:	bf 81 00 00 00 00 00 00	mov64 r1, r8
    7945:	85 10 00 00 f9 0f 00 00	call 4089
    7946:	7b 0a f8 ff 00 00 00 00	stxdw [r10 - 8], r0
    7947:	18 01 00 00 30 88 01 00 00 00 00 00 00 00 00 00	lddw r1, 100400
    7949:	7b 1a 98 ff 00 00 00 00	stxdw [r10 - 104], r1
    7950:	18 01 00 00 28 34 02 00 00 00 00 00 00 00 00 00	lddw r1, 144424
    7952:	7b 1a 88 ff 00 00 00 00	stxdw [r10 - 120], r1
    7953:	bf a1 00 00 00 00 00 00	mov64 r1, r10
    7954:	07 01 00 00 f8 ff ff ff	add64 r1, -8
    7955:	7b 1a 80 ff 00 00 00 00	stxdw [r10 - 128], r1
    7956:	18 01 00 00 98 83 01 00 00 00 00 00 00 00 00 00	lddw r1, 99224
    7958:	7b 1a 78 ff 00 00 00 00	stxdw [r10 - 136], r1
    7959:	7b 7a 90 ff 00 00 00 00	stxdw [r10 - 112], r7
    7960:	7b 7a 70 ff 00 00 00 00	stxdw [r10 - 144], r7
    7961:	18 01 00 00 00 34 02 00 00 00 00 00 00 00 00 00	lddw r1, 144384
    7963:	7b 1a 68 ff 00 00 00 00	stxdw [r10 - 152], r1
    7964:	bf 61 00 00 00 00 00 00	mov64 r1, r6
    7965:	07 01 00 00 18 00 00 00	add64 r1, 24
    7966:	7b 1a 60 ff 00 00 00 00	stxdw [r10 - 160], r1
    7967:	18 01 00 00 38 da 00 00 00 00 00 00 00 00 00 00	lddw r1, 55864
    7969:	7b 1a 58 ff 00 00 00 00	stxdw [r10 - 168], r1
    7970:	bf 61 00 00 00 00 00 00	mov64 r1, r6
    7971:	07 01 00 00 08 00 00 00	add64 r1, 8
    7972:	7b 1a 50 ff 00 00 00 00	stxdw [r10 - 176], r1
    7973:	b7 01 00 00 00 00 00 00	mov64 r1, 0
    7974:	7b 1a c0 ff 00 00 00 00	stxdw [r10 - 64], r1
    7975:	b7 01 00 00 06 00 00 00	mov64 r1, 6
    7976:	7b 1a a8 ff 00 00 00 00	stxdw [r10 - 88], r1
    7977:	18 01 00 00 e8 7c 02 00 00 00 00 00 00 00 00 00	lddw r1, 163048
    7979:	7b 1a a0 ff 00 00 00 00	stxdw [r10 - 96], r1
    7980:	b7 01 00 00 05 00 00 00	mov64 r1, 5
    7981:	7b 1a b8 ff 00 00 00 00	stxdw [r10 - 72], r1
    7982:	bf a1 00 00 00 00 00 00	mov64 r1, r10
    7983:	07 01 00 00 50 ff ff ff	add64 r1, -176
    7984:	7b 1a b0 ff 00 00 00 00	stxdw [r10 - 80], r1
    7985:	bf a1 00 00 00 00 00 00	mov64 r1, r10
    7986:	07 01 00 00 d0 ff ff ff	add64 r1, -48
    7987:	bf a2 00 00 00 00 00 00	mov64 r2, r10
    7988:	07 02 00 00 a0 ff ff ff	add64 r2, -96
    7989:	85 10 00 00 82 17 00 00	call 6018
    7990:	79 a7 d8 ff 00 00 00 00	ldxdw r7, [r10 - 40]
    7991:	79 a8 d0 ff 00 00 00 00	ldxdw r8, [r10 - 48]
    7992:	79 a2 e0 ff 00 00 00 00	ldxdw r2, [r10 - 32]
    7993:	bf 81 00 00 00 00 00 00	mov64 r1, r8
    7994:	85 10 00 00 ff ff ff ff	call -1
    7995:	15 07 b3 ff 00 00 00 00	jeq r7, 0, -77 <custom_panic+0x4300>
    7996:	05 00 ae ff 00 00 00 00	ja -82 <custom_panic+0x42e0>
    7997:	bf 61 00 00 00 00 00 00	mov64 r1, r6
    7998:	07 01 00 00 08 00 00 00	add64 r1, 8
    7999:	7b 1a f0 ff 00 00 00 00	stxdw [r10 - 16], r1
    8000:	bf 67 00 00 00 00 00 00	mov64 r7, r6
    8001:	07 07 00 00 20 00 00 00	add64 r7, 32
    8002:	bf a8 00 00 00 00 00 00	mov64 r8, r10
    8003:	07 08 00 00 d0 ff ff ff	add64 r8, -48
    8004:	bf 81 00 00 00 00 00 00	mov64 r1, r8
    8005:	bf 72 00 00 00 00 00 00	mov64 r2, r7
    8006:	85 10 00 00 b3 fd ff ff	call -589
    8007:	bf 81 00 00 00 00 00 00	mov64 r1, r8
    8008:	85 10 00 00 ba 0f 00 00	call 4026
    8009:	7b 0a f8 ff 00 00 00 00	stxdw [r10 - 8], r0
    8010:	18 01 00 00 30 88 01 00 00 00 00 00 00 00 00 00	lddw r1, 100400
    8012:	7b 1a 88 ff 00 00 00 00	stxdw [r10 - 120], r1
    8013:	18 01 00 00 28 34 02 00 00 00 00 00 00 00 00 00	lddw r1, 144424
    8015:	7b 1a 78 ff 00 00 00 00	stxdw [r10 - 136], r1
    8016:	bf a1 00 00 00 00 00 00	mov64 r1, r10
    8017:	07 01 00 00 f8 ff ff ff	add64 r1, -8
    8018:	7b 1a 70 ff 00 00 00 00	stxdw [r10 - 144], r1
    8019:	18 01 00 00 98 83 01 00 00 00 00 00 00 00 00 00	lddw r1, 99224
    8021:	7b 1a 68 ff 00 00 00 00	stxdw [r10 - 152], r1
    8022:	7b 7a 80 ff 00 00 00 00	stxdw [r10 - 128], r7
    8023:	7b 7a 60 ff 00 00 00 00	stxdw [r10 - 160], r7
    8024:	18 01 00 00 08 da 00 00 00 00 00 00 00 00 00 00	lddw r1, 55816
    8026:	7b 1a 58 ff 00 00 00 00	stxdw [r10 - 168], r1
    8027:	bf a1 00 00 00 00 00 00	mov64 r1, r10
    8028:	07 01 00 00 f0 ff ff ff	add64 r1, -16
    8029:	7b 1a 50 ff 00 00 00 00	stxdw [r10 - 176], r1
    8030:	b7 01 00 00 00 00 00 00	mov64 r1, 0
    8031:	7b 1a c0 ff 00 00 00 00	stxdw [r10 - 64], r1
    8032:	b7 01 00 00 05 00 00 00	mov64 r1, 5
    8033:	7b 1a a8 ff 00 00 00 00	stxdw [r10 - 88], r1
    8034:	18 01 00 00 48 7d 02 00 00 00 00 00 00 00 00 00	lddw r1, 163144
    8036:	7b 1a a0 ff 00 00 00 00	stxdw [r10 - 96], r1
    8037:	b7 01 00 00 04 00 00 00	mov64 r1, 4
    8038:	7b 1a b8 ff 00 00 00 00	stxdw [r10 - 72], r1
    8039:	bf a1 00 00 00 00 00 00	mov64 r1, r10
    8040:	07 01 00 00 50 ff ff ff	add64 r1, -176
    8041:	7b 1a b0 ff 00 00 00 00	stxdw [r10 - 80], r1
    8042:	bf a1 00 00 00 00 00 00	mov64 r1, r10
    8043:	07 01 00 00 d0 ff ff ff	add64 r1, -48
    8044:	bf a2 00 00 00 00 00 00	mov64 r2, r10
    8045:	07 02 00 00 a0 ff ff ff	add64 r2, -96
    8046:	85 10 00 00 49 17 00 00	call 5961
    8047:	79 a7 d8 ff 00 00 00 00	ldxdw r7, [r10 - 40]
    8048:	79 a8 d0 ff 00 00 00 00	ldxdw r8, [r10 - 48]
    8049:	79 a2 e0 ff 00 00 00 00	ldxdw r2, [r10 - 32]
    8050:	bf 81 00 00 00 00 00 00	mov64 r1, r8
    8051:	85 10 00 00 ff ff ff ff	call -1
    8052:	15 07 7a ff 00 00 00 00	jeq r7, 0, -134 <custom_panic+0x4300>
    8053:	05 00 75 ff 00 00 00 00	ja -139 <custom_panic+0x42e0>
    8054:	bf 61 00 00 00 00 00 00	mov64 r1, r6
    8055:	07 01 00 00 48 00 00 00	add64 r1, 72
    8056:	7b 1a f0 ff 00 00 00 00	stxdw [r10 - 16], r1
    8057:	07 06 00 00 60 00 00 00	add64 r6, 96
    8058:	7b 6a f8 ff 00 00 00 00	stxdw [r10 - 8], r6
    8059:	b7 01 00 00 00 00 00 00	mov64 r1, 0
    8060:	7b 1a 70 ff 00 00 00 00	stxdw [r10 - 144], r1
    8061:	18 01 00 00 98 7d 02 00 00 00 00 00 00 00 00 00	lddw r1, 163224
    8063:	7b 1a 50 ff 00 00 00 00	stxdw [r10 - 176], r1
    8064:	b7 09 00 00 01 00 00 00	mov64 r9, 1
    8065:	7b 9a 58 ff 00 00 00 00	stxdw [r10 - 168], r9
    8066:	7b 9a 68 ff 00 00 00 00	stxdw [r10 - 152], r9
    8067:	bf a1 00 00 00 00 00 00	mov64 r1, r10
    8068:	07 01 00 00 d0 ff ff ff	add64 r1, -48
    8069:	7b 1a 60 ff 00 00 00 00	stxdw [r10 - 160], r1
    8070:	18 08 00 00 08 da 00 00 00 00 00 00 00 00 00 00	lddw r8, 55816
    8072:	7b 8a d8 ff 00 00 00 00	stxdw [r10 - 40], r8
    8073:	bf a1 00 00 00 00 00 00	mov64 r1, r10
    8074:	07 01 00 00 f0 ff ff ff	add64 r1, -16
    8075:	7b 1a d0 ff 00 00 00 00	stxdw [r10 - 48], r1
    8076:	bf a1 00 00 00 00 00 00	mov64 r1, r10
    8077:	07 01 00 00 a0 ff ff ff	add64 r1, -96
    8078:	bf a2 00 00 00 00 00 00	mov64 r2, r10
    8079:	07 02 00 00 50 ff ff ff	add64 r2, -176
    8080:	85 10 00 00 27 17 00 00	call 5927
    8081:	79 a6 a8 ff 00 00 00 00	ldxdw r6, [r10 - 88]
    8082:	79 a7 a0 ff 00 00 00 00	ldxdw r7, [r10 - 96]
    8083:	79 a2 b0 ff 00 00 00 00	ldxdw r2, [r10 - 80]
    8084:	bf 71 00 00 00 00 00 00	mov64 r1, r7
    8085:	85 10 00 00 ff ff ff ff	call -1
    8086:	15 06 04 00 00 00 00 00	jeq r6, 0, +4 <custom_panic+0x4860>
    8087:	bf 71 00 00 00 00 00 00	mov64 r1, r7
    8088:	bf 62 00 00 00 00 00 00	mov64 r2, r6
    8089:	b7 03 00 00 01 00 00 00	mov64 r3, 1
    8090:	85 10 00 00 d2 f6 ff ff	call -2350
    8091:	b7 01 00 00 00 00 00 00	mov64 r1, 0
    8092:	7b 1a 70 ff 00 00 00 00	stxdw [r10 - 144], r1
    8093:	18 01 00 00 a8 7d 02 00 00 00 00 00 00 00 00 00	lddw r1, 163240
    8095:	7b 1a 50 ff 00 00 00 00	stxdw [r10 - 176], r1
    8096:	7b 9a 58 ff 00 00 00 00	stxdw [r10 - 168], r9
    8097:	7b 9a 68 ff 00 00 00 00	stxdw [r10 - 152], r9
    8098:	bf a1 00 00 00 00 00 00	mov64 r1, r10
    8099:	07 01 00 00 d0 ff ff ff	add64 r1, -48
    8100:	7b 1a 60 ff 00 00 00 00	stxdw [r10 - 160], r1
    8101:	7b 8a d8 ff 00 00 00 00	stxdw [r10 - 40], r8
    8102:	bf a1 00 00 00 00 00 00	mov64 r1, r10
    8103:	07 01 00 00 f8 ff ff ff	add64 r1, -8
    8104:	7b 1a d0 ff 00 00 00 00	stxdw [r10 - 48], r1
    8105:	bf a1 00 00 00 00 00 00	mov64 r1, r10
    8106:	07 01 00 00 a0 ff ff ff	add64 r1, -96
    8107:	bf a2 00 00 00 00 00 00	mov64 r2, r10
    8108:	07 02 00 00 50 ff ff ff	add64 r2, -176
    8109:	85 10 00 00 0a 17 00 00	call 5898
    8110:	79 a6 a8 ff 00 00 00 00	ldxdw r6, [r10 - 88]
    8111:	79 a7 a0 ff 00 00 00 00	ldxdw r7, [r10 - 96]
    8112:	79 a2 b0 ff 00 00 00 00	ldxdw r2, [r10 - 80]
    8113:	bf 71 00 00 00 00 00 00	mov64 r1, r7
    8114:	85 10 00 00 ff ff ff ff	call -1
    8115:	15 06 04 00 00 00 00 00	jeq r6, 0, +4 <custom_panic+0x4948>
    8116:	bf 71 00 00 00 00 00 00	mov64 r1, r7
    8117:	bf 62 00 00 00 00 00 00	mov64 r2, r6
    8118:	b7 03 00 00 01 00 00 00	mov64 r3, 1
    8119:	85 10 00 00 b5 f6 ff ff	call -2379
    8120:	95 00 00 00 00 00 00 00	exit
    8121:	bf 16 00 00 00 00 00 00	mov64 r6, r1
    8122:	79 61 00 00 00 00 00 00	ldxdw r1, [r6 + 0]
    8123:	15 01 3e 00 00 00 00 00	jeq r1, 0, +62 <custom_panic+0x4b58>
    8124:	15 01 6f 00 01 00 00 00	jeq r1, 1, +111 <custom_panic+0x4ce8>
    8125:	b7 01 00 00 00 00 00 00	mov64 r1, 0
    8126:	7b 1a e0 ff 00 00 00 00	stxdw [r10 - 32], r1
    8127:	b7 01 00 00 04 00 00 00	mov64 r1, 4
    8128:	7b 1a c8 ff 00 00 00 00	stxdw [r10 - 56], r1
    8129:	18 01 00 00 b8 7d 02 00 00 00 00 00 00 00 00 00	lddw r1, 163256
    8131:	7b 1a c0 ff 00 00 00 00	stxdw [r10 - 64], r1
    8132:	b7 01 00 00 03 00 00 00	mov64 r1, 3
    8133:	7b 1a d8 ff 00 00 00 00	stxdw [r10 - 40], r1
    8134:	bf a1 00 00 00 00 00 00	mov64 r1, r10
    8135:	07 01 00 00 58 ff ff ff	add64 r1, -168
    8136:	7b 1a d0 ff 00 00 00 00	stxdw [r10 - 48], r1
    8137:	bf 61 00 00 00 00 00 00	mov64 r1, r6
    8138:	07 01 00 00 80 00 00 00	add64 r1, 128
    8139:	7b 1a 78 ff 00 00 00 00	stxdw [r10 - 136], r1
    8140:	18 01 00 00 00 34 02 00 00 00 00 00 00 00 00 00	lddw r1, 144384
    8142:	7b 1a 70 ff 00 00 00 00	stxdw [r10 - 144], r1
    8143:	bf 61 00 00 00 00 00 00	mov64 r1, r6
    8144:	07 01 00 00 98 00 00 00	add64 r1, 152
    8145:	7b 1a 68 ff 00 00 00 00	stxdw [r10 - 152], r1
    8146:	18 01 00 00 a8 e7 00 00 00 00 00 00 00 00 00 00	lddw r1, 59304
    8148:	7b 1a 80 ff 00 00 00 00	stxdw [r10 - 128], r1
    8149:	7b 1a 60 ff 00 00 00 00	stxdw [r10 - 160], r1
    8150:	bf 61 00 00 00 00 00 00	mov64 r1, r6
    8151:	07 01 00 00 68 00 00 00	add64 r1, 104
    8152:	7b 1a 58 ff 00 00 00 00	stxdw [r10 - 168], r1
    8153:	bf a1 00 00 00 00 00 00	mov64 r1, r10
    8154:	07 01 00 00 a8 ff ff ff	add64 r1, -88
    8155:	bf a2 00 00 00 00 00 00	mov64 r2, r10
    8156:	07 02 00 00 c0 ff ff ff	add64 r2, -64
    8157:	85 10 00 00 da 16 00 00	call 5850
    8158:	79 a7 b0 ff 00 00 00 00	ldxdw r7, [r10 - 80]
    8159:	79 a8 a8 ff 00 00 00 00	ldxdw r8, [r10 - 88]
    8160:	79 a2 b8 ff 00 00 00 00	ldxdw r2, [r10 - 72]
    8161:	bf 81 00 00 00 00 00 00	mov64 r1, r8
    8162:	85 10 00 00 ff ff ff ff	call -1
    8163:	15 07 04 00 00 00 00 00	jeq r7, 0, +4 <custom_panic+0x4ac8>
    8164:	bf 81 00 00 00 00 00 00	mov64 r1, r8
    8165:	bf 72 00 00 00 00 00 00	mov64 r2, r7
    8166:	b7 03 00 00 01 00 00 00	mov64 r3, 1
    8167:	85 10 00 00 85 f6 ff ff	call -2427
    8168:	71 61 20 00 00 00 00 00	ldxb r1, [r6 + 32]
    8169:	15 01 73 00 00 00 00 00	jeq r1, 0, +115 <custom_panic+0x4e70>
    8170:	15 01 b4 00 02 00 00 00	jeq r1, 2, +180 <custom_panic+0x5080>
    8171:	18 01 00 00 28 57 02 00 00 00 00 00 00 00 00 00	lddw r1, 153384
    8173:	b7 02 00 00 05 00 00 00	mov64 r2, 5
    8174:	85 10 00 00 ff ff ff ff	call -1
    8175:	bf 61 00 00 00 00 00 00	mov64 r1, r6
    8176:	07 01 00 00 21 00 00 00	add64 r1, 33
    8177:	85 10 00 00 0d 10 00 00	call 4109
    8178:	18 01 00 00 2d 57 02 00 00 00 00 00 00 00 00 00	lddw r1, 153389
    8180:	b7 02 00 00 06 00 00 00	mov64 r2, 6
    8181:	85 10 00 00 ff ff ff ff	call -1
    8182:	07 06 00 00 41 00 00 00	add64 r6, 65
    8183:	bf 61 00 00 00 00 00 00	mov64 r1, r6
    8184:	85 10 00 00 06 10 00 00	call 4102
    8185:	05 00 a5 00 00 00 00 00	ja +165 <custom_panic+0x5080>
    8186:	b7 01 00 00 00 00 00 00	mov64 r1, 0
    8187:	7b 1a e0 ff 00 00 00 00	stxdw [r10 - 32], r1
    8188:	b7 01 00 00 06 00 00 00	mov64 r1, 6
    8189:	7b 1a c8 ff 00 00 00 00	stxdw [r10 - 56], r1
    8190:	18 01 00 00 f8 7d 02 00 00 00 00 00 00 00 00 00	lddw r1, 163320
    8192:	7b 1a c0 ff 00 00 00 00	stxdw [r10 - 64], r1
    8193:	b7 01 00 00 05 00 00 00	mov64 r1, 5
    8194:	7b 1a d8 ff 00 00 00 00	stxdw [r10 - 40], r1
    8195:	bf a1 00 00 00 00 00 00	mov64 r1, r10
    8196:	07 01 00 00 58 ff ff ff	add64 r1, -168
    8197:	7b 1a d0 ff 00 00 00 00	stxdw [r10 - 48], r1
    8198:	bf 61 00 00 00 00 00 00	mov64 r1, r6
    8199:	07 01 00 00 80 00 00 00	add64 r1, 128
    8200:	7b 1a 98 ff 00 00 00 00	stxdw [r10 - 104], r1
    8201:	bf 61 00 00 00 00 00 00	mov64 r1, r6
    8202:	07 01 00 00 98 00 00 00	add64 r1, 152
    8203:	7b 1a 88 ff 00 00 00 00	stxdw [r10 - 120], r1
    8204:	18 01 00 00 a8 e7 00 00 00 00 00 00 00 00 00 00	lddw r1, 59304
    8206:	7b 1a a0 ff 00 00 00 00	stxdw [r10 - 96], r1
    8207:	7b 1a 80 ff 00 00 00 00	stxdw [r10 - 128], r1
    8208:	bf 61 00 00 00 00 00 00	mov64 r1, r6
    8209:	07 01 00 00 68 00 00 00	add64 r1, 104
    8210:	7b 1a 78 ff 00 00 00 00	stxdw [r10 - 136], r1
    8211:	18 01 00 00 00 34 02 00 00 00 00 00 00 00 00 00	lddw r1, 144384
    8213:	7b 1a 90 ff 00 00 00 00	stxdw [r10 - 112], r1
    8214:	7b 1a 70 ff 00 00 00 00	stxdw [r10 - 144], r1
    8215:	bf 61 00 00 00 00 00 00	mov64 r1, r6
    8216:	07 01 00 00 18 00 00 00	add64 r1, 24
    8217:	7b 1a 68 ff 00 00 00 00	stxdw [r10 - 152], r1
    8218:	18 01 00 00 38 da 00 00 00 00 00 00 00 00 00 00	lddw r1, 55864
    8220:	7b 1a 60 ff 00 00 00 00	stxdw [r10 - 160], r1
    8221:	bf 61 00 00 00 00 00 00	mov64 r1, r6
    8222:	07 01 00 00 08 00 00 00	add64 r1, 8
    8223:	7b 1a 58 ff 00 00 00 00	stxdw [r10 - 168], r1
    8224:	bf a1 00 00 00 00 00 00	mov64 r1, r10
    8225:	07 01 00 00 a8 ff ff ff	add64 r1, -88
    8226:	bf a2 00 00 00 00 00 00	mov64 r2, r10
    8227:	07 02 00 00 c0 ff ff ff	add64 r2, -64
    8228:	85 10 00 00 93 16 00 00	call 5779
    8229:	79 a7 b0 ff 00 00 00 00	ldxdw r7, [r10 - 80]
    8230:	79 a8 a8 ff 00 00 00 00	ldxdw r8, [r10 - 88]
    8231:	79 a2 b8 ff 00 00 00 00	ldxdw r2, [r10 - 72]
    8232:	bf 81 00 00 00 00 00 00	mov64 r1, r8
    8233:	85 10 00 00 ff ff ff ff	call -1
    8234:	15 07 bd ff 00 00 00 00	jeq r7, 0, -67 <custom_panic+0x4ac8>
    8235:	05 00 b8 ff 00 00 00 00	ja -72 <custom_panic+0x4aa8>
    8236:	bf 61 00 00 00 00 00 00	mov64 r1, r6
    8237:	07 01 00 00 08 00 00 00	add64 r1, 8
    8238:	7b 1a f8 ff 00 00 00 00	stxdw [r10 - 8], r1
    8239:	b7 01 00 00 00 00 00 00	mov64 r1, 0
    8240:	7b 1a e0 ff 00 00 00 00	stxdw [r10 - 32], r1
    8241:	b7 01 00 00 05 00 00 00	mov64 r1, 5
    8242:	7b 1a c8 ff 00 00 00 00	stxdw [r10 - 56], r1
    8243:	18 01 00 00 58 7e 02 00 00 00 00 00 00 00 00 00	lddw r1, 163416
    8245:	7b 1a c0 ff 00 00 00 00	stxdw [r10 - 64], r1
    8246:	b7 01 00 00 04 00 00 00	mov64 r1, 4
    8247:	7b 1a d8 ff 00 00 00 00	stxdw [r10 - 40], r1
    8248:	bf a1 00 00 00 00 00 00	mov64 r1, r10
    8249:	07 01 00 00 58 ff ff ff	add64 r1, -168
    8250:	7b 1a d0 ff 00 00 00 00	stxdw [r10 - 48], r1
    8251:	bf 61 00 00 00 00 00 00	mov64 r1, r6
    8252:	07 01 00 00 80 00 00 00	add64 r1, 128
    8253:	7b 1a 88 ff 00 00 00 00	stxdw [r10 - 120], r1
    8254:	18 01 00 00 00 34 02 00 00 00 00 00 00 00 00 00	lddw r1, 144384
    8256:	7b 1a 80 ff 00 00 00 00	stxdw [r10 - 128], r1
    8257:	bf 61 00 00 00 00 00 00	mov64 r1, r6
    8258:	07 01 00 00 98 00 00 00	add64 r1, 152
    8259:	7b 1a 78 ff 00 00 00 00	stxdw [r10 - 136], r1
    8260:	18 01 00 00 a8 e7 00 00 00 00 00 00 00 00 00 00	lddw r1, 59304
    8262:	7b 1a 90 ff 00 00 00 00	stxdw [r10 - 112], r1
    8263:	7b 1a 70 ff 00 00 00 00	stxdw [r10 - 144], r1
    8264:	bf 61 00 00 00 00 00 00	mov64 r1, r6
    8265:	07 01 00 00 68 00 00 00	add64 r1, 104
    8266:	7b 1a 68 ff 00 00 00 00	stxdw [r10 - 152], r1
    8267:	18 01 00 00 08 da 00 00 00 00 00 00 00 00 00 00	lddw r1, 55816
    8269:	7b 1a 60 ff 00 00 00 00	stxdw [r10 - 160], r1
    8270:	bf a1 00 00 00 00 00 00	mov64 r1, r10
    8271:	07 01 00 00 f8 ff ff ff	add64 r1, -8
    8272:	7b 1a 58 ff 00 00 00 00	stxdw [r10 - 168], r1
    8273:	bf a1 00 00 00 00 00 00	mov64 r1, r10
    8274:	07 01 00 00 a8 ff ff ff	add64 r1, -88
    8275:	bf a2 00 00 00 00 00 00	mov64 r2, r10
    8276:	07 02 00 00 c0 ff ff ff	add64 r2, -64
    8277:	85 10 00 00 62 16 00 00	call 5730
    8278:	79 a7 b0 ff 00 00 00 00	ldxdw r7, [r10 - 80]
    8279:	79 a8 a8 ff 00 00 00 00	ldxdw r8, [r10 - 88]
    8280:	79 a2 b8 ff 00 00 00 00	ldxdw r2, [r10 - 72]
    8281:	bf 81 00 00 00 00 00 00	mov64 r1, r8
    8282:	85 10 00 00 ff ff ff ff	call -1
    8283:	15 07 8c ff 00 00 00 00	jeq r7, 0, -116 <custom_panic+0x4ac8>
    8284:	05 00 87 ff 00 00 00 00	ja -121 <custom_panic+0x4aa8>
    8285:	bf 61 00 00 00 00 00 00	mov64 r1, r6
    8286:	07 01 00 00 28 00 00 00	add64 r1, 40
    8287:	7b 1a f0 ff 00 00 00 00	stxdw [r10 - 16], r1
    8288:	07 06 00 00 40 00 00 00	add64 r6, 64
    8289:	7b 6a f8 ff 00 00 00 00	stxdw [r10 - 8], r6
    8290:	b7 01 00 00 00 00 00 00	mov64 r1, 0
    8291:	7b 1a 78 ff 00 00 00 00	stxdw [r10 - 136], r1
    8292:	18 01 00 00 98 7d 02 00 00 00 00 00 00 00 00 00	lddw r1, 163224
    8294:	7b 1a 58 ff 00 00 00 00	stxdw [r10 - 168], r1
    8295:	b7 09 00 00 01 00 00 00	mov64 r9, 1
    8296:	7b 9a 60 ff 00 00 00 00	stxdw [r10 - 160], r9
    8297:	7b 9a 70 ff 00 00 00 00	stxdw [r10 - 144], r9
    8298:	bf a1 00 00 00 00 00 00	mov64 r1, r10
    8299:	07 01 00 00 a8 ff ff ff	add64 r1, -88
    8300:	7b 1a 68 ff 00 00 00 00	stxdw [r10 - 152], r1
    8301:	18 08 00 00 08 da 00 00 00 00 00 00 00 00 00 00	lddw r8, 55816
    8303:	7b 8a b0 ff 00 00 00 00	stxdw [r10 - 80], r8
    8304:	bf a1 00 00 00 00 00 00	mov64 r1, r10
    8305:	07 01 00 00 f0 ff ff ff	add64 r1, -16
    8306:	7b 1a a8 ff 00 00 00 00	stxdw [r10 - 88], r1
    8307:	bf a1 00 00 00 00 00 00	mov64 r1, r10
    8308:	07 01 00 00 c0 ff ff ff	add64 r1, -64
    8309:	bf a2 00 00 00 00 00 00	mov64 r2, r10
    8310:	07 02 00 00 58 ff ff ff	add64 r2, -168
    8311:	85 10 00 00 40 16 00 00	call 5696
    8312:	79 a6 c8 ff 00 00 00 00	ldxdw r6, [r10 - 56]
    8313:	79 a7 c0 ff 00 00 00 00	ldxdw r7, [r10 - 64]
    8314:	79 a2 d0 ff 00 00 00 00	ldxdw r2, [r10 - 48]
    8315:	bf 71 00 00 00 00 00 00	mov64 r1, r7
    8316:	85 10 00 00 ff ff ff ff	call -1
    8317:	15 06 04 00 00 00 00 00	jeq r6, 0, +4 <custom_panic+0x4f98>
    8318:	bf 71 00 00 00 00 00 00	mov64 r1, r7
    8319:	bf 62 00 00 00 00 00 00	mov64 r2, r6
    8320:	b7 03 00 00 01 00 00 00	mov64 r3, 1
    8321:	85 10 00 00 eb f5 ff ff	call -2581
    8322:	b7 01 00 00 00 00 00 00	mov64 r1, 0
    8323:	7b 1a 78 ff 00 00 00 00	stxdw [r10 - 136], r1
    8324:	18 01 00 00 a8 7d 02 00 00 00 00 00 00 00 00 00	lddw r1, 163240
    8326:	7b 1a 58 ff 00 00 00 00	stxdw [r10 - 168], r1
    8327:	7b 9a 60 ff 00 00 00 00	stxdw [r10 - 160], r9
    8328:	7b 9a 70 ff 00 00 00 00	stxdw [r10 - 144], r9
    8329:	bf a1 00 00 00 00 00 00	mov64 r1, r10
    8330:	07 01 00 00 a8 ff ff ff	add64 r1, -88
    8331:	7b 1a 68 ff 00 00 00 00	stxdw [r10 - 152], r1
    8332:	7b 8a b0 ff 00 00 00 00	stxdw [r10 - 80], r8
    8333:	bf a1 00 00 00 00 00 00	mov64 r1, r10
    8334:	07 01 00 00 f8 ff ff ff	add64 r1, -8
    8335:	7b 1a a8 ff 00 00 00 00	stxdw [r10 - 88], r1
    8336:	bf a1 00 00 00 00 00 00	mov64 r1, r10
    8337:	07 01 00 00 c0 ff ff ff	add64 r1, -64
    8338:	bf a2 00 00 00 00 00 00	mov64 r2, r10
    8339:	07 02 00 00 58 ff ff ff	add64 r2, -168
    8340:	85 10 00 00 23 16 00 00	call 5667
    8341:	79 a6 c8 ff 00 00 00 00	ldxdw r6, [r10 - 56]
    8342:	79 a7 c0 ff 00 00 00 00	ldxdw r7, [r10 - 64]
    8343:	79 a2 d0 ff 00 00 00 00	ldxdw r2, [r10 - 48]
    8344:	bf 71 00 00 00 00 00 00	mov64 r1, r7
    8345:	85 10 00 00 ff ff ff ff	call -1
    8346:	15 06 04 00 00 00 00 00	jeq r6, 0, +4 <custom_panic+0x5080>
    8347:	bf 71 00 00 00 00 00 00	mov64 r1, r7
    8348:	bf 62 00 00 00 00 00 00	mov64 r2, r6
    8349:	b7 03 00 00 01 00 00 00	mov64 r3, 1
    8350:	85 10 00 00 ce f5 ff ff	call -2610
    8351:	95 00 00 00 00 00 00 00	exit
    8352:	bf 26 00 00 00 00 00 00	mov64 r6, r2
    8353:	bf 19 00 00 00 00 00 00	mov64 r9, r1
    8354:	79 67 00 00 00 00 00 00	ldxdw r7, [r6 + 0]
    8355:	55 07 33 00 03 00 00 00	jne r7, 3, +51 <custom_panic+0x5240>
    8356:	79 61 18 00 00 00 00 00	ldxdw r1, [r6 + 24]
    8357:	7b 1a d0 ff 00 00 00 00	stxdw [r10 - 48], r1
    8358:	79 61 10 00 00 00 00 00	ldxdw r1, [r6 + 16]
    8359:	7b 1a c8 ff 00 00 00 00	stxdw [r10 - 56], r1
    8360:	79 67 08 00 00 00 00 00	ldxdw r7, [r6 + 8]
    8361:	bf 62 00 00 00 00 00 00	mov64 r2, r6
    8362:	07 02 00 00 20 00 00 00	add64 r2, 32
    8363:	bf a1 00 00 00 00 00 00	mov64 r1, r10
    8364:	07 01 00 00 d8 ff ff ff	add64 r1, -40
    8365:	b7 03 00 00 28 00 00 00	mov64 r3, 40
    8366:	85 10 00 00 eb 26 00 00	call 9963
    8367:	71 68 48 00 00 00 00 00	ldxb r8, [r6 + 72]
    8368:	79 63 50 00 00 00 00 00	ldxdw r3, [r6 + 80]
    8369:	79 64 58 00 00 00 00 00	ldxdw r4, [r6 + 88]
    8370:	79 62 68 00 00 00 00 00	ldxdw r2, [r6 + 104]
    8371:	79 66 70 00 00 00 00 00	ldxdw r6, [r6 + 112]
    8372:	79 a1 e0 ff 00 00 00 00	ldxdw r1, [r10 - 32]
    8373:	7b 19 00 00 00 00 00 00	stxdw [r9 + 0], r1
    8374:	79 a1 e8 ff 00 00 00 00	ldxdw r1, [r10 - 24]
    8375:	7b 19 08 00 00 00 00 00	stxdw [r9 + 8], r1
    8376:	79 a1 f0 ff 00 00 00 00	ldxdw r1, [r10 - 16]
    8377:	7b 19 10 00 00 00 00 00	stxdw [r9 + 16], r1
    8378:	79 a1 f8 ff 00 00 00 00	ldxdw r1, [r10 - 8]
    8379:	7b 19 18 00 00 00 00 00	stxdw [r9 + 24], r1
    8380:	47 07 00 00 02 00 00 00	or64 r7, 2
    8381:	15 07 0c 00 02 00 00 00	jeq r7, 2, +12 <custom_panic+0x51d8>
    8382:	79 a1 d0 ff 00 00 00 00	ldxdw r1, [r10 - 48]
    8383:	15 01 0a 00 00 00 00 00	jeq r1, 0, +10 <custom_panic+0x51d8>
    8384:	79 a1 c8 ff 00 00 00 00	ldxdw r1, [r10 - 56]
    8385:	7b 2a c8 ff 00 00 00 00	stxdw [r10 - 56], r2
    8386:	79 a2 d0 ff 00 00 00 00	ldxdw r2, [r10 - 48]
    8387:	bf 39 00 00 00 00 00 00	mov64 r9, r3
    8388:	b7 03 00 00 01 00 00 00	mov64 r3, 1
    8389:	bf 47 00 00 00 00 00 00	mov64 r7, r4
    8390:	85 10 00 00 a6 f5 ff ff	call -2650
    8391:	bf 74 00 00 00 00 00 00	mov64 r4, r7
    8392:	bf 93 00 00 00 00 00 00	mov64 r3, r9
    8393:	79 a2 c8 ff 00 00 00 00	ldxdw r2, [r10 - 56]
    8394:	bf 81 00 00 00 00 00 00	mov64 r1, r8
    8395:	55 01 2d 00 00 00 00 00	jne r1, 0, +45 <custom_panic+0x5350>
    8396:	15 04 06 00 00 00 00 00	jeq r4, 0, +6 <custom_panic+0x5220>
    8397:	bf 31 00 00 00 00 00 00	mov64 r1, r3
    8398:	bf 27 00 00 00 00 00 00	mov64 r7, r2
    8399:	bf 42 00 00 00 00 00 00	mov64 r2, r4
    8400:	b7 03 00 00 01 00 00 00	mov64 r3, 1
    8401:	85 10 00 00 9b f5 ff ff	call -2661
    8402:	bf 72 00 00 00 00 00 00	mov64 r2, r7
    8403:	15 06 25 00 00 00 00 00	jeq r6, 0, +37 <custom_panic+0x5350>
    8404:	bf 21 00 00 00 00 00 00	mov64 r1, r2
    8405:	bf 62 00 00 00 00 00 00	mov64 r2, r6
    8406:	05 00 20 00 00 00 00 00	ja +32 <custom_panic+0x5340>
    8407:	61 61 98 00 00 00 00 00	ldxw r1, [r6 + 152]
    8408:	b7 02 00 00 00 00 00 00	mov64 r2, 0
    8409:	63 29 00 00 00 00 00 00	stxw [r9 + 0], r2
    8410:	63 19 04 00 00 00 00 00	stxw [r9 + 4], r1
    8411:	79 62 70 00 00 00 00 00	ldxdw r2, [r6 + 112]
    8412:	15 02 03 00 00 00 00 00	jeq r2, 0, +3 <custom_panic+0x5288>
    8413:	79 61 68 00 00 00 00 00	ldxdw r1, [r6 + 104]
    8414:	b7 03 00 00 01 00 00 00	mov64 r3, 1
    8415:	85 10 00 00 8d f5 ff ff	call -2675
    8416:	79 62 88 00 00 00 00 00	ldxdw r2, [r6 + 136]
    8417:	15 02 03 00 00 00 00 00	jeq r2, 0, +3 <custom_panic+0x52b0>
    8418:	79 61 80 00 00 00 00 00	ldxdw r1, [r6 + 128]
    8419:	b7 03 00 00 01 00 00 00	mov64 r3, 1
    8420:	85 10 00 00 88 f5 ff ff	call -2680
    8421:	15 07 06 00 02 00 00 00	jeq r7, 2, +6 <custom_panic+0x52e8>
    8422:	15 07 05 00 00 00 00 00	jeq r7, 0, +5 <custom_panic+0x52e8>
    8423:	79 62 10 00 00 00 00 00	ldxdw r2, [r6 + 16]
    8424:	15 02 03 00 00 00 00 00	jeq r2, 0, +3 <custom_panic+0x52e8>
    8425:	79 61 08 00 00 00 00 00	ldxdw r1, [r6 + 8]
    8426:	b7 03 00 00 01 00 00 00	mov64 r3, 1
    8427:	85 10 00 00 81 f5 ff ff	call -2687
    8428:	71 61 20 00 00 00 00 00	ldxb r1, [r6 + 32]
    8429:	15 01 0b 00 02 00 00 00	jeq r1, 2, +11 <custom_panic+0x5350>
    8430:	55 01 0a 00 00 00 00 00	jne r1, 0, +10 <custom_panic+0x5350>
    8431:	79 62 30 00 00 00 00 00	ldxdw r2, [r6 + 48]
    8432:	15 02 03 00 00 00 00 00	jeq r2, 0, +3 <custom_panic+0x5328>
    8433:	79 61 28 00 00 00 00 00	ldxdw r1, [r6 + 40]
    8434:	b7 03 00 00 01 00 00 00	mov64 r3, 1
    8435:	85 10 00 00 79 f5 ff ff	call -2695
    8436:	79 62 48 00 00 00 00 00	ldxdw r2, [r6 + 72]
    8437:	15 02 03 00 00 00 00 00	jeq r2, 0, +3 <custom_panic+0x5350>
    8438:	79 61 40 00 00 00 00 00	ldxdw r1, [r6 + 64]
    8439:	b7 03 00 00 01 00 00 00	mov64 r3, 1
    8440:	85 10 00 00 74 f5 ff ff	call -2700
    8441:	95 00 00 00 00 00 00 00	exit
    8442:	b7 02 00 00 00 00 00 00	mov64 r2, 0
    8443:	7b 21 18 00 00 00 00 00	stxdw [r1 + 24], r2
    8444:	7b 21 10 00 00 00 00 00	stxdw [r1 + 16], r2
    8445:	7b 21 08 00 00 00 00 00	stxdw [r1 + 8], r2
    8446:	7b 21 00 00 00 00 00 00	stxdw [r1 + 0], r2
    8447:	95 00 00 00 00 00 00 00	exit
    8448:	bf 34 00 00 00 00 00 00	mov64 r4, r3
    8449:	bf 26 00 00 00 00 00 00	mov64 r6, r2
    8450:	bf 17 00 00 00 00 00 00	mov64 r7, r1
    8451:	79 63 58 00 00 00 00 00	ldxdw r3, [r6 + 88]
    8452:	79 62 28 00 00 00 00 00	ldxdw r2, [r6 + 40]
    8453:	bf a8 00 00 00 00 00 00	mov64 r8, r10
    8454:	07 08 00 00 f8 fe ff ff	add64 r8, -264
    8455:	bf 81 00 00 00 00 00 00	mov64 r1, r8
    8456:	85 10 00 00 36 0f 00 00	call 3894
    8457:	bf 62 00 00 00 00 00 00	mov64 r2, r6
    8458:	07 02 00 00 28 00 00 00	add64 r2, 40
    8459:	bf a9 00 00 00 00 00 00	mov64 r9, r10
    8460:	07 09 00 00 68 ff ff ff	add64 r9, -152
    8461:	bf 91 00 00 00 00 00 00	mov64 r1, r9
    8462:	b7 03 00 00 30 00 00 00	mov64 r3, 48
    8463:	85 10 00 00 8a 26 00 00	call 9866
    8464:	bf 62 00 00 00 00 00 00	mov64 r2, r6
    8465:	07 02 00 00 58 00 00 00	add64 r2, 88
    8466:	bf a1 00 00 00 00 00 00	mov64 r1, r10
    8467:	07 01 00 00 98 ff ff ff	add64 r1, -104
    8468:	b7 03 00 00 30 00 00 00	mov64 r3, 48
    8469:	85 10 00 00 84 26 00 00	call 9860
    8470:	79 61 08 00 00 00 00 00	ldxdw r1, [r6 + 8]
    8471:	79 62 00 00 00 00 00 00	ldxdw r2, [r6 + 0]
    8472:	7b 2a 00 f0 00 00 00 00	stxdw [r10 - 4096], r2
    8473:	7b 1a 08 f0 00 00 00 00	stxdw [r10 - 4088], r1
    8474:	bf a1 00 00 00 00 00 00	mov64 r1, r10
    8475:	07 01 00 00 48 ff ff ff	add64 r1, -184
    8476:	bf a5 00 00 00 00 00 00	mov64 r5, r10
    8477:	bf 82 00 00 00 00 00 00	mov64 r2, r8
    8478:	bf 93 00 00 00 00 00 00	mov64 r3, r9
    8479:	b7 04 00 00 02 00 00 00	mov64 r4, 2
    8480:	85 10 00 00 e6 0c 00 00	call 3302
    8481:	b7 01 00 00 04 00 00 00	mov64 r1, 4
    8482:	61 a2 48 ff 00 00 00 00	ldxw r2, [r10 - 184]
    8483:	15 02 12 00 16 00 00 00	jeq r2, 22, +18 <custom_panic+0x5538>
    8484:	79 a1 60 ff 00 00 00 00	ldxdw r1, [r10 - 160]
    8485:	7b 1a f8 ff 00 00 00 00	stxdw [r10 - 8], r1
    8486:	79 a1 58 ff 00 00 00 00	ldxdw r1, [r10 - 168]
    8487:	7b 1a f0 ff 00 00 00 00	stxdw [r10 - 16], r1
    8488:	79 a1 50 ff 00 00 00 00	ldxdw r1, [r10 - 176]
    8489:	7b 1a e8 ff 00 00 00 00	stxdw [r10 - 24], r1
    8490:	79 a1 48 ff 00 00 00 00	ldxdw r1, [r10 - 184]
    8491:	7b 1a e0 ff 00 00 00 00	stxdw [r10 - 32], r1
    8492:	bf 71 00 00 00 00 00 00	mov64 r1, r7
    8493:	07 01 00 00 10 00 00 00	add64 r1, 16
    8494:	bf a2 00 00 00 00 00 00	mov64 r2, r10
    8495:	07 02 00 00 c8 ff ff ff	add64 r2, -56
    8496:	b7 03 00 00 38 00 00 00	mov64 r3, 56
    8497:	85 10 00 00 68 26 00 00	call 9832
    8498:	b7 01 00 00 02 00 00 00	mov64 r1, 2
    8499:	73 17 48 00 00 00 00 00	stxb [r7 + 72], r1
    8500:	7b 17 08 00 00 00 00 00	stxdw [r7 + 8], r1
    8501:	b7 01 00 00 03 00 00 00	mov64 r1, 3
    8502:	7b 17 00 00 00 00 00 00	stxdw [r7 + 0], r1
    8503:	79 a2 00 ff 00 00 00 00	ldxdw r2, [r10 - 256]
    8504:	15 02 04 00 00 00 00 00	jeq r2, 0, +4 <custom_panic+0x5570>
    8505:	27 02 00 00 22 00 00 00	mul64 r2, 34
    8506:	79 a1 f8 fe 00 00 00 00	ldxdw r1, [r10 - 264]
    8507:	b7 03 00 00 01 00 00 00	mov64 r3, 1
    8508:	85 10 00 00 30 f5 ff ff	call -2768
    8509:	79 a2 18 ff 00 00 00 00	ldxdw r2, [r10 - 232]
    8510:	15 02 03 00 00 00 00 00	jeq r2, 0, +3 <custom_panic+0x5598>
    8511:	79 a1 10 ff 00 00 00 00	ldxdw r1, [r10 - 240]
    8512:	b7 03 00 00 01 00 00 00	mov64 r3, 1
    8513:	85 10 00 00 2b f5 ff ff	call -2773
    8514:	bf a1 00 00 00 00 00 00	mov64 r1, r10
    8515:	07 01 00 00 68 ff ff ff	add64 r1, -152
    8516:	85 10 00 00 1c fa ff ff	call -1508
    8517:	bf 61 00 00 00 00 00 00	mov64 r1, r6
    8518:	07 01 00 00 10 00 00 00	add64 r1, 16
    8519:	85 10 00 00 4d fa ff ff	call -1459
    8520:	79 67 98 00 00 00 00 00	ldxdw r7, [r6 + 152]
    8521:	79 61 90 00 00 00 00 00	ldxdw r1, [r6 + 144]
    8522:	79 12 00 00 00 00 00 00	ldxdw r2, [r1 + 0]
    8523:	07 02 00 00 ff ff ff ff	add64 r2, -1
    8524:	7b 21 00 00 00 00 00 00	stxdw [r1 + 0], r2
    8525:	55 02 07 00 00 00 00 00	jne r2, 0, +7 <custom_panic+0x5630>
    8526:	79 12 08 00 00 00 00 00	ldxdw r2, [r1 + 8]
    8527:	07 02 00 00 ff ff ff ff	add64 r2, -1
    8528:	7b 21 08 00 00 00 00 00	stxdw [r1 + 8], r2
    8529:	55 02 03 00 00 00 00 00	jne r2, 0, +3 <custom_panic+0x5630>
    8530:	b7 02 00 00 20 00 00 00	mov64 r2, 32
    8531:	b7 03 00 00 08 00 00 00	mov64 r3, 8
    8532:	85 10 00 00 18 f5 ff ff	call -2792
    8533:	79 71 00 00 00 00 00 00	ldxdw r1, [r7 + 0]
    8534:	07 01 00 00 ff ff ff ff	add64 r1, -1
    8535:	7b 17 00 00 00 00 00 00	stxdw [r7 + 0], r1
    8536:	55 01 08 00 00 00 00 00	jne r1, 0, +8 <custom_panic+0x5690>
    8537:	79 71 08 00 00 00 00 00	ldxdw r1, [r7 + 8]
    8538:	07 01 00 00 ff ff ff ff	add64 r1, -1
    8539:	7b 17 08 00 00 00 00 00	stxdw [r7 + 8], r1
    8540:	55 01 04 00 00 00 00 00	jne r1, 0, +4 <custom_panic+0x5690>
    8541:	bf 71 00 00 00 00 00 00	mov64 r1, r7
    8542:	b7 02 00 00 28 00 00 00	mov64 r2, 40
    8543:	b7 03 00 00 08 00 00 00	mov64 r3, 8
    8544:	85 10 00 00 0c f5 ff ff	call -2804
    8545:	95 00 00 00 00 00 00 00	exit
    8546:	bf 16 00 00 00 00 00 00	mov64 r6, r1
    8547:	61 21 00 00 00 00 00 00	ldxw r1, [r2 + 0]
    8548:	65 01 11 00 e5 07 00 00	jsgt r1, 2021, +17 <custom_panic+0x5738>
    8549:	65 01 22 00 d6 07 00 00	jsgt r1, 2006, +34 <custom_panic+0x57c8>
    8550:	65 01 3d 00 db 05 00 00	jsgt r1, 1499, +61 <custom_panic+0x58a8>
    8551:	65 01 7a 00 66 00 00 00	jsgt r1, 102, +122 <custom_panic+0x5a98>
    8552:	15 01 95 01 64 00 00 00	jeq r1, 100, +405 <custom_panic+0x6378>
    8553:	15 01 a0 01 65 00 00 00	jeq r1, 101, +416 <custom_panic+0x63d8>
    8554:	bf a1 00 00 00 00 00 00	mov64 r1, r10
    8555:	07 01 00 00 60 fc ff ff	add64 r1, -928
    8556:	b7 08 00 00 1c 00 00 00	mov64 r8, 28
    8557:	b7 02 00 00 1c 00 00 00	mov64 r2, 28
    8558:	85 10 00 00 12 fb ff ff	call -1262
    8559:	79 a9 68 fc 00 00 00 00	ldxdw r9, [r10 - 920]
    8560:	79 a7 60 fc 00 00 00 00	ldxdw r7, [r10 - 928]
    8561:	b7 01 00 00 6c 69 7a 65	mov64 r1, 1702521196
    8562:	63 17 18 00 00 00 00 00	stxw [r7 + 24], r1
    8563:	18 01 00 00 74 44 65 73 00 00 00 00 65 72 69 61	lddw r1, 7019267274286908532
    8565:	05 00 35 02 00 00 00 00	ja +565 <custom_panic+0x68e0>
    8566:	65 01 1f 00 bd 0b 00 00	jsgt r1, 3005, +31 <custom_panic+0x5838>
    8567:	65 01 39 00 c8 09 00 00	jsgt r1, 2504, +57 <custom_panic+0x5910>
    8568:	65 01 77 00 c4 09 00 00	jsgt r1, 2500, +119 <custom_panic+0x5b08>
    8569:	15 01 9f 01 e6 07 00 00	jeq r1, 2022, +415 <custom_panic+0x6450>
    8570:	15 01 ad 01 e7 07 00 00	jeq r1, 2023, +429 <custom_panic+0x64c8>
    8571:	bf a1 00 00 00 00 00 00	mov64 r1, r10
    8572:	07 01 00 00 40 fe ff ff	add64 r1, -448
    8573:	b7 08 00 00 0f 00 00 00	mov64 r8, 15
    8574:	b7 02 00 00 0f 00 00 00	mov64 r2, 15
    8575:	85 10 00 00 01 fb ff ff	call -1279
    8576:	79 a9 48 fe 00 00 00 00	ldxdw r9, [r10 - 440]
    8577:	79 a7 40 fe 00 00 00 00	ldxdw r7, [r10 - 448]
    8578:	18 01 00 00 56 69 6f 6c 00 00 00 00 61 74 65 64	lddw r1, 7234316338220460374
    8580:	7b 17 07 00 00 00 00 00	stxdw [r7 + 7], r1
    8581:	18 01 00 00 52 65 71 75 00 00 00 00 69 72 65 56	lddw r1, 6225507857177077074
    8583:	05 00 28 03 00 00 00 00	ja +808 <custom_panic+0x7108>
    8584:	65 01 37 00 dd 07 00 00	jsgt r1, 2013, +55 <custom_panic+0x5988>
    8585:	65 01 75 00 d9 07 00 00	jsgt r1, 2009, +117 <custom_panic+0x5b80>
    8586:	15 01 a9 01 d7 07 00 00	jeq r1, 2007, +425 <custom_panic+0x6528>
    8587:	15 01 b4 01 d8 07 00 00	jeq r1, 2008, +436 <custom_panic+0x6588>
    8588:	bf a1 00 00 00 00 00 00	mov64 r1, r10
    8589:	07 01 00 00 50 fd ff ff	add64 r1, -688
    8590:	b7 08 00 00 14 00 00 00	mov64 r8, 20
    8591:	b7 02 00 00 14 00 00 00	mov64 r2, 20
    8592:	85 10 00 00 f0 fa ff ff	call -1296
    8593:	79 a9 58 fd 00 00 00 00	ldxdw r9, [r10 - 680]
    8594:	79 a7 50 fd 00 00 00 00	ldxdw r7, [r10 - 688]
    8595:	b7 01 00 00 61 74 65 64	mov64 r1, 1684370529
    8596:	63 17 10 00 00 00 00 00	stxw [r7 + 16], r1
    8597:	05 00 35 02 00 00 00 00	ja +565 <custom_panic+0x69e0>
    8598:	65 01 38 00 c4 0b 00 00	jsgt r1, 3012, +56 <custom_panic+0x5a00>
    8599:	65 01 73 00 c0 0b 00 00	jsgt r1, 3008, +115 <custom_panic+0x5be0>
    8600:	15 01 b2 01 be 0b 00 00	jeq r1, 3006, +434 <custom_panic+0x65e0>
    8601:	15 01 bd 01 bf 0b 00 00	jeq r1, 3007, +445 <custom_panic+0x6640>
    8602:	bf a1 00 00 00 00 00 00	mov64 r1, r10
    8603:	07 01 00 00 30 ff ff ff	add64 r1, -208
    8604:	b7 08 00 00 10 00 00 00	mov64 r8, 16
    8605:	b7 02 00 00 10 00 00 00	mov64 r2, 16
    8606:	85 10 00 00 e2 fa ff ff	call -1310
    8607:	79 a9 38 ff 00 00 00 00	ldxdw r9, [r10 - 200]
    8608:	79 a7 30 ff 00 00 00 00	ldxdw r7, [r10 - 208]
    8609:	18 01 00 00 72 6f 67 72 00 00 00 00 61 6d 49 64	lddw r1, 7226427342391308146
    8611:	05 00 36 02 00 00 00 00	ja +566 <custom_panic+0x6a58>
    8612:	65 01 72 00 d2 07 00 00	jsgt r1, 2002, +114 <custom_panic+0x5c40>
    8613:	65 01 ac 00 d0 07 00 00	jsgt r1, 2000, +172 <custom_panic+0x5e18>
    8614:	15 01 c2 01 dc 05 00 00	jeq r1, 1500, +450 <custom_panic+0x66d0>
    8615:	bf a1 00 00 00 00 00 00	mov64 r1, r10
    8616:	07 01 00 00 c0 fc ff ff	add64 r1, -832
    8617:	b7 08 00 00 0d 00 00 00	mov64 r8, 13
    8618:	b7 02 00 00 0d 00 00 00	mov64 r2, 13
    8619:	85 10 00 00 d5 fa ff ff	call -1323
    8620:	79 a9 c8 fc 00 00 00 00	ldxdw r9, [r10 - 824]
    8621:	79 a7 c0 fc 00 00 00 00	ldxdw r7, [r10 - 832]
    8622:	18 01 00 00 72 61 69 6e 00 00 00 00 74 4d 75 74	lddw r1, 8391698643138732402
    8624:	05 00 36 02 00 00 00 00	ja +566 <custom_panic+0x6ac0>
    8625:	65 01 71 00 b9 0b 00 00	jsgt r1, 3001, +113 <custom_panic+0x5ca0>
    8626:	65 01 aa 00 b7 0b 00 00	jsgt r1, 2999, +170 <custom_panic+0x5e70>
    8627:	15 01 c4 01 c9 09 00 00	jeq r1, 2505, +452 <custom_panic+0x6748>
    8628:	bf a1 00 00 00 00 00 00	mov64 r1, r10
    8629:	07 01 00 00 a0 fe ff ff	add64 r1, -352
    8630:	b7 08 00 00 12 00 00 00	mov64 r8, 18
    8631:	b7 02 00 00 12 00 00 00	mov64 r2, 18
    8632:	85 10 00 00 c8 fa ff ff	call -1336
    8633:	79 a9 a8 fe 00 00 00 00	ldxdw r9, [r10 - 344]
    8634:	79 a7 a0 fe 00 00 00 00	ldxdw r7, [r10 - 352]
    8635:	b7 01 00 00 65 64 00 00	mov64 r1, 25701
    8636:	6b 17 10 00 00 00 00 00	stxh [r7 + 16], r1
    8637:	18 01 00 00 74 65 56 69 00 00 00 00 6f 6c 61 74	lddw r1, 8386103206905013620
    8639:	05 00 c3 01 00 00 00 00	ja +451 <custom_panic+0x67a0>
    8640:	65 01 71 00 e1 07 00 00	jsgt r1, 2017, +113 <custom_panic+0x5d18>
    8641:	65 01 a8 00 df 07 00 00	jsgt r1, 2015, +168 <custom_panic+0x5ed8>
    8642:	15 01 c4 01 de 07 00 00	jeq r1, 2014, +452 <custom_panic+0x67c0>
    8643:	bf a1 00 00 00 00 00 00	mov64 r1, r10
    8644:	07 01 00 00 b0 fd ff ff	add64 r1, -592
    8645:	b7 08 00 00 14 00 00 00	mov64 r8, 20
    8646:	b7 02 00 00 14 00 00 00	mov64 r2, 20
    8647:	85 10 00 00 b9 fa ff ff	call -1351
    8648:	79 a9 b8 fd 00 00 00 00	ldxdw r9, [r10 - 584]
    8649:	79 a7 b0 fd 00 00 00 00	ldxdw r7, [r10 - 592]
    8650:	b7 01 00 00 77 6e 65 72	mov64 r1, 1919250039
    8651:	63 17 10 00 00 00 00 00	stxw [r7 + 16], r1
    8652:	18 01 00 00 6e 74 54 6f 00 00 00 00 6b 65 6e 4f	lddw r1, 5723623688538190958
    8654:	05 00 de 02 00 00 00 00	ja +734 <custom_panic+0x70f0>
    8655:	65 01 6e 00 c8 0b 00 00	jsgt r1, 3016, +110 <custom_panic+0x5d78>
    8656:	65 01 aa 00 c6 0b 00 00	jsgt r1, 3014, +170 <custom_panic+0x5f60>
    8657:	15 01 c1 01 c5 0b 00 00	jeq r1, 3013, +449 <custom_panic+0x6820>
    8658:	bf a1 00 00 00 00 00 00	mov64 r1, r10
    8659:	07 01 00 00 90 ff ff ff	add64 r1, -112
    8660:	b7 08 00 00 20 00 00 00	mov64 r8, 32
    8661:	b7 02 00 00 20 00 00 00	mov64 r2, 32
    8662:	85 10 00 00 aa fa ff ff	call -1366
    8663:	79 a9 98 ff 00 00 00 00	ldxdw r9, [r10 - 104]
    8664:	79 a7 90 ff 00 00 00 00	ldxdw r7, [r10 - 112]
    8665:	18 01 00 00 6e 41 63 63 00 00 00 00 6f 75 6e 74	lddw r1, 8389772277107081582
    8667:	7b 17 18 00 00 00 00 00	stxdw [r7 + 24], r1
    8668:	18 01 00 00 61 74 65 64 00 00 00 00 54 6f 6b 65	lddw r1, 7308057228591068257
    8670:	7b 17 10 00 00 00 00 00	stxdw [r7 + 16], r1
    8671:	18 01 00 00 6f 74 41 73 00 00 00 00 73 6f 63 69	lddw r1, 7594035938322379887
    8673:	05 00 9f 02 00 00 00 00	ja +671 <custom_panic+0x6f90>
    8674:	65 01 ab 00 e8 03 00 00	jsgt r1, 1000, +171 <custom_panic+0x5ff8>
    8675:	15 01 bc 01 67 00 00 00	jeq r1, 103, +444 <custom_panic+0x6888>
    8676:	bf a1 00 00 00 00 00 00	mov64 r1, r10
    8677:	07 01 00 00 80 fc ff ff	add64 r1, -896
    8678:	b7 08 00 00 12 00 00 00	mov64 r8, 18
    8679:	b7 02 00 00 12 00 00 00	mov64 r2, 18
    8680:	85 10 00 00 98 fa ff ff	call -1384
    8681:	79 a9 88 fc 00 00 00 00	ldxdw r9, [r10 - 888]
    8682:	79 a7 80 fc 00 00 00 00	ldxdw r7, [r10 - 896]
    8683:	b7 01 00 00 75 62 00 00	mov64 r1, 25205
    8684:	6b 17 10 00 00 00 00 00	stxh [r7 + 16], r1
    8685:	18 01 00 00 75 63 74 69 00 00 00 00 6f 6e 53 74	lddw r1, 8382164756256285557
    8687:	05 00 66 02 00 00 00 00	ja +614 <custom_panic+0x6e38>
    8688:	65 01 ad 00 c6 09 00 00	jsgt r1, 2502, +173 <custom_panic+0x6078>
    8689:	15 01 c0 01 c5 09 00 00	jeq r1, 2501, +448 <custom_panic+0x6918>
    8690:	bf a1 00 00 00 00 00 00	mov64 r1, r10
    8691:	07 01 00 00 60 fe ff ff	add64 r1, -416
    8692:	b7 08 00 00 15 00 00 00	mov64 r8, 21
    8693:	b7 02 00 00 15 00 00 00	mov64 r2, 21
    8694:	85 10 00 00 8a fa ff ff	call -1398
    8695:	79 a9 68 fe 00 00 00 00	ldxdw r9, [r10 - 408]
    8696:	79 a7 60 fe 00 00 00 00	ldxdw r7, [r10 - 416]
    8697:	18 01 00 00 56 69 6f 6c 00 00 00 00 61 74 65 64	lddw r1, 7234316338220460374
    8699:	7b 17 0d 00 00 00 00 00	stxdw [r7 + 13], r1
    8700:	18 01 00 00 65 79 73 45 00 00 00 00 71 56 69 6f	lddw r1, 8028042855261108581
    8702:	05 00 ac 00 00 00 00 00	ja +172 <custom_panic+0x60e0>
    8703:	65 01 af 00 db 07 00 00	jsgt r1, 2011, +175 <custom_panic+0x6100>
    8704:	15 01 c0 01 da 07 00 00	jeq r1, 2010, +448 <custom_panic+0x6990>
    8705:	bf a1 00 00 00 00 00 00	mov64 r1, r10
    8706:	07 01 00 00 70 fd ff ff	add64 r1, -656
    8707:	b7 08 00 00 0f 00 00 00	mov64 r8, 15
    8708:	b7 02 00 00 0f 00 00 00	mov64 r2, 15
    8709:	85 10 00 00 7b fa ff ff	call -1413
    8710:	79 a9 78 fd 00 00 00 00	ldxdw r9, [r10 - 648]
    8711:	79 a7 70 fd 00 00 00 00	ldxdw r7, [r10 - 656]
    8712:	18 01 00 00 69 6e 74 43 00 00 00 00 6c 6f 73 65	lddw r1, 7310309130931301993
    8714:	05 00 3e 01 00 00 00 00	ja +318 <custom_panic+0x65d0>
    8715:	65 01 af 00 c2 0b 00 00	jsgt r1, 3010, +175 <custom_panic+0x6160>
    8716:	15 01 c1 01 c1 0b 00 00	jeq r1, 3009, +449 <custom_panic+0x69f8>
    8717:	bf a1 00 00 00 00 00 00	mov64 r1, r10
    8718:	07 01 00 00 50 ff ff ff	add64 r1, -176
    8719:	b7 08 00 00 10 00 00 00	mov64 r8, 16
    8720:	b7 02 00 00 10 00 00 00	mov64 r2, 16
    8721:	85 10 00 00 6f fa ff ff	call -1425
    8722:	79 a9 58 ff 00 00 00 00	ldxdw r9, [r10 - 168]
    8723:	79 a7 50 ff 00 00 00 00	ldxdw r7, [r10 - 176]
    8724:	18 01 00 00 6f 74 53 69 00 00 00 00 67 6e 65 72	lddw r1, 8243116083399324783
    8726:	05 00 6a 02 00 00 00 00	ja +618 <custom_panic+0x6f90>
    8727:	65 01 b1 00 d4 07 00 00	jsgt r1, 2004, +177 <custom_panic+0x61d0>
    8728:	15 01 c5 01 d3 07 00 00	jeq r1, 2003, +453 <custom_panic+0x6a78>
    8729:	bf a1 00 00 00 00 00 00	mov64 r1, r10
    8730:	07 01 00 00 00 fd ff ff	add64 r1, -768
    8731:	b7 08 00 00 0f 00 00 00	mov64 r8, 15
    8732:	b7 02 00 00 0f 00 00 00	mov64 r2, 15
    8733:	85 10 00 00 63 fa ff ff	call -1437
    8734:	79 a9 08 fd 00 00 00 00	ldxdw r9, [r10 - 760]
    8735:	79 a7 00 fd 00 00 00 00	ldxdw r7, [r10 - 768]
    8736:	18 01 00 00 69 6e 74 4f 00 00 00 00 77 6e 65 72	lddw r1, 8243116151684755049
    8738:	05 00 26 01 00 00 00 00	ja +294 <custom_panic+0x65d0>
    8739:	65 01 b0 00 bb 0b 00 00	jsgt r1, 3003, +176 <custom_panic+0x6228>
    8740:	15 01 c4 01 ba 0b 00 00	jeq r1, 3002, +452 <custom_panic+0x6ad0>
    8741:	bf a1 00 00 00 00 00 00	mov64 r1, r10
    8742:	07 01 00 00 e0 fe ff ff	add64 r1, -288
    8743:	b7 08 00 00 18 00 00 00	mov64 r8, 24
    8744:	b7 02 00 00 18 00 00 00	mov64 r2, 24
    8745:	85 10 00 00 57 fa ff ff	call -1449
    8746:	79 a9 e8 fe 00 00 00 00	ldxdw r9, [r10 - 280]
    8747:	79 a7 e0 fe 00 00 00 00	ldxdw r7, [r10 - 288]
    8748:	18 01 00 00 65 72 69 61 00 00 00 00 6c 69 7a 65	lddw r1, 7312272859201106533
    8750:	7b 17 10 00 00 00 00 00	stxdw [r7 + 16], r1
    8751:	18 01 00 00 69 64 4e 6f 00 00 00 00 74 44 65 73	lddw r1, 8315127553883792489
    8753:	05 00 6b 02 00 00 00 00	ja +619 <custom_panic+0x7070>
    8754:	65 01 ae 00 e3 07 00 00	jsgt r1, 2019, +174 <custom_panic+0x6290>
    8755:	15 01 c1 01 e2 07 00 00	jeq r1, 2018, +449 <custom_panic+0x6b30>
    8756:	bf a1 00 00 00 00 00 00	mov64 r1, r10
    8757:	07 01 00 00 f0 fd ff ff	add64 r1, -528
    8758:	b7 08 00 00 0f 00 00 00	mov64 r8, 15
    8759:	b7 02 00 00 0f 00 00 00	mov64 r2, 15
    8760:	85 10 00 00 48 fa ff ff	call -1464
    8761:	79 a9 f8 fd 00 00 00 00	ldxdw r9, [r10 - 520]
    8762:	79 a7 f0 fd 00 00 00 00	ldxdw r7, [r10 - 528]
    8763:	18 01 00 00 69 6e 74 53 00 00 00 00 70 61 63 65	lddw r1, 7305790155589447273
    8765:	05 00 0b 01 00 00 00 00	ja +267 <custom_panic+0x65d0>
    8766:	65 01 b2 00 04 10 00 00	jsgt r1, 4100, +178 <custom_panic+0x6310>
    8767:	15 01 c2 01 c9 0b 00 00	jeq r1, 3017, +450 <custom_panic+0x6b98>
    8768:	bf a1 00 00 00 00 00 00	mov64 r1, r10
    8769:	07 01 00 00 d0 ff ff ff	add64 r1, -48
    8770:	b7 08 00 00 19 00 00 00	mov64 r8, 25
    8771:	b7 02 00 00 19 00 00 00	mov64 r2, 25
    8772:	85 10 00 00 3c fa ff ff	call -1476
    8773:	79 a9 d8 ff 00 00 00 00	ldxdw r9, [r10 - 40]
    8774:	79 a7 d0 ff 00 00 00 00	ldxdw r7, [r10 - 48]
    8775:	b7 01 00 00 68 00 00 00	mov64 r1, 104
    8776:	73 17 18 00 00 00 00 00	stxb [r7 + 24], r1
    8777:	18 01 00 00 64 4d 69 73 00 00 00 00 6d 61 74 63	lddw r1, 7166460029768912228
    8779:	7b 17 10 00 00 00 00 00	stxdw [r7 + 16], r1
    8780:	18 01 00 00 50 72 6f 67 00 00 00 00 72 61 6d 49	lddw r1, 5290992281219723856
    8782:	7b 17 08 00 00 00 00 00	stxdw [r7 + 8], r1
    8783:	18 01 00 00 44 65 63 6c 00 00 00 00 61 72 65 64	lddw r1, 7234314139196417348
    8785:	05 00 5e 02 00 00 00 00	ja +606 <custom_panic+0x7108>
    8786:	15 01 bc 01 d1 07 00 00	jeq r1, 2001, +444 <custom_panic+0x6c00>
    8787:	bf a1 00 00 00 00 00 00	mov64 r1, r10
    8788:	07 01 00 00 e0 fc ff ff	add64 r1, -800
    8789:	b7 08 00 00 10 00 00 00	mov64 r8, 16
    8790:	b7 02 00 00 10 00 00 00	mov64 r2, 16
    8791:	85 10 00 00 29 fa ff ff	call -1495
    8792:	79 a9 e8 fc 00 00 00 00	ldxdw r9, [r10 - 792]
    8793:	79 a7 e0 fc 00 00 00 00	ldxdw r7, [r10 - 800]
    8794:	18 01 00 00 6e 74 53 69 00 00 00 00 67 6e 65 72	lddw r1, 8243116083399324782
    8796:	05 00 50 02 00 00 00 00	ja +592 <custom_panic+0x70f0>
    8797:	15 01 bb 01 b8 0b 00 00	jeq r1, 3000, +443 <custom_panic+0x6c50>
    8798:	bf a1 00 00 00 00 00 00	mov64 r1, r10
    8799:	07 01 00 00 c0 fe ff ff	add64 r1, -320
    8800:	b7 08 00 00 1c 00 00 00	mov64 r8, 28
    8801:	b7 02 00 00 1c 00 00 00	mov64 r2, 28
    8802:	85 10 00 00 1e fa ff ff	call -1506
    8803:	79 a9 c8 fe 00 00 00 00	ldxdw r9, [r10 - 312]
    8804:	79 a7 c0 fe 00 00 00 00	ldxdw r7, [r10 - 320]
    8805:	b7 01 00 00 6f 75 6e 64	mov64 r1, 1684960623
    8806:	63 17 18 00 00 00 00 00	stxw [r7 + 24], r1
    8807:	18 01 00 00 61 74 6f 72 00 00 00 00 4e 6f 74 46	lddw r1, 5076805062671430753
    8809:	05 00 bb 01 00 00 00 00	ja +443 <custom_panic+0x6cb0>
    8810:	15 01 be 01 e0 07 00 00	jeq r1, 2016, +446 <custom_panic+0x6cd0>
    8811:	bf a1 00 00 00 00 00 00	mov64 r1, r10
    8812:	07 01 00 00 d0 fd ff ff	add64 r1, -560
    8813:	b7 08 00 00 1d 00 00 00	mov64 r8, 29
    8814:	b7 02 00 00 1d 00 00 00	mov64 r2, 29
    8815:	85 10 00 00 11 fa ff ff	call -1519
    8816:	79 a9 d8 fd 00 00 00 00	ldxdw r9, [r10 - 552]
    8817:	79 a7 d0 fd 00 00 00 00	ldxdw r7, [r10 - 560]
    8818:	18 01 00 00 75 74 68 6f 00 00 00 00 72 69 74 79	lddw r1, 8751735916104021109
    8820:	7b 17 15 00 00 00 00 00	stxdw [r7 + 21], r1
    8821:	18 01 00 00 65 65 7a 65 00 00 00 00 41 75 74 68	lddw r1, 7526769800978785637
    8823:	7b 17 10 00 00 00 00 00	stxdw [r7 + 16], r1
    8824:	18 01 00 00 6e 74 4d 69 00 00 00 00 6e 74 46 72	lddw r1, 8234396986255438958
    8826:	05 00 32 02 00 00 00 00	ja +562 <custom_panic+0x70f0>
    8827:	15 01 bc 01 c7 0b 00 00	jeq r1, 3015, +444 <custom_panic+0x6d48>
    8828:	bf a1 00 00 00 00 00 00	mov64 r1, r10
    8829:	07 01 00 00 b0 ff ff ff	add64 r1, -80
    8830:	b7 08 00 00 1a 00 00 00	mov64 r8, 26
    8831:	b7 02 00 00 1a 00 00 00	mov64 r2, 26
    8832:	85 10 00 00 00 fa ff ff	call -1536
    8833:	79 a9 b8 ff 00 00 00 00	ldxdw r9, [r10 - 72]
    8834:	79 a7 b0 ff 00 00 00 00	ldxdw r7, [r10 - 80]
    8835:	b7 01 00 00 69 74 00 00	mov64 r1, 29801
    8836:	6b 17 18 00 00 00 00 00	stxh [r7 + 24], r1
    8837:	18 01 00 00 63 65 65 64 00 00 00 00 73 4c 69 6d	lddw r1, 7883916681178080611
    8839:	7b 17 10 00 00 00 00 00	stxdw [r7 + 16], r1
    8840:	18 01 00 00 65 61 6c 6c 00 00 00 00 6f 63 45 78	lddw r1, 8666442388155949413
    8842:	7b 17 08 00 00 00 00 00	stxdw [r7 + 8], r1
    8843:	18 01 00 00 41 63 63 6f 00 00 00 00 75 6e 74 52	lddw r1, 5941495259067540289
    8845:	05 00 22 02 00 00 00 00	ja +546 <custom_panic+0x7108>
    8846:	15 01 b9 01 e9 03 00 00	jeq r1, 1001, +441 <custom_panic+0x6dc8>
    8847:	bf a1 00 00 00 00 00 00	mov64 r1, r10
    8848:	07 01 00 00 a0 fc ff ff	add64 r1, -864
    8849:	b7 08 00 00 12 00 00 00	mov64 r8, 18
    8850:	b7 02 00 00 12 00 00 00	mov64 r2, 18
    8851:	85 10 00 00 ed f9 ff ff	call -1555
    8852:	79 a9 a8 fc 00 00 00 00	ldxdw r9, [r10 - 856]
    8853:	79 a7 a0 fc 00 00 00 00	ldxdw r7, [r10 - 864]
    8854:	b7 01 00 00 74 79 00 00	mov64 r1, 31092
    8855:	6b 17 10 00 00 00 00 00	stxh [r7 + 16], r1
    8856:	18 01 00 00 6e 74 4e 6f 00 00 00 00 74 45 6d 70	lddw r1, 8101207671095325806
    8858:	7b 17 08 00 00 00 00 00	stxdw [r7 + 8], r1
    8859:	18 01 00 00 49 64 6c 41 00 00 00 00 63 63 6f 75	lddw r1, 8462091502802986057
    8861:	05 00 12 02 00 00 00 00	ja +530 <custom_panic+0x7108>
    8862:	15 01 bb 01 c7 09 00 00	jeq r1, 2503, +443 <custom_panic+0x6e58>
    8863:	bf a1 00 00 00 00 00 00	mov64 r1, r10
    8864:	07 01 00 00 80 fe ff ff	add64 r1, -384
    8865:	b7 08 00 00 16 00 00 00	mov64 r8, 22
    8866:	b7 02 00 00 16 00 00 00	mov64 r2, 22
    8867:	85 10 00 00 dd f9 ff ff	call -1571
    8868:	79 a9 88 fe 00 00 00 00	ldxdw r9, [r10 - 376]
    8869:	79 a7 80 fe 00 00 00 00	ldxdw r7, [r10 - 384]
    8870:	18 01 00 00 56 69 6f 6c 00 00 00 00 61 74 65 64	lddw r1, 7234316338220460374
    8872:	7b 17 0e 00 00 00 00 00	stxdw [r7 + 14], r1
    8873:	18 01 00 00 65 79 73 4e 00 00 00 00 65 71 56 69	lddw r1, 7590378901901375845
    8875:	7b 17 08 00 00 00 00 00	stxdw [r7 + 8], r1
    8876:	18 01 00 00 52 65 71 75 00 00 00 00 69 72 65 4b	lddw r1, 5432874322759869778
    8878:	05 00 01 02 00 00 00 00	ja +513 <custom_panic+0x7108>
    8879:	15 01 b9 01 dc 07 00 00	jeq r1, 2012, +441 <custom_panic+0x6ed0>
    8880:	bf a1 00 00 00 00 00 00	mov64 r1, r10
    8881:	07 01 00 00 90 fd ff ff	add64 r1, -624
    8882:	b7 08 00 00 0e 00 00 00	mov64 r8, 14
    8883:	b7 02 00 00 0e 00 00 00	mov64 r2, 14
    8884:	85 10 00 00 cc f9 ff ff	call -1588
    8885:	79 a9 98 fd 00 00 00 00	ldxdw r9, [r10 - 616]
    8886:	79 a7 90 fd 00 00 00 00	ldxdw r7, [r10 - 624]
    8887:	18 01 00 00 61 69 6e 74 00 00 00 00 5a 65 72 6f	lddw r1, 8030592524729870689
    8889:	7b 17 06 00 00 00 00 00	stxdw [r7 + 6], r1
    8890:	05 00 f3 01 00 00 00 00	ja +499 <custom_panic+0x70f8>
    8891:	15 01 b9 01 c3 0b 00 00	jeq r1, 3011, +441 <custom_panic+0x6f30>
    8892:	bf a1 00 00 00 00 00 00	mov64 r1, r10
    8893:	07 01 00 00 70 ff ff ff	add64 r1, -144
    8894:	b7 08 00 00 15 00 00 00	mov64 r8, 21
    8895:	b7 02 00 00 15 00 00 00	mov64 r2, 21
    8896:	85 10 00 00 c0 f9 ff ff	call -1600
    8897:	79 a9 78 ff 00 00 00 00	ldxdw r9, [r10 - 136]
    8898:	79 a7 70 ff 00 00 00 00	ldxdw r7, [r10 - 144]
    8899:	18 01 00 00 74 69 61 6c 00 00 00 00 69 7a 65 64	lddw r1, 7234322969649047924
    8901:	7b 17 0d 00 00 00 00 00	stxdw [r7 + 13], r1
    8902:	18 01 00 00 6f 74 49 6e 00 00 00 00 69 74 69 61	lddw r1, 7019269490404324463
    8904:	05 00 b8 01 00 00 00 00	ja +440 <custom_panic+0x6f90>
    8905:	15 01 bb 01 d5 07 00 00	jeq r1, 2005, +443 <custom_panic+0x6fb0>
    8906:	bf a1 00 00 00 00 00 00	mov64 r1, r10
    8907:	07 01 00 00 20 fd ff ff	add64 r1, -736
    8908:	b7 08 00 00 0f 00 00 00	mov64 r8, 15
    8909:	b7 02 00 00 0f 00 00 00	mov64 r2, 15
    8910:	85 10 00 00 b2 f9 ff ff	call -1614
    8911:	79 a9 28 fd 00 00 00 00	ldxdw r9, [r10 - 728]
    8912:	79 a7 20 fd 00 00 00 00	ldxdw r7, [r10 - 736]
    8913:	18 01 00 00 69 6e 74 53 00 00 00 00 65 65 64 73	lddw r1, 8314882297899019881
    8915:	05 00 75 00 00 00 00 00	ja +117 <custom_panic+0x65d0>
    8916:	15 01 bc 01 bc 0b 00 00	jeq r1, 3004, +444 <custom_panic+0x7010>
    8917:	bf a1 00 00 00 00 00 00	mov64 r1, r10
    8918:	07 01 00 00 00 ff ff ff	add64 r1, -256
    8919:	b7 08 00 00 14 00 00 00	mov64 r8, 20
    8920:	b7 02 00 00 14 00 00 00	mov64 r2, 20
    8921:	85 10 00 00 a7 f9 ff ff	call -1625
    8922:	79 a9 08 ff 00 00 00 00	ldxdw r9, [r10 - 248]
    8923:	79 a7 00 ff 00 00 00 00	ldxdw r7, [r10 - 256]
    8924:	b7 01 00 00 4b 65 79 73	mov64 r1, 1937335627
    8925:	63 17 10 00 00 00 00 00	stxw [r7 + 16], r1
    8926:	18 01 00 00 6f 74 45 6e 00 00 00 00 6f 75 67 68	lddw r1, 7523110823997568111
    8928:	05 00 a0 01 00 00 00 00	ja +416 <custom_panic+0x6f90>
    8929:	15 01 bf 01 e4 07 00 00	jeq r1, 2020, +447 <custom_panic+0x7090>
    8930:	bf a1 00 00 00 00 00 00	mov64 r1, r10
    8931:	07 01 00 00 10 fe ff ff	add64 r1, -496
    8932:	b7 08 00 00 1b 00 00 00	mov64 r8, 27
    8933:	b7 02 00 00 1b 00 00 00	mov64 r2, 27
    8934:	85 10 00 00 9a f9 ff ff	call -1638
    8935:	79 a9 18 fe 00 00 00 00	ldxdw r9, [r10 - 488]
    8936:	79 a7 10 fe 00 00 00 00	ldxdw r7, [r10 - 496]
    8937:	b7 01 00 00 67 72 61 6d	mov64 r1, 1835102823
    8938:	63 17 17 00 00 00 00 00	stxw [r7 + 23], r1
    8939:	18 01 00 00 6f 6b 65 6e 00 00 00 00 50 72 6f 67	lddw r1, 7453301598096550767
    8941:	7b 17 10 00 00 00 00 00	stxdw [r7 + 16], r1
    8942:	18 01 00 00 6e 74 54 6f 00 00 00 00 6b 65 6e 54	lddw r1, 6083911658727830638
    8944:	05 00 bc 01 00 00 00 00	ja +444 <custom_panic+0x70f0>
    8945:	15 01 c3 01 05 10 00 00	jeq r1, 4101, +451 <custom_panic+0x7130>
    8946:	bf a1 00 00 00 00 00 00	mov64 r1, r10
    8947:	07 01 00 00 f0 ff ff ff	add64 r1, -16
    8948:	b7 08 00 00 0a 00 00 00	mov64 r8, 10
    8949:	b7 02 00 00 0a 00 00 00	mov64 r2, 10
    8950:	85 10 00 00 8a f9 ff ff	call -1654
    8951:	79 a9 f8 ff 00 00 00 00	ldxdw r9, [r10 - 8]
    8952:	79 a7 f0 ff 00 00 00 00	ldxdw r7, [r10 - 16]
    8953:	b7 01 00 00 65 64 00 00	mov64 r1, 25701
    8954:	6b 17 08 00 00 00 00 00	stxh [r7 + 8], r1
    8955:	18 01 00 00 44 65 70 72 00 00 00 00 65 63 61 74	lddw r1, 8386093268503389508
    8957:	05 00 b2 01 00 00 00 00	ja +434 <custom_panic+0x7108>
    8958:	bf a1 00 00 00 00 00 00	mov64 r1, r10
    8959:	07 01 00 00 40 fc ff ff	add64 r1, -960
    8960:	b7 08 00 00 12 00 00 00	mov64 r8, 18
    8961:	b7 02 00 00 12 00 00 00	mov64 r2, 18
    8962:	85 10 00 00 7e f9 ff ff	call -1666
    8963:	79 a9 48 fc 00 00 00 00	ldxdw r9, [r10 - 952]
    8964:	79 a7 40 fc 00 00 00 00	ldxdw r7, [r10 - 960]
    8965:	b7 01 00 00 6e 67 00 00	mov64 r1, 26478
    8966:	6b 17 10 00 00 00 00 00	stxh [r7 + 16], r1
    8967:	18 01 00 00 69 6f 6e 4d 00 00 00 00 69 73 73 69	lddw r1, 7598543892412002153
    8969:	05 00 a4 00 00 00 00 00	ja +164 <custom_panic+0x68f8>
    8970:	bf a1 00 00 00 00 00 00	mov64 r1, r10
    8971:	07 01 00 00 50 fc ff ff	add64 r1, -944
    8972:	b7 08 00 00 1b 00 00 00	mov64 r8, 27
    8973:	b7 02 00 00 1b 00 00 00	mov64 r2, 27
    8974:	85 10 00 00 72 f9 ff ff	call -1678
    8975:	79 a9 58 fc 00 00 00 00	ldxdw r9, [r10 - 936]
    8976:	79 a7 50 fc 00 00 00 00	ldxdw r7, [r10 - 944]
    8977:	b7 01 00 00 6f 75 6e 64	mov64 r1, 1684960623
    8978:	63 17 17 00 00 00 00 00	stxw [r7 + 23], r1
    8979:	18 01 00 00 61 63 6b 4e 00 00 00 00 6f 74 46 6f	lddw r1, 8018224207985599329
    8981:	7b 17 10 00 00 00 00 00	stxdw [r7 + 16], r1
    8982:	18 01 00 00 69 6f 6e 46 00 00 00 00 61 6c 6c 62	lddw r1, 7092162678250958697
    8984:	05 00 95 00 00 00 00 00	ja +149 <custom_panic+0x68f8>
    8985:	bf a1 00 00 00 00 00 00	mov64 r1, r10
    8986:	07 01 00 00 20 fe ff ff	add64 r1, -480
    8987:	b7 08 00 00 1a 00 00 00	mov64 r8, 26
    8988:	b7 02 00 00 1a 00 00 00	mov64 r2, 26
    8989:	85 10 00 00 63 f9 ff ff	call -1693
    8990:	79 a9 28 fe 00 00 00 00	ldxdw r9, [r10 - 472]
    8991:	79 a7 20 fe 00 00 00 00	ldxdw r7, [r10 - 480]
    8992:	b7 01 00 00 61 6d 00 00	mov64 r1, 28001
    8993:	6b 17 18 00 00 00 00 00	stxh [r7 + 24], r1
    8994:	18 01 00 00 6b 65 6e 50 00 00 00 00 72 6f 67 72	lddw r1, 8243680179691349355
    8996:	7b 17 10 00 00 00 00 00	stxdw [r7 + 16], r1
    8997:	18 01 00 00 6e 74 4d 69 00 00 00 00 6e 74 54 6f	lddw r1, 8022164853815604334
    8999:	05 00 85 01 00 00 00 00	ja +389 <custom_panic+0x70f0>
    9000:	bf a1 00 00 00 00 00 00	mov64 r1, r10
    9001:	07 01 00 00 30 fe ff ff	add64 r1, -464
    9002:	b7 08 00 00 25 00 00 00	mov64 r8, 37
    9003:	b7 02 00 00 25 00 00 00	mov64 r2, 37
    9004:	85 10 00 00 54 f9 ff ff	call -1708
    9005:	79 a9 38 fe 00 00 00 00	ldxdw r9, [r10 - 456]
    9006:	79 a7 30 fe 00 00 00 00	ldxdw r7, [r10 - 464]
    9007:	bf 71 00 00 00 00 00 00	mov64 r1, r7
    9008:	18 02 00 00 8a 57 02 00 00 00 00 00 00 00 00 00	lddw r2, 153482
    9010:	b7 03 00 00 25 00 00 00	mov64 r3, 37
    9011:	05 00 8c 01 00 00 00 00	ja +396 <custom_panic+0x7188>
    9012:	bf a1 00 00 00 00 00 00	mov64 r1, r10
    9013:	07 01 00 00 30 fd ff ff	add64 r1, -720
    9014:	b7 08 00 00 14 00 00 00	mov64 r8, 20
    9015:	b7 02 00 00 14 00 00 00	mov64 r2, 20
    9016:	85 10 00 00 48 f9 ff ff	call -1720
    9017:	79 a9 38 fd 00 00 00 00	ldxdw r9, [r10 - 712]
    9018:	79 a7 30 fd 00 00 00 00	ldxdw r7, [r10 - 720]
    9019:	b7 01 00 00 61 62 6c 65	mov64 r1, 1701601889
    9020:	63 17 10 00 00 00 00 00	stxw [r7 + 16], r1
    9021:	18 01 00 00 6e 74 45 78 00 00 00 00 65 63 75 74	lddw r1, 8391722768135451758
    9023:	05 00 6d 01 00 00 00 00	ja +365 <custom_panic+0x70f0>
    9024:	bf a1 00 00 00 00 00 00	mov64 r1, r10
    9025:	07 01 00 00 40 fd ff ff	add64 r1, -704
    9026:	b7 08 00 00 0f 00 00 00	mov64 r8, 15
    9027:	b7 02 00 00 0f 00 00 00	mov64 r2, 15
    9028:	85 10 00 00 3c f9 ff ff	call -1732
    9029:	79 a9 48 fd 00 00 00 00	ldxdw r9, [r10 - 696]
    9030:	79 a7 40 fd 00 00 00 00	ldxdw r7, [r10 - 704]
    9031:	18 01 00 00 69 6e 74 53 00 00 00 00 74 61 74 65	lddw r1, 7310575247373397609
    9033:	7b 17 07 00 00 00 00 00	stxdw [r7 + 7], r1
    9034:	05 00 63 01 00 00 00 00	ja +355 <custom_panic+0x70f8>
    9035:	bf a1 00 00 00 00 00 00	mov64 r1, r10
    9036:	07 01 00 00 10 ff ff ff	add64 r1, -240
    9037:	b7 08 00 00 11 00 00 00	mov64 r8, 17
    9038:	b7 02 00 00 11 00 00 00	mov64 r2, 17
    9039:	85 10 00 00 31 f9 ff ff	call -1743
    9040:	79 a9 18 ff 00 00 00 00	ldxdw r9, [r10 - 232]
    9041:	79 a7 10 ff 00 00 00 00	ldxdw r7, [r10 - 240]
    9042:	b7 01 00 00 65 00 00 00	mov64 r1, 101
    9043:	73 17 10 00 00 00 00 00	stxb [r7 + 16], r1
    9044:	18 01 00 00 6f 74 4d 75 00 00 00 00 74 61 62 6c	lddw r1, 7809911856625972335
    9046:	05 00 2a 01 00 00 00 00	ja +298 <custom_panic+0x6f90>
    9047:	bf a1 00 00 00 00 00 00	mov64 r1, r10
    9048:	07 01 00 00 20 ff ff ff	add64 r1, -224
    9049:	b7 08 00 00 1a 00 00 00	mov64 r8, 26
    9050:	b7 02 00 00 1a 00 00 00	mov64 r2, 26
    9051:	85 10 00 00 25 f9 ff ff	call -1755
    9052:	79 a9 28 ff 00 00 00 00	ldxdw r9, [r10 - 216]
    9053:	79 a7 20 ff 00 00 00 00	ldxdw r7, [r10 - 224]
    9054:	b7 01 00 00 61 6d 00 00	mov64 r1, 28001
    9055:	6b 17 18 00 00 00 00 00	stxh [r7 + 24], r1
    9056:	18 01 00 00 6f 6e 67 50 00 00 00 00 72 6f 67 72	lddw r1, 8243680179690892911
    9058:	7b 17 10 00 00 00 00 00	stxdw [r7 + 16], r1
    9059:	18 01 00 00 77 6e 65 64 00 00 00 00 42 79 57 72	lddw r1, 8239187369356783223
    9061:	7b 17 08 00 00 00 00 00	stxdw [r7 + 8], r1
    9062:	18 01 00 00 41 63 63 6f 00 00 00 00 75 6e 74 4f	lddw r1, 5725322476953756481
    9064:	05 00 47 01 00 00 00 00	ja +327 <custom_panic+0x7108>
    9065:	bf a1 00 00 00 00 00 00	mov64 r1, r10
    9066:	07 01 00 00 b0 fc ff ff	add64 r1, -848
    9067:	b7 08 00 00 14 00 00 00	mov64 r8, 20
    9068:	b7 02 00 00 14 00 00 00	mov64 r2, 20
    9069:	85 10 00 00 13 f9 ff ff	call -1773
    9070:	79 a9 b8 fc 00 00 00 00	ldxdw r9, [r10 - 840]
    9071:	79 a7 b0 fc 00 00 00 00	ldxdw r7, [r10 - 848]
    9072:	b7 01 00 00 53 74 75 62	mov64 r1, 1651864659
    9073:	63 17 10 00 00 00 00 00	stxw [r7 + 16], r1
    9074:	18 01 00 00 74 72 75 63 00 00 00 00 74 69 6f 6e	lddw r1, 7957695015192719988
    9076:	7b 17 08 00 00 00 00 00	stxdw [r7 + 8], r1
    9077:	18 01 00 00 45 76 65 6e 00 00 00 00 74 49 6e 73	lddw r1, 8317666326217061957
    9079:	05 00 38 01 00 00 00 00	ja +312 <custom_panic+0x7108>
    9080:	bf a1 00 00 00 00 00 00	mov64 r1, r10
    9081:	07 01 00 00 90 fe ff ff	add64 r1, -368
    9082:	b7 08 00 00 11 00 00 00	mov64 r8, 17
    9083:	b7 02 00 00 11 00 00 00	mov64 r2, 17
    9084:	85 10 00 00 04 f9 ff ff	call -1788
    9085:	79 a9 98 fe 00 00 00 00	ldxdw r9, [r10 - 360]
    9086:	79 a7 90 fe 00 00 00 00	ldxdw r7, [r10 - 368]
    9087:	b7 01 00 00 64 00 00 00	mov64 r1, 100
    9088:	73 17 10 00 00 00 00 00	stxb [r7 + 16], r1
    9089:	18 01 00 00 74 56 69 6f 00 00 00 00 6c 61 74 65	lddw r1, 7310575213482694260
    9091:	7b 17 08 00 00 00 00 00	stxdw [r7 + 8], r1
    9092:	18 01 00 00 52 65 71 75 00 00 00 00 69 72 65 47	lddw r1, 5144643946608158034
    9094:	05 00 29 01 00 00 00 00	ja +297 <custom_panic+0x7108>
    9095:	bf a1 00 00 00 00 00 00	mov64 r1, r10
    9096:	07 01 00 00 a0 fd ff ff	add64 r1, -608
    9097:	b7 08 00 00 13 00 00 00	mov64 r8, 19
    9098:	b7 02 00 00 13 00 00 00	mov64 r2, 19
    9099:	85 10 00 00 f5 f8 ff ff	call -1803
    9100:	79 a9 a8 fd 00 00 00 00	ldxdw r9, [r10 - 600]
    9101:	79 a7 a0 fd 00 00 00 00	ldxdw r7, [r10 - 608]
    9102:	b7 01 00 00 4d 69 6e 74	mov64 r1, 1953392973
    9103:	63 17 0f 00 00 00 00 00	stxw [r7 + 15], r1
    9104:	18 01 00 00 6e 74 54 6f 00 00 00 00 6b 65 6e 4d	lddw r1, 5579508500462335086
    9106:	05 00 1a 01 00 00 00 00	ja +282 <custom_panic+0x70f0>
    9107:	bf a1 00 00 00 00 00 00	mov64 r1, r10
    9108:	07 01 00 00 80 ff ff ff	add64 r1, -128
    9109:	b7 08 00 00 15 00 00 00	mov64 r8, 21
    9110:	b7 02 00 00 15 00 00 00	mov64 r2, 21
    9111:	85 10 00 00 e9 f8 ff ff	call -1815
    9112:	79 a9 88 ff 00 00 00 00	ldxdw r9, [r10 - 120]
    9113:	79 a7 80 ff 00 00 00 00	ldxdw r7, [r10 - 128]
    9114:	18 01 00 00 67 72 61 6d 00 00 00 00 44 61 74 61	lddw r1, 7022344665498219111
    9116:	7b 17 0d 00 00 00 00 00	stxdw [r7 + 13], r1
    9117:	18 01 00 00 6f 74 50 72 00 00 00 00 6f 67 72 61	lddw r1, 7021788497380930671
    9119:	05 00 e1 00 00 00 00 00	ja +225 <custom_panic+0x6f90>
    9120:	bf a1 00 00 00 00 00 00	mov64 r1, r10
    9121:	07 01 00 00 70 fc ff ff	add64 r1, -912
    9122:	b7 08 00 00 1a 00 00 00	mov64 r8, 26
    9123:	b7 02 00 00 1a 00 00 00	mov64 r2, 26
    9124:	85 10 00 00 dc f8 ff ff	call -1828
    9125:	79 a9 78 fc 00 00 00 00	ldxdw r9, [r10 - 904]
    9126:	79 a7 70 fc 00 00 00 00	ldxdw r7, [r10 - 912]
    9127:	b7 01 00 00 7a 65 00 00	mov64 r1, 25978
    9128:	6b 17 18 00 00 00 00 00	stxh [r7 + 24], r1
    9129:	18 01 00 00 74 53 65 72 00 00 00 00 69 61 6c 69	lddw r1, 7596553776985887604
    9131:	7b 17 10 00 00 00 00 00	stxdw [r7 + 16], r1
    9132:	18 01 00 00 69 6f 6e 44 00 00 00 00 69 64 4e 6f	lddw r1, 8020458389675863913
    9134:	7b 17 08 00 00 00 00 00	stxdw [r7 + 8], r1
    9135:	18 01 00 00 49 6e 73 74 00 00 00 00 72 75 63 74	lddw r1, 8386676065534438985
    9137:	05 00 fe 00 00 00 00 00	ja +254 <custom_panic+0x7108>
    9138:	bf a1 00 00 00 00 00 00	mov64 r1, r10
    9139:	07 01 00 00 50 fe ff ff	add64 r1, -432
    9140:	b7 08 00 00 11 00 00 00	mov64 r8, 17
    9141:	b7 02 00 00 11 00 00 00	mov64 r2, 17
    9142:	85 10 00 00 ca f8 ff ff	call -1846
    9143:	79 a9 58 fe 00 00 00 00	ldxdw r9, [r10 - 424]
    9144:	79 a7 50 fe 00 00 00 00	ldxdw r7, [r10 - 432]
    9145:	b7 01 00 00 64 00 00 00	mov64 r1, 100
    9146:	73 17 10 00 00 00 00 00	stxb [r7 + 16], r1
    9147:	18 01 00 00 71 56 69 6f 00 00 00 00 6c 61 74 65	lddw r1, 7310575213482694257
    9149:	7b 17 08 00 00 00 00 00	stxdw [r7 + 8], r1
    9150:	18 01 00 00 52 65 71 75 00 00 00 00 69 72 65 45	lddw r1, 5000528758532302162
    9152:	05 00 ef 00 00 00 00 00	ja +239 <custom_panic+0x7108>
    9153:	bf a1 00 00 00 00 00 00	mov64 r1, r10
    9154:	07 01 00 00 60 fd ff ff	add64 r1, -672
    9155:	b7 08 00 00 18 00 00 00	mov64 r8, 24
    9156:	b7 02 00 00 18 00 00 00	mov64 r2, 24
    9157:	85 10 00 00 bb f8 ff ff	call -1861
    9158:	79 a9 68 fd 00 00 00 00	ldxdw r9, [r10 - 664]
    9159:	79 a7 60 fd 00 00 00 00	ldxdw r7, [r10 - 672]
    9160:	18 01 00 00 61 74 65 64 00 00 00 00 49 6e 69 74	lddw r1, 8388357042450297953
    9162:	7b 17 10 00 00 00 00 00	stxdw [r7 + 16], r1
    9163:	18 01 00 00 6e 74 41 73 00 00 00 00 73 6f 63 69	lddw r1, 7594035938322379886
    9165:	05 00 df 00 00 00 00 00	ja +223 <custom_panic+0x70f0>
    9166:	bf a1 00 00 00 00 00 00	mov64 r1, r10
    9167:	07 01 00 00 40 ff ff ff	add64 r1, -192
    9168:	b7 08 00 00 18 00 00 00	mov64 r8, 24
    9169:	b7 02 00 00 18 00 00 00	mov64 r2, 24
    9170:	85 10 00 00 ae f8 ff ff	call -1874
    9171:	79 a9 48 ff 00 00 00 00	ldxdw r9, [r10 - 184]
    9172:	79 a7 40 ff 00 00 00 00	ldxdw r7, [r10 - 192]
    9173:	18 01 00 00 65 63 75 74 00 00 00 00 61 62 6c 65	lddw r1, 7308324466020672357
    9175:	7b 17 10 00 00 00 00 00	stxdw [r7 + 16], r1
    9176:	18 01 00 00 72 6f 67 72 00 00 00 00 61 6d 45 78	lddw r1, 8666453323243024242
    9178:	7b 17 08 00 00 00 00 00	stxdw [r7 + 8], r1
    9179:	18 01 00 00 49 6e 76 61 00 00 00 00 6c 69 64 50	lddw r1, 5792870934917836361
    9181:	05 00 d2 00 00 00 00 00	ja +210 <custom_panic+0x7108>
    9182:	bf a1 00 00 00 00 00 00	mov64 r1, r10
    9183:	07 01 00 00 f0 fc ff ff	add64 r1, -784
    9184:	b7 08 00 00 0d 00 00 00	mov64 r8, 13
    9185:	b7 02 00 00 0d 00 00 00	mov64 r2, 13
    9186:	85 10 00 00 9e f8 ff ff	call -1890
    9187:	79 a9 f8 fc 00 00 00 00	ldxdw r9, [r10 - 776]
    9188:	79 a7 f0 fc 00 00 00 00	ldxdw r7, [r10 - 784]
    9189:	18 01 00 00 72 61 69 6e 00 00 00 00 74 52 61 77	lddw r1, 8602247423276441970
    9191:	7b 17 05 00 00 00 00 00	stxdw [r7 + 5], r1
    9192:	05 00 c5 00 00 00 00 00	ja +197 <custom_panic+0x70f8>
    9193:	bf a1 00 00 00 00 00 00	mov64 r1, r10
    9194:	07 01 00 00 d0 fe ff ff	add64 r1, -304
    9195:	b7 08 00 00 1c 00 00 00	mov64 r8, 28
    9196:	b7 02 00 00 1c 00 00 00	mov64 r2, 28
    9197:	85 10 00 00 93 f8 ff ff	call -1901
    9198:	79 a9 d8 fe 00 00 00 00	ldxdw r9, [r10 - 296]
    9199:	79 a7 d0 fe 00 00 00 00	ldxdw r7, [r10 - 304]
    9200:	b7 01 00 00 61 74 63 68	mov64 r1, 1751348321
    9201:	63 17 18 00 00 00 00 00	stxw [r7 + 24], r1
    9202:	18 01 00 00 61 74 6f 72 00 00 00 00 4d 69 73 6d	lddw r1, 7886763153809175649
    9204:	05 00 30 00 00 00 00 00	ja +48 <custom_panic+0x6cb0>
    9205:	bf a1 00 00 00 00 00 00	mov64 r1, r10
    9206:	07 01 00 00 e0 fd ff ff	add64 r1, -544
    9207:	b7 08 00 00 16 00 00 00	mov64 r8, 22
    9208:	b7 02 00 00 16 00 00 00	mov64 r2, 22
    9209:	85 10 00 00 87 f8 ff ff	call -1913
    9210:	79 a9 e8 fd 00 00 00 00	ldxdw r9, [r10 - 536]
    9211:	79 a7 e0 fd 00 00 00 00	ldxdw r7, [r10 - 544]
    9212:	18 01 00 00 44 65 63 69 00 00 00 00 6d 61 6c 73	lddw r1, 8317129734393914692
    9214:	7b 17 0e 00 00 00 00 00	stxdw [r7 + 14], r1
    9215:	18 01 00 00 6e 74 4d 69 00 00 00 00 6e 74 44 65	lddw r1, 7297085313808954478
    9217:	05 00 ab 00 00 00 00 00	ja +171 <custom_panic+0x70f0>
    9218:	bf a1 00 00 00 00 00 00	mov64 r1, r10
    9219:	07 01 00 00 c0 ff ff ff	add64 r1, -64
    9220:	b7 08 00 00 18 00 00 00	mov64 r8, 24
    9221:	b7 02 00 00 18 00 00 00	mov64 r2, 24
    9222:	85 10 00 00 7a f8 ff ff	call -1926
    9223:	79 a9 c8 ff 00 00 00 00	ldxdw r9, [r10 - 56]
    9224:	79 a7 c0 ff 00 00 00 00	ldxdw r7, [r10 - 64]
    9225:	18 01 00 00 52 65 61 6c 00 00 00 00 6c 6f 63 73	lddw r1, 8314611848521540946
    9227:	7b 17 10 00 00 00 00 00	stxdw [r7 + 16], r1
    9228:	18 01 00 00 75 70 6c 69 00 00 00 00 63 61 74 65	lddw r1, 7310575174727528565
    9230:	05 00 8e 00 00 00 00 00	ja +142 <custom_panic+0x7070>
    9231:	bf a1 00 00 00 00 00 00	mov64 r1, r10
    9232:	07 01 00 00 d0 fc ff ff	add64 r1, -816
    9233:	b7 08 00 00 10 00 00 00	mov64 r8, 16
    9234:	b7 02 00 00 10 00 00 00	mov64 r2, 16
    9235:	85 10 00 00 6d f8 ff ff	call -1939
    9236:	79 a9 d8 fc 00 00 00 00	ldxdw r9, [r10 - 808]
    9237:	79 a7 d0 fc 00 00 00 00	ldxdw r7, [r10 - 816]
    9238:	18 01 00 00 6e 74 48 61 00 00 00 00 73 4f 6e 65	lddw r1, 7308866602240865390
    9240:	05 00 94 00 00 00 00 00	ja +148 <custom_panic+0x70f0>
    9241:	bf a1 00 00 00 00 00 00	mov64 r1, r10
    9242:	07 01 00 00 b0 fe ff ff	add64 r1, -336
    9243:	b7 08 00 00 1e 00 00 00	mov64 r8, 30
    9244:	b7 02 00 00 1e 00 00 00	mov64 r2, 30
    9245:	85 10 00 00 63 f8 ff ff	call -1949
    9246:	79 a9 b8 fe 00 00 00 00	ldxdw r9, [r10 - 328]
    9247:	79 a7 b0 fe 00 00 00 00	ldxdw r7, [r10 - 336]
    9248:	18 01 00 00 72 65 61 64 00 00 00 00 79 53 65 74	lddw r1, 8387201661887669618
    9250:	7b 17 16 00 00 00 00 00	stxdw [r7 + 22], r1
    9251:	18 01 00 00 61 74 6f 72 00 00 00 00 41 6c 72 65	lddw r1, 7310024173524317281
    9253:	7b 17 10 00 00 00 00 00	stxdw [r7 + 16], r1
    9254:	18 01 00 00 69 73 63 72 00 00 00 00 69 6d 69 6e	lddw r1, 7956010516384805737
    9256:	05 00 74 00 00 00 00 00	ja +116 <custom_panic+0x7070>
    9257:	bf a1 00 00 00 00 00 00	mov64 r1, r10
    9258:	07 01 00 00 c0 fd ff ff	add64 r1, -576
    9259:	b7 08 00 00 1b 00 00 00	mov64 r8, 27
    9260:	b7 02 00 00 1b 00 00 00	mov64 r2, 27
    9261:	85 10 00 00 53 f8 ff ff	call -1965
    9262:	79 a9 c8 fd 00 00 00 00	ldxdw r9, [r10 - 568]
    9263:	79 a7 c0 fd 00 00 00 00	ldxdw r7, [r10 - 576]
    9264:	b7 01 00 00 72 69 74 79	mov64 r1, 2037672306
    9265:	63 17 17 00 00 00 00 00	stxw [r7 + 23], r1
    9266:	18 01 00 00 6e 74 41 75 00 00 00 00 74 68 6f 72	lddw r1, 8245924292131386478
    9268:	7b 17 10 00 00 00 00 00	stxdw [r7 + 16], r1
    9269:	18 01 00 00 6e 74 4d 69 00 00 00 00 6e 74 4d 69	lddw r1, 7587848964751062126
    9271:	05 00 75 00 00 00 00 00	ja +117 <custom_panic+0x70f0>
    9272:	bf a1 00 00 00 00 00 00	mov64 r1, r10
    9273:	07 01 00 00 a0 ff ff ff	add64 r1, -96
    9274:	b7 08 00 00 15 00 00 00	mov64 r8, 21
    9275:	b7 02 00 00 15 00 00 00	mov64 r2, 21
    9276:	85 10 00 00 44 f8 ff ff	call -1980
    9277:	79 a9 a8 ff 00 00 00 00	ldxdw r9, [r10 - 88]
    9278:	79 a7 a0 ff 00 00 00 00	ldxdw r7, [r10 - 96]
    9279:	18 01 00 00 4d 69 73 6d 00 00 00 00 61 74 63 68	lddw r1, 7521983764435790157
    9281:	7b 17 0d 00 00 00 00 00	stxdw [r7 + 13], r1
    9282:	18 01 00 00 79 73 76 61 00 00 00 00 72 4d 69 73	lddw r1, 8316263340573094777
    9284:	7b 17 08 00 00 00 00 00	stxdw [r7 + 8], r1
    9285:	18 01 00 00 41 63 63 6f 00 00 00 00 75 6e 74 53	lddw r1, 6013552853105468225
    9287:	05 00 68 00 00 00 00 00	ja +104 <custom_panic+0x7108>
    9288:	bf a1 00 00 00 00 00 00	mov64 r1, r10
    9289:	07 01 00 00 90 fc ff ff	add64 r1, -880
    9290:	b7 08 00 00 1c 00 00 00	mov64 r8, 28
    9291:	b7 02 00 00 1c 00 00 00	mov64 r2, 28
    9292:	85 10 00 00 34 f8 ff ff	call -1996
    9293:	79 a9 98 fc 00 00 00 00	ldxdw r9, [r10 - 872]
    9294:	79 a7 90 fc 00 00 00 00	ldxdw r7, [r10 - 880]
    9295:	b7 01 00 00 67 72 61 6d	mov64 r1, 1835102823
    9296:	63 17 18 00 00 00 00 00	stxw [r7 + 24], r1
    9297:	18 01 00 00 76 61 6c 69 00 00 00 00 64 50 72 6f	lddw r1, 8030569477750677878
    9299:	7b 17 10 00 00 00 00 00	stxdw [r7 + 16], r1
    9300:	18 01 00 00 75 63 74 69 00 00 00 00 6f 6e 49 6e	lddw r1, 7947004442261611381
    9302:	7b 17 08 00 00 00 00 00	stxdw [r7 + 8], r1
    9303:	18 01 00 00 49 64 6c 49 00 00 00 00 6e 73 74 72	lddw r1, 8247343735137657929
    9305:	05 00 56 00 00 00 00 00	ja +86 <custom_panic+0x7108>
    9306:	bf a1 00 00 00 00 00 00	mov64 r1, r10
    9307:	07 01 00 00 70 fe ff ff	add64 r1, -400
    9308:	b7 08 00 00 12 00 00 00	mov64 r8, 18
    9309:	b7 02 00 00 12 00 00 00	mov64 r2, 18
    9310:	85 10 00 00 22 f8 ff ff	call -2014
    9311:	79 a9 78 fe 00 00 00 00	ldxdw r9, [r10 - 392]
    9312:	79 a7 70 fe 00 00 00 00	ldxdw r7, [r10 - 400]
    9313:	b7 01 00 00 65 64 00 00	mov64 r1, 25701
    9314:	6b 17 10 00 00 00 00 00	stxh [r7 + 16], r1
    9315:	18 01 00 00 65 71 56 69 00 00 00 00 6f 6c 61 74	lddw r1, 8386103206905016677
    9317:	7b 17 08 00 00 00 00 00	stxdw [r7 + 8], r1
    9318:	18 01 00 00 52 65 71 75 00 00 00 00 69 72 65 4e	lddw r1, 5649047104873653586
    9320:	05 00 47 00 00 00 00 00	ja +71 <custom_panic+0x7108>
    9321:	bf a1 00 00 00 00 00 00	mov64 r1, r10
    9322:	07 01 00 00 80 fd ff ff	add64 r1, -640
    9323:	b7 08 00 00 11 00 00 00	mov64 r8, 17
    9324:	b7 02 00 00 11 00 00 00	mov64 r2, 17
    9325:	85 10 00 00 13 f8 ff ff	call -2029
    9326:	79 a9 88 fd 00 00 00 00	ldxdw r9, [r10 - 632]
    9327:	79 a7 80 fd 00 00 00 00	ldxdw r7, [r10 - 640]
    9328:	b7 01 00 00 73 00 00 00	mov64 r1, 115
    9329:	73 17 10 00 00 00 00 00	stxb [r7 + 16], r1
    9330:	18 01 00 00 6e 74 41 64 00 00 00 00 64 72 65 73	lddw r1, 8315178062513796206
    9332:	05 00 38 00 00 00 00 00	ja +56 <custom_panic+0x70f0>
    9333:	bf a1 00 00 00 00 00 00	mov64 r1, r10
    9334:	07 01 00 00 60 ff ff ff	add64 r1, -160
    9335:	b7 08 00 00 15 00 00 00	mov64 r8, 21
    9336:	b7 02 00 00 15 00 00 00	mov64 r2, 21
    9337:	85 10 00 00 07 f8 ff ff	call -2041
    9338:	79 a9 68 ff 00 00 00 00	ldxdw r9, [r10 - 152]
    9339:	79 a7 60 ff 00 00 00 00	ldxdw r7, [r10 - 160]
    9340:	18 01 00 00 74 65 6d 4f 00 00 00 00 77 6e 65 64	lddw r1, 7234309835153302900
    9342:	7b 17 0d 00 00 00 00 00	stxdw [r7 + 13], r1
    9343:	18 01 00 00 6f 74 53 79 00 00 00 00 73 74 65 6d	lddw r1, 7882834762087494767
    9345:	7b 17 08 00 00 00 00 00	stxdw [r7 + 8], r1
    9346:	18 01 00 00 41 63 63 6f 00 00 00 00 75 6e 74 4e	lddw r1, 5653264882915828545
    9348:	05 00 2b 00 00 00 00 00	ja +43 <custom_panic+0x7108>
    9349:	bf a1 00 00 00 00 00 00	mov64 r1, r10
    9350:	07 01 00 00 10 fd ff ff	add64 r1, -752
    9351:	b7 08 00 00 14 00 00 00	mov64 r8, 20
    9352:	b7 02 00 00 14 00 00 00	mov64 r2, 20
    9353:	85 10 00 00 f7 f7 ff ff	call -2057
    9354:	79 a9 18 fd 00 00 00 00	ldxdw r9, [r10 - 744]
    9355:	79 a7 10 fd 00 00 00 00	ldxdw r7, [r10 - 752]
    9356:	b7 01 00 00 65 6d 70 74	mov64 r1, 1953525093
    9357:	63 17 10 00 00 00 00 00	stxw [r7 + 16], r1
    9358:	18 01 00 00 6e 74 52 65 00 00 00 00 6e 74 45 78	lddw r1, 8666461075439514734
    9360:	05 00 1c 00 00 00 00 00	ja +28 <custom_panic+0x70f0>
    9361:	bf a1 00 00 00 00 00 00	mov64 r1, r10
    9362:	07 01 00 00 f0 fe ff ff	add64 r1, -272
    9363:	b7 08 00 00 16 00 00 00	mov64 r8, 22
    9364:	b7 02 00 00 16 00 00 00	mov64 r2, 22
    9365:	85 10 00 00 eb f7 ff ff	call -2069
    9366:	79 a9 f8 fe 00 00 00 00	ldxdw r9, [r10 - 264]
    9367:	79 a7 f0 fe 00 00 00 00	ldxdw r7, [r10 - 272]
    9368:	18 01 00 00 65 72 69 61 00 00 00 00 6c 69 7a 65	lddw r1, 7312272859201106533
    9370:	7b 17 0e 00 00 00 00 00	stxdw [r7 + 14], r1
    9371:	18 01 00 00 69 64 4e 6f 00 00 00 00 74 53 65 72	lddw r1, 8243086452520281193
    9373:	7b 17 08 00 00 00 00 00	stxdw [r7 + 8], r1
    9374:	18 01 00 00 41 63 63 6f 00 00 00 00 75 6e 74 44	lddw r1, 4932688942536549185
    9376:	05 00 0f 00 00 00 00 00	ja +15 <custom_panic+0x7108>
    9377:	bf a1 00 00 00 00 00 00	mov64 r1, r10
    9378:	07 01 00 00 00 fe ff ff	add64 r1, -512
    9379:	b7 08 00 00 17 00 00 00	mov64 r8, 23
    9380:	b7 02 00 00 17 00 00 00	mov64 r2, 23
    9381:	85 10 00 00 db f7 ff ff	call -2085
    9382:	79 a9 08 fe 00 00 00 00	ldxdw r9, [r10 - 504]
    9383:	79 a7 00 fe 00 00 00 00	ldxdw r7, [r10 - 512]
    9384:	18 01 00 00 6e 74 49 73 00 00 00 00 4e 6f 6e 65	lddw r1, 7308901628001219694
    9386:	7b 17 0f 00 00 00 00 00	stxdw [r7 + 15], r1
    9387:	18 01 00 00 6e 74 41 63 00 00 00 00 63 6f 75 6e	lddw r1, 7959390389104899182
    9389:	7b 17 08 00 00 00 00 00	stxdw [r7 + 8], r1
    9390:	18 01 00 00 43 6f 6e 73 00 00 00 00 74 72 61 69	lddw r1, 7593476291201756995
    9392:	7b 17 00 00 00 00 00 00	stxdw [r7 + 0], r1
    9393:	7b 86 10 00 00 00 00 00	stxdw [r6 + 16], r8
    9394:	7b 76 00 00 00 00 00 00	stxdw [r6 + 0], r7
    9395:	7b 96 08 00 00 00 00 00	stxdw [r6 + 8], r9
    9396:	95 00 00 00 00 00 00 00	exit
    9397:	bf a1 00 00 00 00 00 00	mov64 r1, r10
    9398:	07 01 00 00 e0 ff ff ff	add64 r1, -32
    9399:	b7 08 00 00 21 00 00 00	mov64 r8, 33
    9400:	b7 02 00 00 21 00 00 00	mov64 r2, 33
    9401:	85 10 00 00 c7 f7 ff ff	call -2105
    9402:	79 a9 e8 ff 00 00 00 00	ldxdw r9, [r10 - 24]
    9403:	79 a7 e0 ff 00 00 00 00	ldxdw r7, [r10 - 32]
    9404:	bf 71 00 00 00 00 00 00	mov64 r1, r7
    9405:	18 02 00 00 af 57 02 00 00 00 00 00 00 00 00 00	lddw r2, 153519
    9407:	b7 03 00 00 21 00 00 00	mov64 r3, 33
    9408:	85 10 00 00 d9 22 00 00	call 8921
    9409:	05 00 ef ff 00 00 00 00	ja -17 <custom_panic+0x7110>
    9410:	bf 27 00 00 00 00 00 00	mov64 r7, r2
    9411:	bf 16 00 00 00 00 00 00	mov64 r6, r1
    9412:	63 7a 84 ff 00 00 00 00	stxw [r10 - 124], r7
    9413:	bf a1 00 00 00 00 00 00	mov64 r1, r10
    9414:	07 01 00 00 88 ff ff ff	add64 r1, -120
    9415:	bf a8 00 00 00 00 00 00	mov64 r8, r10
    9416:	07 08 00 00 84 ff ff ff	add64 r8, -124
    9417:	bf 82 00 00 00 00 00 00	mov64 r2, r8
    9418:	85 10 00 00 97 fc ff ff	call -873
    9419:	b7 01 00 00 01 00 00 00	mov64 r1, 1
    9420:	7b 1a a0 ff 00 00 00 00	stxdw [r10 - 96], r1
    9421:	b7 01 00 00 00 00 00 00	mov64 r1, 0
    9422:	7b 1a a8 ff 00 00 00 00	stxdw [r10 - 88], r1
    9423:	7b 1a b0 ff 00 00 00 00	stxdw [r10 - 80], r1
    9424:	bf a9 00 00 00 00 00 00	mov64 r9, r10
    9425:	07 09 00 00 b8 ff ff ff	add64 r9, -72
    9426:	bf a2 00 00 00 00 00 00	mov64 r2, r10
    9427:	07 02 00 00 a0 ff ff ff	add64 r2, -96
    9428:	bf 91 00 00 00 00 00 00	mov64 r1, r9
    9429:	18 03 00 00 10 7c 02 00 00 00 00 00 00 00 00 00	lddw r3, 162832
    9431:	85 10 00 00 4d 17 00 00	call 5965
    9432:	bf 81 00 00 00 00 00 00	mov64 r1, r8
    9433:	bf 92 00 00 00 00 00 00	mov64 r2, r9
    9434:	85 10 00 00 1d 00 00 00	call 29
    9435:	15 00 0b 00 00 00 00 00	jeq r0, 0, +11 <custom_panic+0x72c0>
    9436:	bf a3 00 00 00 00 00 00	mov64 r3, r10
    9437:	07 03 00 00 f8 ff ff ff	add64 r3, -8
    9438:	18 01 00 00 4c 56 02 00 00 00 00 00 00 00 00 00	lddw r1, 153164
    9440:	b7 02 00 00 37 00 00 00	mov64 r2, 55
    9441:	18 04 00 00 40 7c 02 00 00 00 00 00 00 00 00 00	lddw r4, 162880
    9443:	18 05 00 00 60 7c 02 00 00 00 00 00 00 00 00 00	lddw r5, 162912
    9445:	85 10 00 00 af 14 00 00	call 5295
    9446:	85 10 00 00 ff ff ff ff	call -1
    9447:	79 a1 b0 ff 00 00 00 00	ldxdw r1, [r10 - 80]
    9448:	7b 16 90 00 00 00 00 00	stxdw [r6 + 144], r1
    9449:	79 a1 a8 ff 00 00 00 00	ldxdw r1, [r10 - 88]
    9450:	7b 16 88 00 00 00 00 00	stxdw [r6 + 136], r1
    9451:	79 a1 a0 ff 00 00 00 00	ldxdw r1, [r10 - 96]
    9452:	7b 16 80 00 00 00 00 00	stxdw [r6 + 128], r1
    9453:	79 a1 98 ff 00 00 00 00	ldxdw r1, [r10 - 104]
    9454:	7b 16 78 00 00 00 00 00	stxdw [r6 + 120], r1
    9455:	79 a1 90 ff 00 00 00 00	ldxdw r1, [r10 - 112]
    9456:	7b 16 70 00 00 00 00 00	stxdw [r6 + 112], r1
    9457:	79 a1 88 ff 00 00 00 00	ldxdw r1, [r10 - 120]
    9458:	7b 16 68 00 00 00 00 00	stxdw [r6 + 104], r1
    9459:	63 76 98 00 00 00 00 00	stxw [r6 + 152], r7
    9460:	b7 01 00 00 02 00 00 00	mov64 r1, 2
    9461:	73 16 20 00 00 00 00 00	stxb [r6 + 32], r1
    9462:	7b 16 00 00 00 00 00 00	stxdw [r6 + 0], r1
    9463:	95 00 00 00 00 00 00 00	exit
    9464:	61 11 00 00 00 00 00 00	ldxw r1, [r1 + 0]
    9465:	65 01 0a 00 e5 07 00 00	jsgt r1, 2021, +10 <custom_panic+0x73a8>
    9466:	65 01 13 00 d6 07 00 00	jsgt r1, 2006, +19 <custom_panic+0x73f8>
    9467:	65 01 24 00 db 05 00 00	jsgt r1, 1499, +36 <custom_panic+0x7488>
    9468:	65 01 43 00 66 00 00 00	jsgt r1, 102, +67 <custom_panic+0x7588>
    9469:	15 01 c2 00 64 00 00 00	jeq r1, 100, +194 <custom_panic+0x7988>
    9470:	15 01 c6 00 65 00 00 00	jeq r1, 101, +198 <custom_panic+0x79b0>
    9471:	b7 01 00 00 01 00 00 00	mov64 r1, 1
    9472:	7b 1a d8 ff 00 00 00 00	stxdw [r10 - 40], r1
    9473:	18 01 00 00 c8 7e 02 00 00 00 00 00 00 00 00 00	lddw r1, 163528
    9475:	05 00 5b 01 00 00 00 00	ja +347 <custom_panic+0x7e80>
    9476:	65 01 12 00 bd 0b 00 00	jsgt r1, 3005, +18 <custom_panic+0x7440>
    9477:	65 01 22 00 c8 09 00 00	jsgt r1, 2504, +34 <custom_panic+0x74c8>
    9478:	65 01 40 00 c4 09 00 00	jsgt r1, 2500, +64 <custom_panic+0x75c0>
    9479:	15 01 c2 00 e6 07 00 00	jeq r1, 2022, +194 <custom_panic+0x79d8>
    9480:	15 01 c6 00 e7 07 00 00	jeq r1, 2023, +198 <custom_panic+0x7a00>
    9481:	b7 01 00 00 01 00 00 00	mov64 r1, 1
    9482:	7b 1a d8 ff 00 00 00 00	stxdw [r10 - 40], r1
    9483:	18 01 00 00 a8 80 02 00 00 00 00 00 00 00 00 00	lddw r1, 164008
    9485:	05 00 51 01 00 00 00 00	ja +337 <custom_panic+0x7e80>
    9486:	65 01 21 00 dd 07 00 00	jsgt r1, 2013, +33 <custom_panic+0x7508>
    9487:	65 01 3e 00 d9 07 00 00	jsgt r1, 2009, +62 <custom_panic+0x75f8>
    9488:	15 01 c3 00 d7 07 00 00	jeq r1, 2007, +195 <custom_panic+0x7a28>
    9489:	15 01 c7 00 d8 07 00 00	jeq r1, 2008, +199 <custom_panic+0x7a50>
    9490:	b7 01 00 00 01 00 00 00	mov64 r1, 1
    9491:	7b 1a d8 ff 00 00 00 00	stxdw [r10 - 40], r1
    9492:	18 01 00 00 b8 7f 02 00 00 00 00 00 00 00 00 00	lddw r1, 163768
    9494:	05 00 48 01 00 00 00 00	ja +328 <custom_panic+0x7e80>
    9495:	65 01 20 00 c4 0b 00 00	jsgt r1, 3012, +32 <custom_panic+0x7548>
    9496:	65 01 3c 00 c0 0b 00 00	jsgt r1, 3008, +60 <custom_panic+0x7630>
    9497:	15 01 c4 00 be 0b 00 00	jeq r1, 3006, +196 <custom_panic+0x7a78>
    9498:	15 01 c8 00 bf 0b 00 00	jeq r1, 3007, +200 <custom_panic+0x7aa0>
    9499:	b7 01 00 00 01 00 00 00	mov64 r1, 1
    9500:	7b 1a d8 ff 00 00 00 00	stxdw [r10 - 40], r1
    9501:	18 01 00 00 98 81 02 00 00 00 00 00 00 00 00 00	lddw r1, 164248
    9503:	05 00 3f 01 00 00 00 00	ja +319 <custom_panic+0x7e80>
    9504:	65 01 3b 00 d2 07 00 00	jsgt r1, 2002, +59 <custom_panic+0x7668>
    9505:	65 01 56 00 d0 07 00 00	jsgt r1, 2000, +86 <custom_panic+0x7748>
    9506:	15 01 c5 00 dc 05 00 00	jeq r1, 1500, +197 <custom_panic+0x7ac8>
    9507:	b7 01 00 00 01 00 00 00	mov64 r1, 1
    9508:	7b 1a d8 ff 00 00 00 00	stxdw [r10 - 40], r1
    9509:	18 01 00 00 28 7f 02 00 00 00 00 00 00 00 00 00	lddw r1, 163624
    9511:	05 00 37 01 00 00 00 00	ja +311 <custom_panic+0x7e80>
    9512:	65 01 3a 00 b9 0b 00 00	jsgt r1, 3001, +58 <custom_panic+0x76a0>
    9513:	65 01 54 00 b7 0b 00 00	jsgt r1, 2999, +84 <custom_panic+0x7778>
    9514:	15 01 c2 00 c9 09 00 00	jeq r1, 2505, +194 <custom_panic+0x7af0>
    9515:	b7 01 00 00 01 00 00 00	mov64 r1, 1
    9516:	7b 1a d8 ff 00 00 00 00	stxdw [r10 - 40], r1
    9517:	18 01 00 00 08 81 02 00 00 00 00 00 00 00 00 00	lddw r1, 164104
    9519:	05 00 2f 01 00 00 00 00	ja +303 <custom_panic+0x7e80>
    9520:	65 01 39 00 e1 07 00 00	jsgt r1, 2017, +57 <custom_panic+0x76d8>
    9521:	65 01 52 00 df 07 00 00	jsgt r1, 2015, +82 <custom_panic+0x77a8>
    9522:	15 01 bf 00 de 07 00 00	jeq r1, 2014, +191 <custom_panic+0x7b18>
    9523:	b7 01 00 00 01 00 00 00	mov64 r1, 1
    9524:	7b 1a d8 ff 00 00 00 00	stxdw [r10 - 40], r1
    9525:	18 01 00 00 18 80 02 00 00 00 00 00 00 00 00 00	lddw r1, 163864
    9527:	05 00 27 01 00 00 00 00	ja +295 <custom_panic+0x7e80>
    9528:	65 01 38 00 c8 0b 00 00	jsgt r1, 3016, +56 <custom_panic+0x7710>
    9529:	65 01 50 00 c6 0b 00 00	jsgt r1, 3014, +80 <custom_panic+0x77d8>
    9530:	15 01 bc 00 c5 0b 00 00	jeq r1, 3013, +188 <custom_panic+0x7b40>
    9531:	b7 01 00 00 01 00 00 00	mov64 r1, 1
    9532:	7b 1a d8 ff 00 00 00 00	stxdw [r10 - 40], r1
    9533:	18 01 00 00 f8 81 02 00 00 00 00 00 00 00 00 00	lddw r1, 164344
    9535:	05 00 1f 01 00 00 00 00	ja +287 <custom_panic+0x7e80>
    9536:	65 01 4f 00 e8 03 00 00	jsgt r1, 1000, +79 <custom_panic+0x7808>
    9537:	15 01 ba 00 67 00 00 00	jeq r1, 103, +186 <custom_panic+0x7b68>
    9538:	b7 01 00 00 01 00 00 00	mov64 r1, 1
    9539:	7b 1a d8 ff 00 00 00 00	stxdw [r10 - 40], r1
    9540:	18 01 00 00 e8 7e 02 00 00 00 00 00 00 00 00 00	lddw r1, 163560
    9542:	05 00 18 01 00 00 00 00	ja +280 <custom_panic+0x7e80>
    9543:	65 01 4e 00 c6 09 00 00	jsgt r1, 2502, +78 <custom_panic+0x7838>
    9544:	15 01 b8 00 c5 09 00 00	jeq r1, 2501, +184 <custom_panic+0x7b90>
    9545:	b7 01 00 00 01 00 00 00	mov64 r1, 1
    9546:	7b 1a d8 ff 00 00 00 00	stxdw [r10 - 40], r1
    9547:	18 01 00 00 c8 80 02 00 00 00 00 00 00 00 00 00	lddw r1, 164040
    9549:	05 00 11 01 00 00 00 00	ja +273 <custom_panic+0x7e80>
    9550:	65 01 4d 00 db 07 00 00	jsgt r1, 2011, +77 <custom_panic+0x7868>
    9551:	15 01 b6 00 da 07 00 00	jeq r1, 2010, +182 <custom_panic+0x7bb8>
    9552:	b7 01 00 00 01 00 00 00	mov64 r1, 1
    9553:	7b 1a d8 ff 00 00 00 00	stxdw [r10 - 40], r1
    9554:	18 01 00 00 d8 7f 02 00 00 00 00 00 00 00 00 00	lddw r1, 163800
    9556:	05 00 0a 01 00 00 00 00	ja +266 <custom_panic+0x7e80>
    9557:	65 01 4c 00 c2 0b 00 00	jsgt r1, 3010, +76 <custom_panic+0x7898>
    9558:	15 01 b4 00 c1 0b 00 00	jeq r1, 3009, +180 <custom_panic+0x7be0>
    9559:	b7 01 00 00 01 00 00 00	mov64 r1, 1
    9560:	7b 1a d8 ff 00 00 00 00	stxdw [r10 - 40], r1
    9561:	18 01 00 00 b8 81 02 00 00 00 00 00 00 00 00 00	lddw r1, 164280
    9563:	05 00 03 01 00 00 00 00	ja +259 <custom_panic+0x7e80>
    9564:	65 01 4b 00 d4 07 00 00	jsgt r1, 2004, +75 <custom_panic+0x78c8>
    9565:	15 01 b2 00 d3 07 00 00	jeq r1, 2003, +178 <custom_panic+0x7c08>
    9566:	b7 01 00 00 01 00 00 00	mov64 r1, 1
    9567:	7b 1a d8 ff 00 00 00 00	stxdw [r10 - 40], r1
    9568:	18 01 00 00 68 7f 02 00 00 00 00 00 00 00 00 00	lddw r1, 163688
    9570:	05 00 fc 00 00 00 00 00	ja +252 <custom_panic+0x7e80>
    9571:	65 01 4a 00 bb 0b 00 00	jsgt r1, 3003, +74 <custom_panic+0x78f8>
    9572:	15 01 b0 00 ba 0b 00 00	jeq r1, 3002, +176 <custom_panic+0x7c30>
    9573:	b7 01 00 00 01 00 00 00	mov64 r1, 1
    9574:	7b 1a d8 ff 00 00 00 00	stxdw [r10 - 40], r1
    9575:	18 01 00 00 48 81 02 00 00 00 00 00 00 00 00 00	lddw r1, 164168
    9577:	05 00 f5 00 00 00 00 00	ja +245 <custom_panic+0x7e80>
    9578:	65 01 49 00 e3 07 00 00	jsgt r1, 2019, +73 <custom_panic+0x7928>
    9579:	15 01 ae 00 e2 07 00 00	jeq r1, 2018, +174 <custom_panic+0x7c58>
    9580:	b7 01 00 00 01 00 00 00	mov64 r1, 1
    9581:	7b 1a d8 ff 00 00 00 00	stxdw [r10 - 40], r1
    9582:	18 01 00 00 58 80 02 00 00 00 00 00 00 00 00 00	lddw r1, 163928
    9584:	05 00 ee 00 00 00 00 00	ja +238 <custom_panic+0x7e80>
    9585:	65 01 48 00 04 10 00 00	jsgt r1, 4100, +72 <custom_panic+0x7958>
    9586:	15 01 ac 00 c9 0b 00 00	jeq r1, 3017, +172 <custom_panic+0x7c80>
    9587:	b7 01 00 00 01 00 00 00	mov64 r1, 1
    9588:	7b 1a d8 ff 00 00 00 00	stxdw [r10 - 40], r1
    9589:	18 01 00 00 38 82 02 00 00 00 00 00 00 00 00 00	lddw r1, 164408
    9591:	05 00 e7 00 00 00 00 00	ja +231 <custom_panic+0x7e80>
    9592:	15 01 ab 00 d1 07 00 00	jeq r1, 2001, +171 <custom_panic+0x7ca8>
    9593:	b7 01 00 00 01 00 00 00	mov64 r1, 1
    9594:	7b 1a d8 ff 00 00 00 00	stxdw [r10 - 40], r1
    9595:	18 01 00 00 48 7f 02 00 00 00 00 00 00 00 00 00	lddw r1, 163656
    9597:	05 00 e1 00 00 00 00 00	ja +225 <custom_panic+0x7e80>
    9598:	15 01 aa 00 b8 0b 00 00	jeq r1, 3000, +170 <custom_panic+0x7cd0>
    9599:	b7 01 00 00 01 00 00 00	mov64 r1, 1
    9600:	7b 1a d8 ff 00 00 00 00	stxdw [r10 - 40], r1
    9601:	18 01 00 00 28 81 02 00 00 00 00 00 00 00 00 00	lddw r1, 164136
    9603:	05 00 db 00 00 00 00 00	ja +219 <custom_panic+0x7e80>
    9604:	15 01 a9 00 e0 07 00 00	jeq r1, 2016, +169 <custom_panic+0x7cf8>
    9605:	b7 01 00 00 01 00 00 00	mov64 r1, 1
    9606:	7b 1a d8 ff 00 00 00 00	stxdw [r10 - 40], r1
    9607:	18 01 00 00 38 80 02 00 00 00 00 00 00 00 00 00	lddw r1, 163896
    9609:	05 00 d5 00 00 00 00 00	ja +213 <custom_panic+0x7e80>
    9610:	15 01 a8 00 c7 0b 00 00	jeq r1, 3015, +168 <custom_panic+0x7d20>
    9611:	b7 01 00 00 01 00 00 00	mov64 r1, 1
    9612:	7b 1a d8 ff 00 00 00 00	stxdw [r10 - 40], r1
    9613:	18 01 00 00 18 82 02 00 00 00 00 00 00 00 00 00	lddw r1, 164376
    9615:	05 00 cf 00 00 00 00 00	ja +207 <custom_panic+0x7e80>
    9616:	15 01 a7 00 e9 03 00 00	jeq r1, 1001, +167 <custom_panic+0x7d48>
    9617:	b7 01 00 00 01 00 00 00	mov64 r1, 1
    9618:	7b 1a d8 ff 00 00 00 00	stxdw [r10 - 40], r1
    9619:	18 01 00 00 08 7f 02 00 00 00 00 00 00 00 00 00	lddw r1, 163592
    9621:	05 00 c9 00 00 00 00 00	ja +201 <custom_panic+0x7e80>
    9622:	15 01 a6 00 c7 09 00 00	jeq r1, 2503, +166 <custom_panic+0x7d70>
    9623:	b7 01 00 00 01 00 00 00	mov64 r1, 1
    9624:	7b 1a d8 ff 00 00 00 00	stxdw [r10 - 40], r1
    9625:	18 01 00 00 e8 80 02 00 00 00 00 00 00 00 00 00	lddw r1, 164072
    9627:	05 00 c3 00 00 00 00 00	ja +195 <custom_panic+0x7e80>
    9628:	15 01 a5 00 dc 07 00 00	jeq r1, 2012, +165 <custom_panic+0x7d98>
    9629:	b7 01 00 00 01 00 00 00	mov64 r1, 1
    9630:	7b 1a d8 ff 00 00 00 00	stxdw [r10 - 40], r1
    9631:	18 01 00 00 f8 7f 02 00 00 00 00 00 00 00 00 00	lddw r1, 163832
    9633:	05 00 bd 00 00 00 00 00	ja +189 <custom_panic+0x7e80>
    9634:	15 01 a4 00 c3 0b 00 00	jeq r1, 3011, +164 <custom_panic+0x7dc0>
    9635:	b7 01 00 00 01 00 00 00	mov64 r1, 1
    9636:	7b 1a d8 ff 00 00 00 00	stxdw [r10 - 40], r1
    9637:	18 01 00 00 d8 81 02 00 00 00 00 00 00 00 00 00	lddw r1, 164312
    9639:	05 00 b7 00 00 00 00 00	ja +183 <custom_panic+0x7e80>
    9640:	15 01 a3 00 d5 07 00 00	jeq r1, 2005, +163 <custom_panic+0x7de8>
    9641:	b7 01 00 00 01 00 00 00	mov64 r1, 1
    9642:	7b 1a d8 ff 00 00 00 00	stxdw [r10 - 40], r1
    9643:	18 01 00 00 88 7f 02 00 00 00 00 00 00 00 00 00	lddw r1, 163720
    9645:	05 00 b1 00 00 00 00 00	ja +177 <custom_panic+0x7e80>
    9646:	15 01 a2 00 bc 0b 00 00	jeq r1, 3004, +162 <custom_panic+0x7e10>
    9647:	b7 01 00 00 01 00 00 00	mov64 r1, 1
    9648:	7b 1a d8 ff 00 00 00 00	stxdw [r10 - 40], r1
    9649:	18 01 00 00 68 81 02 00 00 00 00 00 00 00 00 00	lddw r1, 164200
    9651:	05 00 ab 00 00 00 00 00	ja +171 <custom_panic+0x7e80>
    9652:	15 01 a1 00 e4 07 00 00	jeq r1, 2020, +161 <custom_panic+0x7e38>
    9653:	b7 01 00 00 01 00 00 00	mov64 r1, 1
    9654:	7b 1a d8 ff 00 00 00 00	stxdw [r10 - 40], r1
    9655:	18 01 00 00 78 80 02 00 00 00 00 00 00 00 00 00	lddw r1, 163960
    9657:	05 00 a5 00 00 00 00 00	ja +165 <custom_panic+0x7e80>
    9658:	15 01 a0 00 05 10 00 00	jeq r1, 4101, +160 <custom_panic+0x7e60>
    9659:	b7 01 00 00 01 00 00 00	mov64 r1, 1
    9660:	7b 1a d8 ff 00 00 00 00	stxdw [r10 - 40], r1
    9661:	18 01 00 00 58 82 02 00 00 00 00 00 00 00 00 00	lddw r1, 164440
    9663:	05 00 9f 00 00 00 00 00	ja +159 <custom_panic+0x7e80>
    9664:	b7 01 00 00 01 00 00 00	mov64 r1, 1
    9665:	7b 1a d8 ff 00 00 00 00	stxdw [r10 - 40], r1
    9666:	18 01 00 00 a8 7e 02 00 00 00 00 00 00 00 00 00	lddw r1, 163496
    9668:	05 00 9a 00 00 00 00 00	ja +154 <custom_panic+0x7e80>
    9669:	b7 01 00 00 01 00 00 00	mov64 r1, 1
    9670:	7b 1a d8 ff 00 00 00 00	stxdw [r10 - 40], r1
    9671:	18 01 00 00 b8 7e 02 00 00 00 00 00 00 00 00 00	lddw r1, 163512
    9673:	05 00 95 00 00 00 00 00	ja +149 <custom_panic+0x7e80>
    9674:	b7 01 00 00 01 00 00 00	mov64 r1, 1
    9675:	7b 1a d8 ff 00 00 00 00	stxdw [r10 - 40], r1
    9676:	18 01 00 00 88 80 02 00 00 00 00 00 00 00 00 00	lddw r1, 163976
    9678:	05 00 90 00 00 00 00 00	ja +144 <custom_panic+0x7e80>
    9679:	b7 01 00 00 01 00 00 00	mov64 r1, 1
    9680:	7b 1a d8 ff 00 00 00 00	stxdw [r10 - 40], r1
    9681:	18 01 00 00 98 80 02 00 00 00 00 00 00 00 00 00	lddw r1, 163992
    9683:	05 00 8b 00 00 00 00 00	ja +139 <custom_panic+0x7e80>
    9684:	b7 01 00 00 01 00 00 00	mov64 r1, 1
    9685:	7b 1a d8 ff 00 00 00 00	stxdw [r10 - 40], r1
    9686:	18 01 00 00 98 7f 02 00 00 00 00 00 00 00 00 00	lddw r1, 163736
    9688:	05 00 86 00 00 00 00 00	ja +134 <custom_panic+0x7e80>
    9689:	b7 01 00 00 01 00 00 00	mov64 r1, 1
    9690:	7b 1a d8 ff 00 00 00 00	stxdw [r10 - 40], r1
    9691:	18 01 00 00 a8 7f 02 00 00 00 00 00 00 00 00 00	lddw r1, 163752
    9693:	05 00 81 00 00 00 00 00	ja +129 <custom_panic+0x7e80>
    9694:	b7 01 00 00 01 00 00 00	mov64 r1, 1
    9695:	7b 1a d8 ff 00 00 00 00	stxdw [r10 - 40], r1
    9696:	18 01 00 00 78 81 02 00 00 00 00 00 00 00 00 00	lddw r1, 164216
    9698:	05 00 7c 00 00 00 00 00	ja +124 <custom_panic+0x7e80>
    9699:	b7 01 00 00 01 00 00 00	mov64 r1, 1
    9700:	7b 1a d8 ff 00 00 00 00	stxdw [r10 - 40], r1
    9701:	18 01 00 00 88 81 02 00 00 00 00 00 00 00 00 00	lddw r1, 164232
    9703:	05 00 77 00 00 00 00 00	ja +119 <custom_panic+0x7e80>
    9704:	b7 01 00 00 01 00 00 00	mov64 r1, 1
    9705:	7b 1a d8 ff 00 00 00 00	stxdw [r10 - 40], r1
    9706:	18 01 00 00 18 7f 02 00 00 00 00 00 00 00 00 00	lddw r1, 163608
    9708:	05 00 72 00 00 00 00 00	ja +114 <custom_panic+0x7e80>
    9709:	b7 01 00 00 01 00 00 00	mov64 r1, 1
    9710:	7b 1a d8 ff 00 00 00 00	stxdw [r10 - 40], r1
    9711:	18 01 00 00 f8 80 02 00 00 00 00 00 00 00 00 00	lddw r1, 164088
    9713:	05 00 6d 00 00 00 00 00	ja +109 <custom_panic+0x7e80>
    9714:	b7 01 00 00 01 00 00 00	mov64 r1, 1
    9715:	7b 1a d8 ff 00 00 00 00	stxdw [r10 - 40], r1
    9716:	18 01 00 00 08 80 02 00 00 00 00 00 00 00 00 00	lddw r1, 163848
    9718:	05 00 68 00 00 00 00 00	ja +104 <custom_panic+0x7e80>
    9719:	b7 01 00 00 01 00 00 00	mov64 r1, 1
    9720:	7b 1a d8 ff 00 00 00 00	stxdw [r10 - 40], r1
    9721:	18 01 00 00 e8 81 02 00 00 00 00 00 00 00 00 00	lddw r1, 164328
    9723:	05 00 63 00 00 00 00 00	ja +99 <custom_panic+0x7e80>
    9724:	b7 01 00 00 01 00 00 00	mov64 r1, 1
    9725:	7b 1a d8 ff 00 00 00 00	stxdw [r10 - 40], r1
    9726:	18 01 00 00 d8 7e 02 00 00 00 00 00 00 00 00 00	lddw r1, 163544
    9728:	05 00 5e 00 00 00 00 00	ja +94 <custom_panic+0x7e80>
    9729:	b7 01 00 00 01 00 00 00	mov64 r1, 1
    9730:	7b 1a d8 ff 00 00 00 00	stxdw [r10 - 40], r1
    9731:	18 01 00 00 b8 80 02 00 00 00 00 00 00 00 00 00	lddw r1, 164024
    9733:	05 00 59 00 00 00 00 00	ja +89 <custom_panic+0x7e80>
    9734:	b7 01 00 00 01 00 00 00	mov64 r1, 1
    9735:	7b 1a d8 ff 00 00 00 00	stxdw [r10 - 40], r1
    9736:	18 01 00 00 c8 7f 02 00 00 00 00 00 00 00 00 00	lddw r1, 163784
    9738:	05 00 54 00 00 00 00 00	ja +84 <custom_panic+0x7e80>
    9739:	b7 01 00 00 01 00 00 00	mov64 r1, 1
    9740:	7b 1a d8 ff 00 00 00 00	stxdw [r10 - 40], r1
    9741:	18 01 00 00 a8 81 02 00 00 00 00 00 00 00 00 00	lddw r1, 164264
    9743:	05 00 4f 00 00 00 00 00	ja +79 <custom_panic+0x7e80>
    9744:	b7 01 00 00 01 00 00 00	mov64 r1, 1
    9745:	7b 1a d8 ff 00 00 00 00	stxdw [r10 - 40], r1
    9746:	18 01 00 00 58 7f 02 00 00 00 00 00 00 00 00 00	lddw r1, 163672
    9748:	05 00 4a 00 00 00 00 00	ja +74 <custom_panic+0x7e80>
    9749:	b7 01 00 00 01 00 00 00	mov64 r1, 1
    9750:	7b 1a d8 ff 00 00 00 00	stxdw [r10 - 40], r1
    9751:	18 01 00 00 38 81 02 00 00 00 00 00 00 00 00 00	lddw r1, 164152
    9753:	05 00 45 00 00 00 00 00	ja +69 <custom_panic+0x7e80>
    9754:	b7 01 00 00 01 00 00 00	mov64 r1, 1
    9755:	7b 1a d8 ff 00 00 00 00	stxdw [r10 - 40], r1
    9756:	18 01 00 00 48 80 02 00 00 00 00 00 00 00 00 00	lddw r1, 163912
    9758:	05 00 40 00 00 00 00 00	ja +64 <custom_panic+0x7e80>
    9759:	b7 01 00 00 01 00 00 00	mov64 r1, 1
    9760:	7b 1a d8 ff 00 00 00 00	stxdw [r10 - 40], r1
    9761:	18 01 00 00 28 82 02 00 00 00 00 00 00 00 00 00	lddw r1, 164392
    9763:	05 00 3b 00 00 00 00 00	ja +59 <custom_panic+0x7e80>
    9764:	b7 01 00 00 01 00 00 00	mov64 r1, 1
    9765:	7b 1a d8 ff 00 00 00 00	stxdw [r10 - 40], r1
    9766:	18 01 00 00 38 7f 02 00 00 00 00 00 00 00 00 00	lddw r1, 163640
    9768:	05 00 36 00 00 00 00 00	ja +54 <custom_panic+0x7e80>
    9769:	b7 01 00 00 01 00 00 00	mov64 r1, 1
    9770:	7b 1a d8 ff 00 00 00 00	stxdw [r10 - 40], r1
    9771:	18 01 00 00 18 81 02 00 00 00 00 00 00 00 00 00	lddw r1, 164120
    9773:	05 00 31 00 00 00 00 00	ja +49 <custom_panic+0x7e80>
    9774:	b7 01 00 00 01 00 00 00	mov64 r1, 1
    9775:	7b 1a d8 ff 00 00 00 00	stxdw [r10 - 40], r1
    9776:	18 01 00 00 28 80 02 00 00 00 00 00 00 00 00 00	lddw r1, 163880
    9778:	05 00 2c 00 00 00 00 00	ja +44 <custom_panic+0x7e80>
    9779:	b7 01 00 00 01 00 00 00	mov64 r1, 1
    9780:	7b 1a d8 ff 00 00 00 00	stxdw [r10 - 40], r1
    9781:	18 01 00 00 08 82 02 00 00 00 00 00 00 00 00 00	lddw r1, 164360
    9783:	05 00 27 00 00 00 00 00	ja +39 <custom_panic+0x7e80>
    9784:	b7 01 00 00 01 00 00 00	mov64 r1, 1
    9785:	7b 1a d8 ff 00 00 00 00	stxdw [r10 - 40], r1
    9786:	18 01 00 00 f8 7e 02 00 00 00 00 00 00 00 00 00	lddw r1, 163576
    9788:	05 00 22 00 00 00 00 00	ja +34 <custom_panic+0x7e80>
    9789:	b7 01 00 00 01 00 00 00	mov64 r1, 1
    9790:	7b 1a d8 ff 00 00 00 00	stxdw [r10 - 40], r1
    9791:	18 01 00 00 d8 80 02 00 00 00 00 00 00 00 00 00	lddw r1, 164056
    9793:	05 00 1d 00 00 00 00 00	ja +29 <custom_panic+0x7e80>
    9794:	b7 01 00 00 01 00 00 00	mov64 r1, 1
    9795:	7b 1a d8 ff 00 00 00 00	stxdw [r10 - 40], r1
    9796:	18 01 00 00 e8 7f 02 00 00 00 00 00 00 00 00 00	lddw r1, 163816
    9798:	05 00 18 00 00 00 00 00	ja +24 <custom_panic+0x7e80>
    9799:	b7 01 00 00 01 00 00 00	mov64 r1, 1
    9800:	7b 1a d8 ff 00 00 00 00	stxdw [r10 - 40], r1
    9801:	18 01 00 00 c8 81 02 00 00 00 00 00 00 00 00 00	lddw r1, 164296
    9803:	05 00 13 00 00 00 00 00	ja +19 <custom_panic+0x7e80>
    9804:	b7 01 00 00 01 00 00 00	mov64 r1, 1
    9805:	7b 1a d8 ff 00 00 00 00	stxdw [r10 - 40], r1
    9806:	18 01 00 00 78 7f 02 00 00 00 00 00 00 00 00 00	lddw r1, 163704
    9808:	05 00 0e 00 00 00 00 00	ja +14 <custom_panic+0x7e80>
    9809:	b7 01 00 00 01 00 00 00	mov64 r1, 1
    9810:	7b 1a d8 ff 00 00 00 00	stxdw [r10 - 40], r1
    9811:	18 01 00 00 58 81 02 00 00 00 00 00 00 00 00 00	lddw r1, 164184
    9813:	05 00 09 00 00 00 00 00	ja +9 <custom_panic+0x7e80>
    9814:	b7 01 00 00 01 00 00 00	mov64 r1, 1
    9815:	7b 1a d8 ff 00 00 00 00	stxdw [r10 - 40], r1
    9816:	18 01 00 00 68 80 02 00 00 00 00 00 00 00 00 00	lddw r1, 163944
    9818:	05 00 04 00 00 00 00 00	ja +4 <custom_panic+0x7e80>
    9819:	b7 01 00 00 01 00 00 00	mov64 r1, 1
    9820:	7b 1a d8 ff 00 00 00 00	stxdw [r10 - 40], r1
    9821:	18 01 00 00 48 82 02 00 00 00 00 00 00 00 00 00	lddw r1, 164424
    9823:	7b 1a d0 ff 00 00 00 00	stxdw [r10 - 48], r1
    9824:	b7 01 00 00 00 00 00 00	mov64 r1, 0
    9825:	7b 1a f0 ff 00 00 00 00	stxdw [r10 - 16], r1
    9826:	7b 1a e8 ff 00 00 00 00	stxdw [r10 - 24], r1
    9827:	18 01 00 00 c0 56 02 00 00 00 00 00 00 00 00 00	lddw r1, 153280
    9829:	7b 1a e0 ff 00 00 00 00	stxdw [r10 - 32], r1
    9830:	bf a3 00 00 00 00 00 00	mov64 r3, r10
    9831:	07 03 00 00 d0 ff ff ff	add64 r3, -48
    9832:	bf 21 00 00 00 00 00 00	mov64 r1, r2
    9833:	bf 32 00 00 00 00 00 00	mov64 r2, r3
    9834:	85 10 00 00 e3 17 00 00	call 6115
    9835:	95 00 00 00 00 00 00 00	exit
    9836:	bf 26 00 00 00 00 00 00	mov64 r6, r2
    9837:	79 17 00 00 00 00 00 00	ldxdw r7, [r1 + 0]
    9838:	bf 61 00 00 00 00 00 00	mov64 r1, r6
    9839:	85 10 00 00 ea 17 00 00	call 6122
    9840:	55 00 08 00 00 00 00 00	jne r0, 0, +8 <custom_panic+0x7f50>
    9841:	bf 61 00 00 00 00 00 00	mov64 r1, r6
    9842:	85 10 00 00 eb 17 00 00	call 6123
    9843:	55 00 01 00 00 00 00 00	jne r0, 0, +1 <custom_panic+0x7f30>
    9844:	05 00 08 00 00 00 00 00	ja +8 <custom_panic+0x7f70>
    9845:	bf 71 00 00 00 00 00 00	mov64 r1, r7
    9846:	bf 62 00 00 00 00 00 00	mov64 r2, r6
    9847:	85 10 00 00 67 1e 00 00	call 7783
    9848:	05 00 07 00 00 00 00 00	ja +7 <custom_panic+0x7f88>
    9849:	bf 71 00 00 00 00 00 00	mov64 r1, r7
    9850:	bf 62 00 00 00 00 00 00	mov64 r2, r6
    9851:	85 10 00 00 33 1e 00 00	call 7731
    9852:	05 00 03 00 00 00 00 00	ja +3 <custom_panic+0x7f88>
    9853:	bf 71 00 00 00 00 00 00	mov64 r1, r7
    9854:	bf 62 00 00 00 00 00 00	mov64 r2, r6
    9855:	85 10 00 00 00 20 00 00	call 8192
    9856:	95 00 00 00 00 00 00 00	exit
    9857:	bf 23 00 00 00 00 00 00	mov64 r3, r2
    9858:	79 11 00 00 00 00 00 00	ldxdw r1, [r1 + 0]
    9859:	79 12 10 00 00 00 00 00	ldxdw r2, [r1 + 16]
    9860:	79 11 00 00 00 00 00 00	ldxdw r1, [r1 + 0]
    9861:	85 10 00 00 6b 18 00 00	call 6251
    9862:	95 00 00 00 00 00 00 00	exit
    9863:	bf 23 00 00 00 00 00 00	mov64 r3, r2
    9864:	79 11 00 00 00 00 00 00	ldxdw r1, [r1 + 0]
    9865:	79 12 10 00 00 00 00 00	ldxdw r2, [r1 + 16]
    9866:	79 11 00 00 00 00 00 00	ldxdw r1, [r1 + 0]
    9867:	85 10 00 00 57 19 00 00	call 6487
    9868:	95 00 00 00 00 00 00 00	exit
    9869:	79 11 00 00 00 00 00 00	ldxdw r1, [r1 + 0]
    9870:	85 10 00 00 20 1e 00 00	call 7712
    9871:	95 00 00 00 00 00 00 00	exit
    9872:	95 00 00 00 00 00 00 00	exit
    9873:	95 00 00 00 00 00 00 00	exit
    9874:	71 12 00 00 00 00 00 00	ldxb r2, [r1 + 0]
    9875:	bf 23 00 00 00 00 00 00	mov64 r3, r2
    9876:	07 03 00 00 ff ff ff ff	add64 r3, -1
    9877:	b7 04 00 00 07 00 00 00	mov64 r4, 7
    9878:	2d 34 1d 00 00 00 00 00	jgt r4, r3, +29 <custom_panic+0x8128>
    9879:	15 02 05 00 00 00 00 00	jeq r2, 0, +5 <custom_panic+0x8070>
    9880:	79 12 10 00 00 00 00 00	ldxdw r2, [r1 + 16]
    9881:	15 02 1a 00 00 00 00 00	jeq r2, 0, +26 <custom_panic+0x8128>
    9882:	79 11 08 00 00 00 00 00	ldxdw r1, [r1 + 8]
    9883:	b7 03 00 00 01 00 00 00	mov64 r3, 1
    9884:	05 00 16 00 00 00 00 00	ja +22 <custom_panic+0x8120>
    9885:	79 16 08 00 00 00 00 00	ldxdw r6, [r1 + 8]
    9886:	bf 61 00 00 00 00 00 00	mov64 r1, r6
    9887:	57 01 00 00 03 00 00 00	and64 r1, 3
    9888:	bf 12 00 00 00 00 00 00	mov64 r2, r1
    9889:	07 02 00 00 fe ff ff ff	add64 r2, -2
    9890:	b7 03 00 00 02 00 00 00	mov64 r3, 2
    9891:	2d 23 10 00 00 00 00 00	jgt r3, r2, +16 <custom_panic+0x8128>
    9892:	15 01 0f 00 00 00 00 00	jeq r1, 0, +15 <custom_panic+0x8128>
    9893:	79 67 ff ff 00 00 00 00	ldxdw r7, [r6 - 1]
    9894:	79 68 07 00 00 00 00 00	ldxdw r8, [r6 + 7]
    9895:	79 82 00 00 00 00 00 00	ldxdw r2, [r8 + 0]
    9896:	bf 71 00 00 00 00 00 00	mov64 r1, r7
    9897:	8d 00 00 00 02 00 00 00	callx r2
    9898:	07 06 00 00 ff ff ff ff	add64 r6, -1
    9899:	79 82 08 00 00 00 00 00	ldxdw r2, [r8 + 8]
    9900:	15 02 03 00 00 00 00 00	jeq r2, 0, +3 <custom_panic+0x8108>
    9901:	79 83 10 00 00 00 00 00	ldxdw r3, [r8 + 16]
    9902:	bf 71 00 00 00 00 00 00	mov64 r1, r7
    9903:	85 10 00 00 bd ef ff ff	call -4163
    9904:	bf 61 00 00 00 00 00 00	mov64 r1, r6
    9905:	b7 02 00 00 18 00 00 00	mov64 r2, 24
    9906:	b7 03 00 00 08 00 00 00	mov64 r3, 8
    9907:	85 10 00 00 b9 ef ff ff	call -4167
    9908:	95 00 00 00 00 00 00 00	exit
    9909:	79 16 00 00 00 00 00 00	ldxdw r6, [r1 + 0]
    9910:	bf 61 00 00 00 00 00 00	mov64 r1, r6
    9911:	85 10 00 00 da ff ff ff	call -38
    9912:	bf 61 00 00 00 00 00 00	mov64 r1, r6
    9913:	b7 02 00 00 20 00 00 00	mov64 r2, 32
    9914:	b7 03 00 00 08 00 00 00	mov64 r3, 8
    9915:	85 10 00 00 b1 ef ff ff	call -4175
    9916:	95 00 00 00 00 00 00 00	exit
    9917:	bf 37 00 00 00 00 00 00	mov64 r7, r3
    9918:	bf 28 00 00 00 00 00 00	mov64 r8, r2
    9919:	bf 16 00 00 00 00 00 00	mov64 r6, r1
    9920:	15 08 0a 00 00 00 00 00	jeq r8, 0, +10 <custom_panic+0x81e0>
    9921:	79 41 08 00 00 00 00 00	ldxdw r1, [r4 + 8]
    9922:	15 01 12 00 00 00 00 00	jeq r1, 0, +18 <custom_panic+0x8230>
    9923:	79 42 10 00 00 00 00 00	ldxdw r2, [r4 + 16]
    9924:	55 02 0a 00 00 00 00 00	jne r2, 0, +10 <custom_panic+0x8200>
    9925:	15 07 19 00 00 00 00 00	jeq r7, 0, +25 <custom_panic+0x8280>
    9926:	bf 71 00 00 00 00 00 00	mov64 r1, r7
    9927:	bf 82 00 00 00 00 00 00	mov64 r2, r8
    9928:	85 10 00 00 8a ef ff ff	call -4214
    9929:	15 00 11 00 00 00 00 00	jeq r0, 0, +17 <custom_panic+0x8260>
    9930:	05 00 16 00 00 00 00 00	ja +22 <custom_panic+0x8290>
    9931:	7b 76 10 00 00 00 00 00	stxdw [r6 + 16], r7
    9932:	b7 01 00 00 00 00 00 00	mov64 r1, 0
    9933:	7b 16 08 00 00 00 00 00	stxdw [r6 + 8], r1
    9934:	05 00 0e 00 00 00 00 00	ja +14 <custom_panic+0x8270>
    9935:	79 41 00 00 00 00 00 00	ldxdw r1, [r4 + 0]
    9936:	bf 83 00 00 00 00 00 00	mov64 r3, r8
    9937:	bf 74 00 00 00 00 00 00	mov64 r4, r7
    9938:	85 10 00 00 9b ef ff ff	call -4197
    9939:	15 00 07 00 00 00 00 00	jeq r0, 0, +7 <custom_panic+0x8260>
    9940:	05 00 0c 00 00 00 00 00	ja +12 <custom_panic+0x8290>
    9941:	15 07 09 00 00 00 00 00	jeq r7, 0, +9 <custom_panic+0x8280>
    9942:	bf 71 00 00 00 00 00 00	mov64 r1, r7
    9943:	bf 82 00 00 00 00 00 00	mov64 r2, r8
    9944:	85 10 00 00 7a ef ff ff	call -4230
    9945:	15 00 01 00 00 00 00 00	jeq r0, 0, +1 <custom_panic+0x8260>
    9946:	05 00 06 00 00 00 00 00	ja +6 <custom_panic+0x8290>
    9947:	7b 76 10 00 00 00 00 00	stxdw [r6 + 16], r7
    9948:	7b 86 08 00 00 00 00 00	stxdw [r6 + 8], r8
    9949:	b7 01 00 00 01 00 00 00	mov64 r1, 1
    9950:	05 00 05 00 00 00 00 00	ja +5 <custom_panic+0x82a8>
    9951:	b7 07 00 00 00 00 00 00	mov64 r7, 0
    9952:	bf 80 00 00 00 00 00 00	mov64 r0, r8
    9953:	7b 76 10 00 00 00 00 00	stxdw [r6 + 16], r7
    9954:	7b 06 08 00 00 00 00 00	stxdw [r6 + 8], r0
    9955:	b7 01 00 00 00 00 00 00	mov64 r1, 0
    9956:	7b 16 00 00 00 00 00 00	stxdw [r6 + 0], r1
    9957:	95 00 00 00 00 00 00 00	exit
    9958:	bf 16 00 00 00 00 00 00	mov64 r6, r1
    9959:	07 02 00 00 01 00 00 00	add64 r2, 1
    9960:	b7 01 00 00 01 00 00 00	mov64 r1, 1
    9961:	15 02 01 00 00 00 00 00	jeq r2, 0, +1 <custom_panic+0x82e0>
    9962:	b7 01 00 00 00 00 00 00	mov64 r1, 0
    9963:	57 01 00 00 01 00 00 00	and64 r1, 1
    9964:	55 01 28 00 00 00 00 00	jne r1, 0, +40 <custom_panic+0x8430>
    9965:	79 61 08 00 00 00 00 00	ldxdw r1, [r6 + 8]
    9966:	bf 17 00 00 00 00 00 00	mov64 r7, r1
    9967:	67 07 00 00 01 00 00 00	lsh64 r7, 1
    9968:	2d 27 01 00 00 00 00 00	jgt r7, r2, +1 <custom_panic+0x8318>
    9969:	bf 27 00 00 00 00 00 00	mov64 r7, r2
    9970:	25 07 01 00 04 00 00 00	jgt r7, 4, +1 <custom_panic+0x8328>
    9971:	b7 07 00 00 04 00 00 00	mov64 r7, 4
    9972:	b7 02 00 00 01 00 00 00	mov64 r2, 1
    9973:	18 03 00 00 ab aa aa aa 00 00 00 00 aa aa aa 02	lddw r3, 192153584101141163
    9975:	2d 73 01 00 00 00 00 00	jgt r3, r7, +1 <custom_panic+0x8350>
    9976:	b7 02 00 00 00 00 00 00	mov64 r2, 0
    9977:	bf 73 00 00 00 00 00 00	mov64 r3, r7
    9978:	27 03 00 00 30 00 00 00	mul64 r3, 48
    9979:	67 02 00 00 03 00 00 00	lsh64 r2, 3
    9980:	15 01 07 00 00 00 00 00	jeq r1, 0, +7 <custom_panic+0x83a8>
    9981:	79 64 00 00 00 00 00 00	ldxdw r4, [r6 + 0]
    9982:	27 01 00 00 30 00 00 00	mul64 r1, 48
    9983:	7b 1a f8 ff 00 00 00 00	stxdw [r10 - 8], r1
    9984:	b7 01 00 00 08 00 00 00	mov64 r1, 8
    9985:	7b 1a f0 ff 00 00 00 00	stxdw [r10 - 16], r1
    9986:	7b 4a e8 ff 00 00 00 00	stxdw [r10 - 24], r4
    9987:	05 00 02 00 00 00 00 00	ja +2 <custom_panic+0x83b8>
    9988:	b7 01 00 00 00 00 00 00	mov64 r1, 0
    9989:	7b 1a f0 ff 00 00 00 00	stxdw [r10 - 16], r1
    9990:	bf a1 00 00 00 00 00 00	mov64 r1, r10
    9991:	07 01 00 00 d0 ff ff ff	add64 r1, -48
    9992:	bf a4 00 00 00 00 00 00	mov64 r4, r10
    9993:	07 04 00 00 e8 ff ff ff	add64 r4, -24
    9994:	85 10 00 00 b2 ff ff ff	call -78
    9995:	79 a1 d8 ff 00 00 00 00	ldxdw r1, [r10 - 40]
    9996:	79 a2 d0 ff 00 00 00 00	ldxdw r2, [r10 - 48]
    9997:	55 02 03 00 00 00 00 00	jne r2, 0, +3 <custom_panic+0x8410>
    9998:	7b 76 08 00 00 00 00 00	stxdw [r6 + 8], r7
    9999:	7b 16 00 00 00 00 00 00	stxdw [r6 + 0], r1
   10000:	95 00 00 00 00 00 00 00	exit
   10001:	18 02 00 00 01 00 00 00 00 00 00 00 00 00 00 80	lddw r2, -9223372036854775807
   10003:	1d 21 fc ff 00 00 00 00	jeq r1, r2, -4 <custom_panic+0x8408>
   10004:	55 01 02 00 00 00 00 00	jne r1, 0, +2 <custom_panic+0x8440>
   10005:	85 10 00 00 69 0f 00 00	call 3945
   10006:	85 10 00 00 ff ff ff ff	call -1
   10007:	79 a2 e0 ff 00 00 00 00	ldxdw r2, [r10 - 32]
   10008:	85 10 00 00 77 0f 00 00	call 3959
   10009:	85 10 00 00 ff ff ff ff	call -1
   10010:	bf 16 00 00 00 00 00 00	mov64 r6, r1
   10011:	bf 24 00 00 00 00 00 00	mov64 r4, r2
   10012:	0f 34 00 00 00 00 00 00	add64 r4, r3
   10013:	b7 01 00 00 01 00 00 00	mov64 r1, 1
   10014:	2d 42 01 00 00 00 00 00	jgt r2, r4, +1 <custom_panic+0x8488>
   10015:	b7 01 00 00 00 00 00 00	mov64 r1, 0
   10016:	57 01 00 00 01 00 00 00	and64 r1, 1
   10017:	55 01 23 00 00 00 00 00	jne r1, 0, +35 <custom_panic+0x85b0>
   10018:	79 61 08 00 00 00 00 00	ldxdw r1, [r6 + 8]
   10019:	bf 17 00 00 00 00 00 00	mov64 r7, r1
   10020:	67 07 00 00 01 00 00 00	lsh64 r7, 1
   10021:	2d 47 01 00 00 00 00 00	jgt r7, r4, +1 <custom_panic+0x84c0>
   10022:	bf 47 00 00 00 00 00 00	mov64 r7, r4
   10023:	25 07 01 00 08 00 00 00	jgt r7, 8, +1 <custom_panic+0x84d0>
   10024:	b7 07 00 00 08 00 00 00	mov64 r7, 8
   10025:	bf 72 00 00 00 00 00 00	mov64 r2, r7
   10026:	a7 02 00 00 ff ff ff ff	xor64 r2, -1
   10027:	77 02 00 00 3f 00 00 00	rsh64 r2, 63
   10028:	15 01 06 00 00 00 00 00	jeq r1, 0, +6 <custom_panic+0x8520>
   10029:	79 63 00 00 00 00 00 00	ldxdw r3, [r6 + 0]
   10030:	7b 1a f8 ff 00 00 00 00	stxdw [r10 - 8], r1
   10031:	b7 01 00 00 01 00 00 00	mov64 r1, 1
   10032:	7b 1a f0 ff 00 00 00 00	stxdw [r10 - 16], r1
   10033:	7b 3a e8 ff 00 00 00 00	stxdw [r10 - 24], r3
   10034:	05 00 02 00 00 00 00 00	ja +2 <custom_panic+0x8530>
   10035:	b7 01 00 00 00 00 00 00	mov64 r1, 0
   10036:	7b 1a f0 ff 00 00 00 00	stxdw [r10 - 16], r1
   10037:	bf a1 00 00 00 00 00 00	mov64 r1, r10
   10038:	07 01 00 00 d0 ff ff ff	add64 r1, -48
   10039:	bf a4 00 00 00 00 00 00	mov64 r4, r10
   10040:	07 04 00 00 e8 ff ff ff	add64 r4, -24
   10041:	bf 73 00 00 00 00 00 00	mov64 r3, r7
   10042:	85 10 00 00 82 ff ff ff	call -126
   10043:	79 a1 d8 ff 00 00 00 00	ldxdw r1, [r10 - 40]
   10044:	79 a2 d0 ff 00 00 00 00	ldxdw r2, [r10 - 48]
   10045:	55 02 03 00 00 00 00 00	jne r2, 0, +3 <custom_panic+0x8590>
   10046:	7b 76 08 00 00 00 00 00	stxdw [r6 + 8], r7
   10047:	7b 16 00 00 00 00 00 00	stxdw [r6 + 0], r1
   10048:	95 00 00 00 00 00 00 00	exit
   10049:	18 02 00 00 01 00 00 00 00 00 00 00 00 00 00 80	lddw r2, -9223372036854775807
   10051:	1d 21 fc ff 00 00 00 00	jeq r1, r2, -4 <custom_panic+0x8588>
   10052:	55 01 02 00 00 00 00 00	jne r1, 0, +2 <custom_panic+0x85c0>
   10053:	85 10 00 00 39 0f 00 00	call 3897
   10054:	85 10 00 00 ff ff ff ff	call -1
   10055:	79 a2 e0 ff 00 00 00 00	ldxdw r2, [r10 - 32]
   10056:	85 10 00 00 47 0f 00 00	call 3911
   10057:	85 10 00 00 ff ff ff ff	call -1
   10058:	79 11 00 00 00 00 00 00	ldxdw r1, [r1 + 0]
   10059:	85 10 00 00 cd 0a 00 00	call 2765
   10060:	95 00 00 00 00 00 00 00	exit
   10061:	79 12 08 00 00 00 00 00	ldxdw r2, [r1 + 8]
   10062:	07 02 00 00 01 00 00 00	add64 r2, 1
   10063:	b7 03 00 00 01 00 00 00	mov64 r3, 1
   10064:	15 02 01 00 00 00 00 00	jeq r2, 0, +1 <custom_panic+0x8618>
   10065:	b7 03 00 00 00 00 00 00	mov64 r3, 0
   10066:	55 03 07 00 01 00 00 00	jne r3, 1, +7 <custom_panic+0x8658>
   10067:	18 01 00 00 c0 61 02 00 00 00 00 00 00 00 00 00	lddw r1, 156096
   10069:	b7 02 00 00 1c 00 00 00	mov64 r2, 28
   10070:	18 03 00 00 68 82 02 00 00 00 00 00 00 00 00 00	lddw r3, 164456
   10072:	85 10 00 00 0e 12 00 00	call 4622
   10073:	85 10 00 00 ff ff ff ff	call -1
   10074:	07 02 00 00 01 00 00 00	add64 r2, 1
   10075:	b7 03 00 00 01 00 00 00	mov64 r3, 1
   10076:	15 02 01 00 00 00 00 00	jeq r2, 0, +1 <custom_panic+0x8678>
   10077:	b7 03 00 00 00 00 00 00	mov64 r3, 0
   10078:	57 03 00 00 01 00 00 00	and64 r3, 1
   10079:	55 03 f3 ff 00 00 00 00	jne r3, 0, -13 <custom_panic+0x8620>
   10080:	07 02 00 00 01 00 00 00	add64 r2, 1
   10081:	b7 03 00 00 01 00 00 00	mov64 r3, 1
   10082:	15 02 01 00 00 00 00 00	jeq r2, 0, +1 <custom_panic+0x86a8>
   10083:	b7 03 00 00 00 00 00 00	mov64 r3, 0
   10084:	57 03 00 00 01 00 00 00	and64 r3, 1
   10085:	55 03 ed ff 00 00 00 00	jne r3, 0, -19 <custom_panic+0x8620>
   10086:	07 02 00 00 01 00 00 00	add64 r2, 1
   10087:	b7 03 00 00 01 00 00 00	mov64 r3, 1
   10088:	15 02 01 00 00 00 00 00	jeq r2, 0, +1 <custom_panic+0x86d8>
   10089:	b7 03 00 00 00 00 00 00	mov64 r3, 0
   10090:	57 03 00 00 01 00 00 00	and64 r3, 1
   10091:	55 03 e7 ff 00 00 00 00	jne r3, 0, -25 <custom_panic+0x8620>
   10092:	07 02 00 00 01 00 00 00	add64 r2, 1
   10093:	b7 03 00 00 01 00 00 00	mov64 r3, 1
   10094:	15 02 01 00 00 00 00 00	jeq r2, 0, +1 <custom_panic+0x8708>
   10095:	b7 03 00 00 00 00 00 00	mov64 r3, 0
   10096:	57 03 00 00 01 00 00 00	and64 r3, 1
   10097:	55 03 e1 ff 00 00 00 00	jne r3, 0, -31 <custom_panic+0x8620>
   10098:	07 02 00 00 01 00 00 00	add64 r2, 1
   10099:	b7 03 00 00 01 00 00 00	mov64 r3, 1
   10100:	15 02 01 00 00 00 00 00	jeq r2, 0, +1 <custom_panic+0x8738>
   10101:	b7 03 00 00 00 00 00 00	mov64 r3, 0
   10102:	57 03 00 00 01 00 00 00	and64 r3, 1
   10103:	55 03 db ff 00 00 00 00	jne r3, 0, -37 <custom_panic+0x8620>
   10104:	07 02 00 00 01 00 00 00	add64 r2, 1
   10105:	b7 03 00 00 01 00 00 00	mov64 r3, 1
   10106:	15 02 01 00 00 00 00 00	jeq r2, 0, +1 <custom_panic+0x8768>
   10107:	b7 03 00 00 00 00 00 00	mov64 r3, 0
   10108:	57 03 00 00 01 00 00 00	and64 r3, 1
   10109:	55 03 d5 ff 00 00 00 00	jne r3, 0, -43 <custom_panic+0x8620>
   10110:	07 02 00 00 01 00 00 00	add64 r2, 1
   10111:	b7 03 00 00 01 00 00 00	mov64 r3, 1
   10112:	15 02 01 00 00 00 00 00	jeq r2, 0, +1 <custom_panic+0x8798>
   10113:	b7 03 00 00 00 00 00 00	mov64 r3, 0
   10114:	57 03 00 00 01 00 00 00	and64 r3, 1
   10115:	55 03 cf ff 00 00 00 00	jne r3, 0, -49 <custom_panic+0x8620>
   10116:	07 02 00 00 01 00 00 00	add64 r2, 1
   10117:	b7 03 00 00 01 00 00 00	mov64 r3, 1
   10118:	15 02 01 00 00 00 00 00	jeq r2, 0, +1 <custom_panic+0x87c8>
   10119:	b7 03 00 00 00 00 00 00	mov64 r3, 0
   10120:	57 03 00 00 01 00 00 00	and64 r3, 1
   10121:	55 03 c9 ff 00 00 00 00	jne r3, 0, -55 <custom_panic+0x8620>
   10122:	07 02 00 00 01 00 00 00	add64 r2, 1
   10123:	b7 03 00 00 01 00 00 00	mov64 r3, 1
   10124:	15 02 01 00 00 00 00 00	jeq r2, 0, +1 <custom_panic+0x87f8>
   10125:	b7 03 00 00 00 00 00 00	mov64 r3, 0
   10126:	57 03 00 00 01 00 00 00	and64 r3, 1
   10127:	55 03 c3 ff 00 00 00 00	jne r3, 0, -61 <custom_panic+0x8620>
   10128:	07 02 00 00 01 00 00 00	add64 r2, 1
   10129:	b7 03 00 00 01 00 00 00	mov64 r3, 1
   10130:	15 02 01 00 00 00 00 00	jeq r2, 0, +1 <custom_panic+0x8828>
   10131:	b7 03 00 00 00 00 00 00	mov64 r3, 0
   10132:	57 03 00 00 01 00 00 00	and64 r3, 1
   10133:	55 03 bd ff 00 00 00 00	jne r3, 0, -67 <custom_panic+0x8620>
   10134:	07 02 00 00 01 00 00 00	add64 r2, 1
   10135:	b7 03 00 00 01 00 00 00	mov64 r3, 1
   10136:	15 02 01 00 00 00 00 00	jeq r2, 0, +1 <custom_panic+0x8858>
   10137:	b7 03 00 00 00 00 00 00	mov64 r3, 0
   10138:	57 03 00 00 01 00 00 00	and64 r3, 1
   10139:	55 03 b7 ff 00 00 00 00	jne r3, 0, -73 <custom_panic+0x8620>
   10140:	07 02 00 00 01 00 00 00	add64 r2, 1
   10141:	b7 03 00 00 01 00 00 00	mov64 r3, 1
   10142:	15 02 01 00 00 00 00 00	jeq r2, 0, +1 <custom_panic+0x8888>
   10143:	b7 03 00 00 00 00 00 00	mov64 r3, 0
   10144:	57 03 00 00 01 00 00 00	and64 r3, 1
   10145:	55 03 b1 ff 00 00 00 00	jne r3, 0, -79 <custom_panic+0x8620>
   10146:	07 02 00 00 01 00 00 00	add64 r2, 1
   10147:	b7 03 00 00 01 00 00 00	mov64 r3, 1
   10148:	15 02 01 00 00 00 00 00	jeq r2, 0, +1 <custom_panic+0x88b8>
   10149:	b7 03 00 00 00 00 00 00	mov64 r3, 0
   10150:	57 03 00 00 01 00 00 00	and64 r3, 1
   10151:	55 03 ab ff 00 00 00 00	jne r3, 0, -85 <custom_panic+0x8620>
   10152:	07 02 00 00 01 00 00 00	add64 r2, 1
   10153:	b7 03 00 00 01 00 00 00	mov64 r3, 1
   10154:	15 02 01 00 00 00 00 00	jeq r2, 0, +1 <custom_panic+0x88e8>
   10155:	b7 03 00 00 00 00 00 00	mov64 r3, 0
   10156:	57 03 00 00 01 00 00 00	and64 r3, 1
   10157:	55 03 a5 ff 00 00 00 00	jne r3, 0, -91 <custom_panic+0x8620>
   10158:	07 02 00 00 01 00 00 00	add64 r2, 1
   10159:	b7 03 00 00 01 00 00 00	mov64 r3, 1
   10160:	15 02 01 00 00 00 00 00	jeq r2, 0, +1 <custom_panic+0x8918>
   10161:	b7 03 00 00 00 00 00 00	mov64 r3, 0
   10162:	57 03 00 00 01 00 00 00	and64 r3, 1
   10163:	55 03 9f ff 00 00 00 00	jne r3, 0, -97 <custom_panic+0x8620>
   10164:	07 02 00 00 01 00 00 00	add64 r2, 1
   10165:	b7 03 00 00 01 00 00 00	mov64 r3, 1
   10166:	15 02 01 00 00 00 00 00	jeq r2, 0, +1 <custom_panic+0x8948>
   10167:	b7 03 00 00 00 00 00 00	mov64 r3, 0
   10168:	57 03 00 00 01 00 00 00	and64 r3, 1
   10169:	55 03 99 ff 00 00 00 00	jne r3, 0, -103 <custom_panic+0x8620>
   10170:	07 02 00 00 01 00 00 00	add64 r2, 1
   10171:	b7 03 00 00 01 00 00 00	mov64 r3, 1
   10172:	15 02 01 00 00 00 00 00	jeq r2, 0, +1 <custom_panic+0x8978>
   10173:	b7 03 00 00 00 00 00 00	mov64 r3, 0
   10174:	57 03 00 00 01 00 00 00	and64 r3, 1
   10175:	55 03 93 ff 00 00 00 00	jne r3, 0, -109 <custom_panic+0x8620>
   10176:	07 02 00 00 01 00 00 00	add64 r2, 1
   10177:	b7 03 00 00 01 00 00 00	mov64 r3, 1
   10178:	15 02 01 00 00 00 00 00	jeq r2, 0, +1 <custom_panic+0x89a8>
   10179:	b7 03 00 00 00 00 00 00	mov64 r3, 0
   10180:	57 03 00 00 01 00 00 00	and64 r3, 1
   10181:	55 03 8d ff 00 00 00 00	jne r3, 0, -115 <custom_panic+0x8620>
   10182:	07 02 00 00 01 00 00 00	add64 r2, 1
   10183:	b7 03 00 00 01 00 00 00	mov64 r3, 1
   10184:	15 02 01 00 00 00 00 00	jeq r2, 0, +1 <custom_panic+0x89d8>
   10185:	b7 03 00 00 00 00 00 00	mov64 r3, 0
   10186:	57 03 00 00 01 00 00 00	and64 r3, 1
   10187:	55 03 87 ff 00 00 00 00	jne r3, 0, -121 <custom_panic+0x8620>
   10188:	07 02 00 00 01 00 00 00	add64 r2, 1
   10189:	b7 03 00 00 01 00 00 00	mov64 r3, 1
   10190:	15 02 01 00 00 00 00 00	jeq r2, 0, +1 <custom_panic+0x8a08>
   10191:	b7 03 00 00 00 00 00 00	mov64 r3, 0
   10192:	57 03 00 00 01 00 00 00	and64 r3, 1
   10193:	55 03 81 ff 00 00 00 00	jne r3, 0, -127 <custom_panic+0x8620>
   10194:	07 02 00 00 01 00 00 00	add64 r2, 1
   10195:	b7 03 00 00 01 00 00 00	mov64 r3, 1
   10196:	15 02 01 00 00 00 00 00	jeq r2, 0, +1 <custom_panic+0x8a38>
   10197:	b7 03 00 00 00 00 00 00	mov64 r3, 0
   10198:	57 03 00 00 01 00 00 00	and64 r3, 1
   10199:	55 03 7b ff 00 00 00 00	jne r3, 0, -133 <custom_panic+0x8620>
   10200:	07 02 00 00 01 00 00 00	add64 r2, 1
   10201:	b7 03 00 00 01 00 00 00	mov64 r3, 1
   10202:	15 02 01 00 00 00 00 00	jeq r2, 0, +1 <custom_panic+0x8a68>
   10203:	b7 03 00 00 00 00 00 00	mov64 r3, 0
   10204:	57 03 00 00 01 00 00 00	and64 r3, 1
   10205:	55 03 75 ff 00 00 00 00	jne r3, 0, -139 <custom_panic+0x8620>
   10206:	07 02 00 00 01 00 00 00	add64 r2, 1
   10207:	b7 03 00 00 01 00 00 00	mov64 r3, 1
   10208:	15 02 01 00 00 00 00 00	jeq r2, 0, +1 <custom_panic+0x8a98>
   10209:	b7 03 00 00 00 00 00 00	mov64 r3, 0
   10210:	57 03 00 00 01 00 00 00	and64 r3, 1
   10211:	55 03 6f ff 00 00 00 00	jne r3, 0, -145 <custom_panic+0x8620>
   10212:	07 02 00 00 01 00 00 00	add64 r2, 1
   10213:	b7 03 00 00 01 00 00 00	mov64 r3, 1
   10214:	15 02 01 00 00 00 00 00	jeq r2, 0, +1 <custom_panic+0x8ac8>
   10215:	b7 03 00 00 00 00 00 00	mov64 r3, 0
   10216:	57 03 00 00 01 00 00 00	and64 r3, 1
   10217:	55 03 69 ff 00 00 00 00	jne r3, 0, -151 <custom_panic+0x8620>
   10218:	07 02 00 00 01 00 00 00	add64 r2, 1
   10219:	b7 03 00 00 01 00 00 00	mov64 r3, 1
   10220:	15 02 01 00 00 00 00 00	jeq r2, 0, +1 <custom_panic+0x8af8>
   10221:	b7 03 00 00 00 00 00 00	mov64 r3, 0
   10222:	57 03 00 00 01 00 00 00	and64 r3, 1
   10223:	55 03 63 ff 00 00 00 00	jne r3, 0, -157 <custom_panic+0x8620>
   10224:	07 02 00 00 01 00 00 00	add64 r2, 1
   10225:	b7 03 00 00 01 00 00 00	mov64 r3, 1
   10226:	15 02 01 00 00 00 00 00	jeq r2, 0, +1 <custom_panic+0x8b28>
   10227:	b7 03 00 00 00 00 00 00	mov64 r3, 0
   10228:	57 03 00 00 01 00 00 00	and64 r3, 1
   10229:	55 03 5d ff 00 00 00 00	jne r3, 0, -163 <custom_panic+0x8620>
   10230:	07 02 00 00 01 00 00 00	add64 r2, 1
   10231:	b7 03 00 00 01 00 00 00	mov64 r3, 1
   10232:	15 02 01 00 00 00 00 00	jeq r2, 0, +1 <custom_panic+0x8b58>
   10233:	b7 03 00 00 00 00 00 00	mov64 r3, 0
   10234:	57 03 00 00 01 00 00 00	and64 r3, 1
   10235:	55 03 57 ff 00 00 00 00	jne r3, 0, -169 <custom_panic+0x8620>
   10236:	07 02 00 00 01 00 00 00	add64 r2, 1
   10237:	b7 03 00 00 01 00 00 00	mov64 r3, 1
   10238:	15 02 01 00 00 00 00 00	jeq r2, 0, +1 <custom_panic+0x8b88>
   10239:	b7 03 00 00 00 00 00 00	mov64 r3, 0
   10240:	57 03 00 00 01 00 00 00	and64 r3, 1
   10241:	55 03 51 ff 00 00 00 00	jne r3, 0, -175 <custom_panic+0x8620>
   10242:	07 02 00 00 01 00 00 00	add64 r2, 1
   10243:	b7 03 00 00 01 00 00 00	mov64 r3, 1
   10244:	15 02 01 00 00 00 00 00	jeq r2, 0, +1 <custom_panic+0x8bb8>
   10245:	b7 03 00 00 00 00 00 00	mov64 r3, 0
   10246:	57 03 00 00 01 00 00 00	and64 r3, 1
   10247:	55 03 4b ff 00 00 00 00	jne r3, 0, -181 <custom_panic+0x8620>
   10248:	07 02 00 00 01 00 00 00	add64 r2, 1
   10249:	b7 03 00 00 01 00 00 00	mov64 r3, 1
   10250:	15 02 01 00 00 00 00 00	jeq r2, 0, +1 <custom_panic+0x8be8>
   10251:	b7 03 00 00 00 00 00 00	mov64 r3, 0
   10252:	57 03 00 00 01 00 00 00	and64 r3, 1
   10253:	55 03 45 ff 00 00 00 00	jne r3, 0, -187 <custom_panic+0x8620>
   10254:	07 02 00 00 01 00 00 00	add64 r2, 1
   10255:	b7 03 00 00 01 00 00 00	mov64 r3, 1
   10256:	15 02 01 00 00 00 00 00	jeq r2, 0, +1 <custom_panic+0x8c18>
   10257:	b7 03 00 00 00 00 00 00	mov64 r3, 0
   10258:	57 03 00 00 01 00 00 00	and64 r3, 1
   10259:	55 03 3f ff 00 00 00 00	jne r3, 0, -193 <custom_panic+0x8620>
   10260:	7b 21 08 00 00 00 00 00	stxdw [r1 + 8], r2
   10261:	95 00 00 00 00 00 00 00	exit
   10262:	79 11 08 00 00 00 00 00	ldxdw r1, [r1 + 8]
   10263:	79 12 10 00 00 00 00 00	ldxdw r2, [r1 + 16]
   10264:	18 03 00 00 fe ff ff ff 00 00 00 00 ff ff ff 7f	lddw r3, 9223372036854775806
   10266:	2d 32 07 00 00 00 00 00	jgt r2, r3, +7 <custom_panic+0x8c98>
   10267:	bf 23 00 00 00 00 00 00	mov64 r3, r2
   10268:	07 03 00 00 01 00 00 00	add64 r3, 1
   10269:	7b 31 10 00 00 00 00 00	stxdw [r1 + 16], r3
   10270:	79 13 18 00 00 00 00 00	ldxdw r3, [r1 + 24]
   10271:	79 30 00 00 00 00 00 00	ldxdw r0, [r3 + 0]
   10272:	7b 21 10 00 00 00 00 00	stxdw [r1 + 16], r2
   10273:	95 00 00 00 00 00 00 00	exit
   10274:	bf a3 00 00 00 00 00 00	mov64 r3, r10
   10275:	07 03 00 00 f8 ff ff ff	add64 r3, -8
   10276:	18 01 00 00 3a 62 02 00 00 00 00 00 00 00 00 00	lddw r1, 156218
   10278:	b7 02 00 00 18 00 00 00	mov64 r2, 24
   10279:	18 04 00 00 80 82 02 00 00 00 00 00 00 00 00 00	lddw r4, 164480
   10281:	18 05 00 00 a0 82 02 00 00 00 00 00 00 00 00 00	lddw r5, 164512
   10283:	85 10 00 00 69 11 00 00	call 4457
   10284:	85 10 00 00 ff ff ff ff	call -1
   10285:	79 22 10 00 00 00 00 00	ldxdw r2, [r2 + 16]
   10286:	79 23 10 00 00 00 00 00	ldxdw r3, [r2 + 16]
   10287:	18 04 00 00 fe ff ff ff 00 00 00 00 ff ff ff 7f	lddw r4, 9223372036854775806
   10289:	2d 43 04 00 00 00 00 00	jgt r3, r4, +4 <custom_panic+0x8d38>
   10290:	79 22 20 00 00 00 00 00	ldxdw r2, [r2 + 32]
   10291:	7b 21 08 00 00 00 00 00	stxdw [r1 + 8], r2
   10292:	b7 02 00 00 16 00 00 00	mov64 r2, 22
   10293:	05 00 03 00 00 00 00 00	ja +3 <custom_panic+0x8d50>
   10294:	07 02 00 00 10 00 00 00	add64 r2, 16
   10295:	7b 21 10 00 00 00 00 00	stxdw [r1 + 16], r2
   10296:	b7 02 00 00 0b 00 00 00	mov64 r2, 11
   10297:	63 21 00 00 00 00 00 00	stxw [r1 + 0], r2
   10298:	95 00 00 00 00 00 00 00	exit
   10299:	b7 03 00 00 0b 00 00 00	mov64 r3, 11
   10300:	79 22 10 00 00 00 00 00	ldxdw r2, [r2 + 16]
   10301:	79 24 10 00 00 00 00 00	ldxdw r4, [r2 + 16]
   10302:	18 05 00 00 fe ff ff ff 00 00 00 00 ff ff ff 7f	lddw r5, 9223372036854775806
   10304:	2d 54 08 00 00 00 00 00	jgt r4, r5, +8 <custom_panic+0x8dd0>
   10305:	bf 23 00 00 00 00 00 00	mov64 r3, r2
   10306:	07 03 00 00 10 00 00 00	add64 r3, 16
   10307:	07 04 00 00 01 00 00 00	add64 r4, 1
   10308:	7b 42 10 00 00 00 00 00	stxdw [r2 + 16], r4
   10309:	7b 31 10 00 00 00 00 00	stxdw [r1 + 16], r3
   10310:	07 02 00 00 18 00 00 00	add64 r2, 24
   10311:	7b 21 08 00 00 00 00 00	stxdw [r1 + 8], r2
   10312:	b7 03 00 00 16 00 00 00	mov64 r3, 22
   10313:	63 31 00 00 00 00 00 00	stxw [r1 + 0], r3
   10314:	95 00 00 00 00 00 00 00	exit
   10315:	bf 10 00 00 00 00 00 00	mov64 r0, r1
   10316:	95 00 00 00 00 00 00 00	exit
   10317:	bf 29 00 00 00 00 00 00	mov64 r9, r2
   10318:	79 95 00 00 00 00 00 00	ldxdw r5, [r9 + 0]
   10319:	55 05 06 00 00 00 00 00	jne r5, 0, +6 <custom_panic+0x8e38>
   10320:	b7 02 00 00 00 00 00 00	mov64 r2, 0
   10321:	7b 2a f0 ff 00 00 00 00	stxdw [r10 - 16], r2
   10322:	7b 5a e8 ff 00 00 00 00	stxdw [r10 - 24], r5
   10323:	b7 03 00 00 08 00 00 00	mov64 r3, 8
   10324:	7b 3a e0 ff 00 00 00 00	stxdw [r10 - 32], r3
   10325:	05 00 4c 01 00 00 00 00	ja +332 <custom_panic+0x9898>
   10326:	b7 07 00 00 01 00 00 00	mov64 r7, 1
   10327:	18 02 00 00 ab aa aa aa 00 00 00 00 aa aa aa 02	lddw r2, 192153584101141163
   10329:	2d 52 01 00 00 00 00 00	jgt r2, r5, +1 <custom_panic+0x8e60>
   10330:	b7 07 00 00 00 00 00 00	mov64 r7, 0
   10331:	2d 52 02 00 00 00 00 00	jgt r2, r5, +2 <custom_panic+0x8e78>
   10332:	85 10 00 00 22 0e 00 00	call 3618
   10333:	85 10 00 00 ff ff ff ff	call -1
   10334:	7b 1a 88 ff 00 00 00 00	stxdw [r10 - 120], r1
   10335:	bf 58 00 00 00 00 00 00	mov64 r8, r5
   10336:	27 08 00 00 30 00 00 00	mul64 r8, 48
   10337:	67 07 00 00 03 00 00 00	lsh64 r7, 3
   10338:	7b 5a a8 ff 00 00 00 00	stxdw [r10 - 88], r5
   10339:	15 08 0a 00 00 00 00 00	jeq r8, 0, +10 <custom_panic+0x8ef8>
   10340:	bf 81 00 00 00 00 00 00	mov64 r1, r8
   10341:	bf 72 00 00 00 00 00 00	mov64 r2, r7
   10342:	85 10 00 00 ec ed ff ff	call -4628
   10343:	79 a5 a8 ff 00 00 00 00	ldxdw r5, [r10 - 88]
   10344:	15 00 01 00 00 00 00 00	jeq r0, 0, +1 <custom_panic+0x8ed8>
   10345:	05 00 05 00 00 00 00 00	ja +5 <custom_panic+0x8f00>
   10346:	bf 71 00 00 00 00 00 00	mov64 r1, r7
   10347:	bf 82 00 00 00 00 00 00	mov64 r2, r8
   10348:	85 10 00 00 23 0e 00 00	call 3619
   10349:	85 10 00 00 ff ff ff ff	call -1
   10350:	bf 70 00 00 00 00 00 00	mov64 r0, r7
   10351:	7b 5a e8 ff 00 00 00 00	stxdw [r10 - 24], r5
   10352:	7b 0a e0 ff 00 00 00 00	stxdw [r10 - 32], r0
   10353:	b7 03 00 00 08 00 00 00	mov64 r3, 8
   10354:	b7 04 00 00 00 00 00 00	mov64 r4, 0
   10355:	7b 4a f0 ff 00 00 00 00	stxdw [r10 - 16], r4
   10356:	b7 08 00 00 00 00 00 00	mov64 r8, 0
   10357:	7b 9a b0 ff 00 00 00 00	stxdw [r10 - 80], r9
   10358:	05 00 1b 00 00 00 00 00	ja +27 <custom_panic+0x9018>
   10359:	bf 41 00 00 00 00 00 00	mov64 r1, r4
   10360:	27 01 00 00 30 00 00 00	mul64 r1, 48
   10361:	bf 02 00 00 00 00 00 00	mov64 r2, r0
   10362:	0f 12 00 00 00 00 00 00	add64 r2, r1
   10363:	79 a1 b8 ff 00 00 00 00	ldxdw r1, [r10 - 72]
   10364:	73 12 2a 00 00 00 00 00	stxb [r2 + 42], r1
   10365:	79 a1 c0 ff 00 00 00 00	ldxdw r1, [r10 - 64]
   10366:	73 12 29 00 00 00 00 00	stxb [r2 + 41], r1
   10367:	79 a1 c8 ff 00 00 00 00	ldxdw r1, [r10 - 56]
   10368:	73 12 28 00 00 00 00 00	stxb [r2 + 40], r1
   10369:	7b 32 20 00 00 00 00 00	stxdw [r2 + 32], r3
   10370:	7b 82 18 00 00 00 00 00	stxdw [r2 + 24], r8
   10371:	7b 62 10 00 00 00 00 00	stxdw [r2 + 16], r6
   10372:	7b 72 08 00 00 00 00 00	stxdw [r2 + 8], r7
   10373:	7b 92 00 00 00 00 00 00	stxdw [r2 + 0], r9
   10374:	61 a1 fb ff 00 00 00 00	ldxw r1, [r10 - 5]
   10375:	63 12 2b 00 00 00 00 00	stxw [r2 + 43], r1
   10376:	71 a1 ff ff 00 00 00 00	ldxb r1, [r10 - 1]
   10377:	73 12 2f 00 00 00 00 00	stxb [r2 + 47], r1
   10378:	07 04 00 00 01 00 00 00	add64 r4, 1
   10379:	7b 4a f0 ff 00 00 00 00	stxdw [r10 - 16], r4
   10380:	79 a3 d0 ff 00 00 00 00	ldxdw r3, [r10 - 48]
   10381:	79 a8 d8 ff 00 00 00 00	ldxdw r8, [r10 - 40]
   10382:	07 08 00 00 01 00 00 00	add64 r8, 1
   10383:	79 a9 b0 ff 00 00 00 00	ldxdw r9, [r10 - 80]
   10384:	2d 85 01 00 00 00 00 00	jgt r5, r8, +1 <custom_panic+0x9018>
   10385:	05 00 0f 01 00 00 00 00	ja +271 <custom_panic+0x9890>
   10386:	bf 32 00 00 00 00 00 00	mov64 r2, r3
   10387:	07 02 00 00 01 00 00 00	add64 r2, 1
   10388:	b7 01 00 00 01 00 00 00	mov64 r1, 1
   10389:	15 02 01 00 00 00 00 00	jeq r2, 0, +1 <custom_panic+0x9040>
   10390:	b7 01 00 00 00 00 00 00	mov64 r1, 0
   10391:	57 01 00 00 01 00 00 00	and64 r1, 1
   10392:	55 01 27 01 00 00 00 00	jne r1, 0, +295 <custom_panic+0x9988>
   10393:	bf 91 00 00 00 00 00 00	mov64 r1, r9
   10394:	0f 31 00 00 00 00 00 00	add64 r1, r3
   10395:	71 11 00 00 00 00 00 00	ldxb r1, [r1 + 0]
   10396:	7b 8a d8 ff 00 00 00 00	stxdw [r10 - 40], r8
   10397:	15 01 3d 00 ff 00 00 00	jeq r1, 255, +61 <custom_panic+0x9260>
   10398:	bf 26 00 00 00 00 00 00	mov64 r6, r2
   10399:	07 06 00 00 07 00 00 00	add64 r6, 7
   10400:	b7 03 00 00 01 00 00 00	mov64 r3, 1
   10401:	7b 6a d0 ff 00 00 00 00	stxdw [r10 - 48], r6
   10402:	2d 62 01 00 00 00 00 00	jgt r2, r6, +1 <custom_panic+0x90a8>
   10403:	b7 03 00 00 00 00 00 00	mov64 r3, 0
   10404:	57 03 00 00 01 00 00 00	and64 r3, 1
   10405:	55 03 21 01 00 00 00 00	jne r3, 0, +289 <custom_panic+0x99c0>
   10406:	2d 14 01 00 00 00 00 00	jgt r4, r1, +1 <custom_panic+0x90c8>
   10407:	05 00 26 01 00 00 00 00	ja +294 <custom_panic+0x99f8>
   10408:	bf 48 00 00 00 00 00 00	mov64 r8, r4
   10409:	27 01 00 00 30 00 00 00	mul64 r1, 48
   10410:	bf 02 00 00 00 00 00 00	mov64 r2, r0
   10411:	0f 12 00 00 00 00 00 00	add64 r2, r1
   10412:	79 27 08 00 00 00 00 00	ldxdw r7, [r2 + 8]
   10413:	79 73 00 00 00 00 00 00	ldxdw r3, [r7 + 0]
   10414:	07 03 00 00 01 00 00 00	add64 r3, 1
   10415:	b7 04 00 00 01 00 00 00	mov64 r4, 1
   10416:	15 03 01 00 00 00 00 00	jeq r3, 0, +1 <custom_panic+0x9118>
   10417:	b7 04 00 00 00 00 00 00	mov64 r4, 0
   10418:	79 29 00 00 00 00 00 00	ldxdw r9, [r2 + 0]
   10419:	7b 37 00 00 00 00 00 00	stxdw [r7 + 0], r3
   10420:	55 04 02 00 01 00 00 00	jne r4, 1, +2 <custom_panic+0x9140>
   10421:	85 10 00 00 ff ff ff ff	call -1
   10422:	85 10 00 00 ff ff ff ff	call -1
   10423:	bf 02 00 00 00 00 00 00	mov64 r2, r0
   10424:	0f 12 00 00 00 00 00 00	add64 r2, r1
   10425:	79 26 10 00 00 00 00 00	ldxdw r6, [r2 + 16]
   10426:	79 62 00 00 00 00 00 00	ldxdw r2, [r6 + 0]
   10427:	07 02 00 00 01 00 00 00	add64 r2, 1
   10428:	b7 03 00 00 01 00 00 00	mov64 r3, 1
   10429:	15 02 01 00 00 00 00 00	jeq r2, 0, +1 <custom_panic+0x9180>
   10430:	b7 03 00 00 00 00 00 00	mov64 r3, 0
   10431:	7b 26 00 00 00 00 00 00	stxdw [r6 + 0], r2
   10432:	bf 84 00 00 00 00 00 00	mov64 r4, r8
   10433:	55 03 01 00 01 00 00 00	jne r3, 1, +1 <custom_panic+0x91a0>
   10434:	05 00 f2 ff 00 00 00 00	ja -14 <custom_panic+0x9130>
   10435:	bf 02 00 00 00 00 00 00	mov64 r2, r0
   10436:	0f 12 00 00 00 00 00 00	add64 r2, r1
   10437:	71 21 2a 00 00 00 00 00	ldxb r1, [r2 + 42]
   10438:	7b 1a b8 ff 00 00 00 00	stxdw [r10 - 72], r1
   10439:	71 21 29 00 00 00 00 00	ldxb r1, [r2 + 41]
   10440:	7b 1a c0 ff 00 00 00 00	stxdw [r10 - 64], r1
   10441:	71 21 28 00 00 00 00 00	ldxb r1, [r2 + 40]
   10442:	7b 1a c8 ff 00 00 00 00	stxdw [r10 - 56], r1
   10443:	79 23 20 00 00 00 00 00	ldxdw r3, [r2 + 32]
   10444:	79 28 18 00 00 00 00 00	ldxdw r8, [r2 + 24]
   10445:	79 a1 e8 ff 00 00 00 00	ldxdw r1, [r10 - 24]
   10446:	5d 14 a8 ff 00 00 00 00	jne r4, r1, -88 <custom_panic+0x8f40>
   10447:	bf a1 00 00 00 00 00 00	mov64 r1, r10
   10448:	07 01 00 00 e0 ff ff ff	add64 r1, -32
   10449:	bf 42 00 00 00 00 00 00	mov64 r2, r4
   10450:	7b 8a a0 ff 00 00 00 00	stxdw [r10 - 96], r8
   10451:	bf 38 00 00 00 00 00 00	mov64 r8, r3
   10452:	85 10 00 00 11 fe ff ff	call -495
   10453:	bf 83 00 00 00 00 00 00	mov64 r3, r8
   10454:	79 a8 a0 ff 00 00 00 00	ldxdw r8, [r10 - 96]
   10455:	79 a5 a8 ff 00 00 00 00	ldxdw r5, [r10 - 88]
   10456:	79 a0 e0 ff 00 00 00 00	ldxdw r0, [r10 - 32]
   10457:	79 a4 f0 ff 00 00 00 00	ldxdw r4, [r10 - 16]
   10458:	05 00 9c ff 00 00 00 00	ja -100 <custom_panic+0x8f40>
   10459:	bf 21 00 00 00 00 00 00	mov64 r1, r2
   10460:	07 01 00 00 01 00 00 00	add64 r1, 1
   10461:	b7 03 00 00 01 00 00 00	mov64 r3, 1
   10462:	15 01 01 00 00 00 00 00	jeq r1, 0, +1 <custom_panic+0x9288>
   10463:	b7 03 00 00 00 00 00 00	mov64 r3, 0
   10464:	57 03 00 00 01 00 00 00	and64 r3, 1
   10465:	55 03 f1 00 00 00 00 00	jne r3, 0, +241 <custom_panic+0x9a20>
   10466:	7b 4a c0 ff 00 00 00 00	stxdw [r10 - 64], r4
   10467:	bf 13 00 00 00 00 00 00	mov64 r3, r1
   10468:	07 03 00 00 01 00 00 00	add64 r3, 1
   10469:	b7 04 00 00 01 00 00 00	mov64 r4, 1
   10470:	15 03 01 00 00 00 00 00	jeq r3, 0, +1 <custom_panic+0x92c8>
   10471:	b7 04 00 00 00 00 00 00	mov64 r4, 0
   10472:	57 04 00 00 01 00 00 00	and64 r4, 1
   10473:	55 04 f0 00 00 00 00 00	jne r4, 0, +240 <custom_panic+0x9a58>
   10474:	bf 37 00 00 00 00 00 00	mov64 r7, r3
   10475:	07 07 00 00 01 00 00 00	add64 r7, 1
   10476:	b7 04 00 00 01 00 00 00	mov64 r4, 1
   10477:	15 07 01 00 00 00 00 00	jeq r7, 0, +1 <custom_panic+0x9300>
   10478:	b7 04 00 00 00 00 00 00	mov64 r4, 0
   10479:	57 04 00 00 01 00 00 00	and64 r4, 1
   10480:	55 04 f0 00 00 00 00 00	jne r4, 0, +240 <custom_panic+0x9a90>
   10481:	bf 75 00 00 00 00 00 00	mov64 r5, r7
   10482:	07 05 00 00 04 00 00 00	add64 r5, 4
   10483:	b7 04 00 00 01 00 00 00	mov64 r4, 1
   10484:	2d 57 01 00 00 00 00 00	jgt r7, r5, +1 <custom_panic+0x9338>
   10485:	b7 04 00 00 00 00 00 00	mov64 r4, 0
   10486:	57 04 00 00 01 00 00 00	and64 r4, 1
   10487:	55 04 f0 00 00 00 00 00	jne r4, 0, +240 <custom_panic+0x9ac8>
   10488:	bf 50 00 00 00 00 00 00	mov64 r0, r5
   10489:	07 00 00 00 20 00 00 00	add64 r0, 32
   10490:	b7 04 00 00 01 00 00 00	mov64 r4, 1
   10491:	2d 05 01 00 00 00 00 00	jgt r5, r0, +1 <custom_panic+0x9370>
   10492:	b7 04 00 00 00 00 00 00	mov64 r4, 0
   10493:	57 04 00 00 01 00 00 00	and64 r4, 1
   10494:	55 04 f0 00 00 00 00 00	jne r4, 0, +240 <custom_panic+0x9b00>
   10495:	bf 06 00 00 00 00 00 00	mov64 r6, r0
   10496:	07 06 00 00 20 00 00 00	add64 r6, 32
   10497:	b7 04 00 00 01 00 00 00	mov64 r4, 1
   10498:	2d 60 01 00 00 00 00 00	jgt r0, r6, +1 <custom_panic+0x93a8>
   10499:	b7 04 00 00 00 00 00 00	mov64 r4, 0
   10500:	57 04 00 00 01 00 00 00	and64 r4, 1
   10501:	55 04 f0 00 00 00 00 00	jne r4, 0, +240 <custom_panic+0x9b38>
   10502:	7b 0a d0 ff 00 00 00 00	stxdw [r10 - 48], r0
   10503:	7b 5a b8 ff 00 00 00 00	stxdw [r10 - 72], r5
   10504:	bf 94 00 00 00 00 00 00	mov64 r4, r9
   10505:	0f 24 00 00 00 00 00 00	add64 r4, r2
   10506:	71 42 00 00 00 00 00 00	ldxb r2, [r4 + 0]
   10507:	7b 2a a0 ff 00 00 00 00	stxdw [r10 - 96], r2
   10508:	bf 92 00 00 00 00 00 00	mov64 r2, r9
   10509:	0f 12 00 00 00 00 00 00	add64 r2, r1
   10510:	71 21 00 00 00 00 00 00	ldxb r1, [r2 + 0]
   10511:	7b 1a c8 ff 00 00 00 00	stxdw [r10 - 56], r1
   10512:	bf 91 00 00 00 00 00 00	mov64 r1, r9
   10513:	0f 31 00 00 00 00 00 00	add64 r1, r3
   10514:	71 11 00 00 00 00 00 00	ldxb r1, [r1 + 0]
   10515:	7b 1a 98 ff 00 00 00 00	stxdw [r10 - 104], r1
   10516:	b7 01 00 00 20 00 00 00	mov64 r1, 32
   10517:	b7 02 00 00 08 00 00 00	mov64 r2, 8
   10518:	85 10 00 00 3c ed ff ff	call -4804
   10519:	55 00 04 00 00 00 00 00	jne r0, 0, +4 <custom_panic+0x9468>
   10520:	b7 01 00 00 08 00 00 00	mov64 r1, 8
   10521:	b7 02 00 00 20 00 00 00	mov64 r2, 32
   10522:	85 10 00 00 75 0d 00 00	call 3445
   10523:	85 10 00 00 ff ff ff ff	call -1
   10524:	bf 91 00 00 00 00 00 00	mov64 r1, r9
   10525:	0f 61 00 00 00 00 00 00	add64 r1, r6
   10526:	7b 10 18 00 00 00 00 00	stxdw [r0 + 24], r1
   10527:	b7 01 00 00 00 00 00 00	mov64 r1, 0
   10528:	7b 10 10 00 00 00 00 00	stxdw [r0 + 16], r1
   10529:	b7 02 00 00 01 00 00 00	mov64 r2, 1
   10530:	7b 20 08 00 00 00 00 00	stxdw [r0 + 8], r2
   10531:	7b 20 00 00 00 00 00 00	stxdw [r0 + 0], r2
   10532:	bf 61 00 00 00 00 00 00	mov64 r1, r6
   10533:	07 01 00 00 08 00 00 00	add64 r1, 8
   10534:	2d 16 01 00 00 00 00 00	jgt r6, r1, +1 <custom_panic+0x94c8>
   10535:	b7 02 00 00 00 00 00 00	mov64 r2, 0
   10536:	57 02 00 00 01 00 00 00	and64 r2, 1
   10537:	55 02 d3 00 00 00 00 00	jne r2, 0, +211 <custom_panic+0x9b70>
   10538:	bf 18 00 00 00 00 00 00	mov64 r8, r1
   10539:	07 08 00 00 08 00 00 00	add64 r8, 8
   10540:	b7 02 00 00 01 00 00 00	mov64 r2, 1
   10541:	2d 81 01 00 00 00 00 00	jgt r1, r8, +1 <custom_panic+0x9500>
   10542:	b7 02 00 00 00 00 00 00	mov64 r2, 0
   10543:	57 02 00 00 01 00 00 00	and64 r2, 1
   10544:	55 02 d3 00 00 00 00 00	jne r2, 0, +211 <custom_panic+0x9ba8>
   10545:	7b 0a 90 ff 00 00 00 00	stxdw [r10 - 112], r0
   10546:	bf 92 00 00 00 00 00 00	mov64 r2, r9
   10547:	0f 72 00 00 00 00 00 00	add64 r2, r7
   10548:	bf 93 00 00 00 00 00 00	mov64 r3, r9
   10549:	0f 13 00 00 00 00 00 00	add64 r3, r1
   10550:	79 36 00 00 00 00 00 00	ldxdw r6, [r3 + 0]
   10551:	63 62 00 00 00 00 00 00	stxw [r2 + 0], r6
   10552:	b7 01 00 00 28 00 00 00	mov64 r1, 40
   10553:	b7 02 00 00 08 00 00 00	mov64 r2, 8
   10554:	85 10 00 00 18 ed ff ff	call -4840
   10555:	bf 07 00 00 00 00 00 00	mov64 r7, r0
   10556:	55 07 04 00 00 00 00 00	jne r7, 0, +4 <custom_panic+0x9590>
   10557:	b7 01 00 00 08 00 00 00	mov64 r1, 8
   10558:	b7 02 00 00 28 00 00 00	mov64 r2, 40
   10559:	85 10 00 00 50 0d 00 00	call 3408
   10560:	85 10 00 00 ff ff ff ff	call -1
   10561:	bf 91 00 00 00 00 00 00	mov64 r1, r9
   10562:	0f 81 00 00 00 00 00 00	add64 r1, r8
   10563:	7b 17 18 00 00 00 00 00	stxdw [r7 + 24], r1
   10564:	7b 67 20 00 00 00 00 00	stxdw [r7 + 32], r6
   10565:	b7 01 00 00 00 00 00 00	mov64 r1, 0
   10566:	7b 17 10 00 00 00 00 00	stxdw [r7 + 16], r1
   10567:	b7 02 00 00 01 00 00 00	mov64 r2, 1
   10568:	7b 27 08 00 00 00 00 00	stxdw [r7 + 8], r2
   10569:	7b 27 00 00 00 00 00 00	stxdw [r7 + 0], r2
   10570:	bf 61 00 00 00 00 00 00	mov64 r1, r6
   10571:	07 01 00 00 00 28 00 00	add64 r1, 10240
   10572:	79 a5 a8 ff 00 00 00 00	ldxdw r5, [r10 - 88]
   10573:	79 a4 c0 ff 00 00 00 00	ldxdw r4, [r10 - 64]
   10574:	79 a0 d0 ff 00 00 00 00	ldxdw r0, [r10 - 48]
   10575:	2d 16 01 00 00 00 00 00	jgt r6, r1, +1 <custom_panic+0x9610>
   10576:	b7 02 00 00 00 00 00 00	mov64 r2, 0
   10577:	57 02 00 00 01 00 00 00	and64 r2, 1
   10578:	55 02 b8 00 00 00 00 00	jne r2, 0, +184 <custom_panic+0x9be0>
   10579:	bf 82 00 00 00 00 00 00	mov64 r2, r8
   10580:	0f 12 00 00 00 00 00 00	add64 r2, r1
   10581:	b7 01 00 00 01 00 00 00	mov64 r1, 1
   10582:	2d 28 01 00 00 00 00 00	jgt r8, r2, +1 <custom_panic+0x9648>
   10583:	b7 01 00 00 00 00 00 00	mov64 r1, 0
   10584:	57 01 00 00 01 00 00 00	and64 r1, 1
   10585:	55 01 b8 00 00 00 00 00	jne r1, 0, +184 <custom_panic+0x9c18>
   10586:	bf 21 00 00 00 00 00 00	mov64 r1, r2
   10587:	07 01 00 00 07 00 00 00	add64 r1, 7
   10588:	57 01 00 00 f8 ff ff ff	and64 r1, -8
   10589:	b7 03 00 00 01 00 00 00	mov64 r3, 1
   10590:	2d 12 01 00 00 00 00 00	jgt r2, r1, +1 <custom_panic+0x9688>
   10591:	b7 03 00 00 00 00 00 00	mov64 r3, 0
   10592:	57 03 00 00 01 00 00 00	and64 r3, 1
   10593:	55 03 b7 00 00 00 00 00	jne r3, 0, +183 <custom_panic+0x9c50>
   10594:	bf 13 00 00 00 00 00 00	mov64 r3, r1
   10595:	07 03 00 00 08 00 00 00	add64 r3, 8
   10596:	b7 02 00 00 01 00 00 00	mov64 r2, 1
   10597:	2d 31 01 00 00 00 00 00	jgt r1, r3, +1 <custom_panic+0x96c0>
   10598:	b7 02 00 00 00 00 00 00	mov64 r2, 0
   10599:	57 02 00 00 01 00 00 00	and64 r2, 1
   10600:	55 02 b7 00 00 00 00 00	jne r2, 0, +183 <custom_panic+0x9c88>
   10601:	bf 50 00 00 00 00 00 00	mov64 r0, r5
   10602:	79 a2 98 ff 00 00 00 00	ldxdw r2, [r10 - 104]
   10603:	b7 06 00 00 01 00 00 00	mov64 r6, 1
   10604:	b7 08 00 00 01 00 00 00	mov64 r8, 1
   10605:	55 02 01 00 00 00 00 00	jne r2, 0, +1 <custom_panic+0x9700>
   10606:	b7 08 00 00 00 00 00 00	mov64 r8, 0
   10607:	79 a2 c8 ff 00 00 00 00	ldxdw r2, [r10 - 56]
   10608:	b7 05 00 00 01 00 00 00	mov64 r5, 1
   10609:	7b 5a c8 ff 00 00 00 00	stxdw [r10 - 56], r5
   10610:	55 02 02 00 00 00 00 00	jne r2, 0, +2 <custom_panic+0x9730>
   10611:	b7 02 00 00 00 00 00 00	mov64 r2, 0
   10612:	7b 2a c8 ff 00 00 00 00	stxdw [r10 - 56], r2
   10613:	7b 8a 98 ff 00 00 00 00	stxdw [r10 - 104], r8
   10614:	79 a2 a0 ff 00 00 00 00	ldxdw r2, [r10 - 96]
   10615:	bf 05 00 00 00 00 00 00	mov64 r5, r0
   10616:	55 02 01 00 00 00 00 00	jne r2, 0, +1 <custom_panic+0x9758>
   10617:	b7 06 00 00 00 00 00 00	mov64 r6, 0
   10618:	7b 6a a0 ff 00 00 00 00	stxdw [r10 - 96], r6
   10619:	bf 96 00 00 00 00 00 00	mov64 r6, r9
   10620:	79 a2 b8 ff 00 00 00 00	ldxdw r2, [r10 - 72]
   10621:	0f 26 00 00 00 00 00 00	add64 r6, r2
   10622:	bf 92 00 00 00 00 00 00	mov64 r2, r9
   10623:	79 a0 d0 ff 00 00 00 00	ldxdw r0, [r10 - 48]
   10624:	0f 09 00 00 00 00 00 00	add64 r9, r0
   10625:	0f 12 00 00 00 00 00 00	add64 r2, r1
   10626:	79 28 00 00 00 00 00 00	ldxdw r8, [r2 + 0]
   10627:	79 a1 e8 ff 00 00 00 00	ldxdw r1, [r10 - 24]
   10628:	5d 14 08 00 00 00 00 00	jne r4, r1, +8 <custom_panic+0x97f0>
   10629:	bf a1 00 00 00 00 00 00	mov64 r1, r10
   10630:	07 01 00 00 e0 ff ff ff	add64 r1, -32
   10631:	bf 42 00 00 00 00 00 00	mov64 r2, r4
   10632:	7b 3a d0 ff 00 00 00 00	stxdw [r10 - 48], r3
   10633:	85 10 00 00 5c fd ff ff	call -676
   10634:	79 a3 d0 ff 00 00 00 00	ldxdw r3, [r10 - 48]
   10635:	79 a5 a8 ff 00 00 00 00	ldxdw r5, [r10 - 88]
   10636:	79 a4 f0 ff 00 00 00 00	ldxdw r4, [r10 - 16]
   10637:	bf 41 00 00 00 00 00 00	mov64 r1, r4
   10638:	27 01 00 00 30 00 00 00	mul64 r1, 48
   10639:	79 a0 e0 ff 00 00 00 00	ldxdw r0, [r10 - 32]
   10640:	bf 02 00 00 00 00 00 00	mov64 r2, r0
   10641:	0f 12 00 00 00 00 00 00	add64 r2, r1
   10642:	79 a1 98 ff 00 00 00 00	ldxdw r1, [r10 - 104]
   10643:	73 12 2a 00 00 00 00 00	stxb [r2 + 42], r1
   10644:	79 a1 c8 ff 00 00 00 00	ldxdw r1, [r10 - 56]
   10645:	73 12 29 00 00 00 00 00	stxb [r2 + 41], r1
   10646:	79 a1 a0 ff 00 00 00 00	ldxdw r1, [r10 - 96]
   10647:	73 12 28 00 00 00 00 00	stxb [r2 + 40], r1
   10648:	7b 82 20 00 00 00 00 00	stxdw [r2 + 32], r8
   10649:	7b 92 18 00 00 00 00 00	stxdw [r2 + 24], r9
   10650:	7b 72 10 00 00 00 00 00	stxdw [r2 + 16], r7
   10651:	79 a1 90 ff 00 00 00 00	ldxdw r1, [r10 - 112]
   10652:	7b 12 08 00 00 00 00 00	stxdw [r2 + 8], r1
   10653:	7b 62 00 00 00 00 00 00	stxdw [r2 + 0], r6
   10654:	07 04 00 00 01 00 00 00	add64 r4, 1
   10655:	7b 4a f0 ff 00 00 00 00	stxdw [r10 - 16], r4
   10656:	05 00 ec fe 00 00 00 00	ja -276 <custom_panic+0x8ff0>
   10657:	79 a1 88 ff 00 00 00 00	ldxdw r1, [r10 - 120]
   10658:	bf 35 00 00 00 00 00 00	mov64 r5, r3
   10659:	07 05 00 00 08 00 00 00	add64 r5, 8
   10660:	b7 02 00 00 01 00 00 00	mov64 r2, 1
   10661:	2d 53 01 00 00 00 00 00	jgt r3, r5, +1 <custom_panic+0x98c0>
   10662:	b7 02 00 00 00 00 00 00	mov64 r2, 0
   10663:	57 02 00 00 01 00 00 00	and64 r2, 1
   10664:	55 02 7e 00 00 00 00 00	jne r2, 0, +126 <custom_panic+0x9cc0>
   10665:	bf 92 00 00 00 00 00 00	mov64 r2, r9
   10666:	0f 32 00 00 00 00 00 00	add64 r2, r3
   10667:	79 23 00 00 00 00 00 00	ldxdw r3, [r2 + 0]
   10668:	bf 52 00 00 00 00 00 00	mov64 r2, r5
   10669:	0f 32 00 00 00 00 00 00	add64 r2, r3
   10670:	b7 04 00 00 01 00 00 00	mov64 r4, 1
   10671:	2d 25 01 00 00 00 00 00	jgt r5, r2, +1 <custom_panic+0x9910>
   10672:	b7 04 00 00 00 00 00 00	mov64 r4, 0
   10673:	57 04 00 00 01 00 00 00	and64 r4, 1
   10674:	55 04 7b 00 00 00 00 00	jne r4, 0, +123 <custom_panic+0x9cf8>
   10675:	79 a4 f0 ff 00 00 00 00	ldxdw r4, [r10 - 16]
   10676:	7b 41 18 00 00 00 00 00	stxdw [r1 + 24], r4
   10677:	79 a4 e8 ff 00 00 00 00	ldxdw r4, [r10 - 24]
   10678:	7b 41 10 00 00 00 00 00	stxdw [r1 + 16], r4
   10679:	79 a4 e0 ff 00 00 00 00	ldxdw r4, [r10 - 32]
   10680:	7b 41 08 00 00 00 00 00	stxdw [r1 + 8], r4
   10681:	7b 31 28 00 00 00 00 00	stxdw [r1 + 40], r3
   10682:	bf 93 00 00 00 00 00 00	mov64 r3, r9
   10683:	0f 53 00 00 00 00 00 00	add64 r3, r5
   10684:	7b 31 20 00 00 00 00 00	stxdw [r1 + 32], r3
   10685:	0f 29 00 00 00 00 00 00	add64 r9, r2
   10686:	7b 91 00 00 00 00 00 00	stxdw [r1 + 0], r9
   10687:	95 00 00 00 00 00 00 00	exit
   10688:	18 01 00 00 c0 61 02 00 00 00 00 00 00 00 00 00	lddw r1, 156096
   10690:	b7 02 00 00 1c 00 00 00	mov64 r2, 28
   10691:	18 03 00 00 e8 82 02 00 00 00 00 00 00 00 00 00	lddw r3, 164584
   10693:	85 10 00 00 a1 0f 00 00	call 4001
   10694:	85 10 00 00 ff ff ff ff	call -1
   10695:	18 01 00 00 c0 61 02 00 00 00 00 00 00 00 00 00	lddw r1, 156096
   10697:	b7 02 00 00 1c 00 00 00	mov64 r2, 28
   10698:	18 03 00 00 00 83 02 00 00 00 00 00 00 00 00 00	lddw r3, 164608
   10700:	85 10 00 00 9a 0f 00 00	call 3994
   10701:	85 10 00 00 ff ff ff ff	call -1
   10702:	bf 42 00 00 00 00 00 00	mov64 r2, r4
   10703:	18 03 00 00 18 83 02 00 00 00 00 00 00 00 00 00	lddw r3, 164632
   10705:	85 10 00 00 a7 0f 00 00	call 4007
   10706:	85 10 00 00 ff ff ff ff	call -1
   10707:	18 01 00 00 c0 61 02 00 00 00 00 00 00 00 00 00	lddw r1, 156096
   10709:	b7 02 00 00 1c 00 00 00	mov64 r2, 28
   10710:	18 03 00 00 30 83 02 00 00 00 00 00 00 00 00 00	lddw r3, 164656
   10712:	85 10 00 00 8e 0f 00 00	call 3982
   10713:	85 10 00 00 ff ff ff ff	call -1
   10714:	18 01 00 00 c0 61 02 00 00 00 00 00 00 00 00 00	lddw r1, 156096
   10716:	b7 02 00 00 1c 00 00 00	mov64 r2, 28
   10717:	18 03 00 00 48 83 02 00 00 00 00 00 00 00 00 00	lddw r3, 164680
   10719:	85 10 00 00 87 0f 00 00	call 3975
   10720:	85 10 00 00 ff ff ff ff	call -1
   10721:	18 01 00 00 c0 61 02 00 00 00 00 00 00 00 00 00	lddw r1, 156096
   10723:	b7 02 00 00 1c 00 00 00	mov64 r2, 28
   10724:	18 03 00 00 60 83 02 00 00 00 00 00 00 00 00 00	lddw r3, 164704
   10726:	85 10 00 00 80 0f 00 00	call 3968
   10727:	85 10 00 00 ff ff ff ff	call -1
   10728:	18 01 00 00 c0 61 02 00 00 00 00 00 00 00 00 00	lddw r1, 156096
   10730:	b7 02 00 00 1c 00 00 00	mov64 r2, 28
   10731:	18 03 00 00 78 83 02 00 00 00 00 00 00 00 00 00	lddw r3, 164728
   10733:	85 10 00 00 79 0f 00 00	call 3961
   10734:	85 10 00 00 ff ff ff ff	call -1
   10735:	18 01 00 00 c0 61 02 00 00 00 00 00 00 00 00 00	lddw r1, 156096
   10737:	b7 02 00 00 1c 00 00 00	mov64 r2, 28
   10738:	18 03 00 00 90 83 02 00 00 00 00 00 00 00 00 00	lddw r3, 164752
   10740:	85 10 00 00 72 0f 00 00	call 3954
   10741:	85 10 00 00 ff ff ff ff	call -1
   10742:	18 01 00 00 c0 61 02 00 00 00 00 00 00 00 00 00	lddw r1, 156096
   10744:	b7 02 00 00 1c 00 00 00	mov64 r2, 28
   10745:	18 03 00 00 a8 83 02 00 00 00 00 00 00 00 00 00	lddw r3, 164776
   10747:	85 10 00 00 6b 0f 00 00	call 3947
   10748:	85 10 00 00 ff ff ff ff	call -1
   10749:	18 01 00 00 c0 61 02 00 00 00 00 00 00 00 00 00	lddw r1, 156096
   10751:	b7 02 00 00 1c 00 00 00	mov64 r2, 28
   10752:	18 03 00 00 c0 83 02 00 00 00 00 00 00 00 00 00	lddw r3, 164800
   10754:	85 10 00 00 64 0f 00 00	call 3940
   10755:	85 10 00 00 ff ff ff ff	call -1
   10756:	18 01 00 00 c0 61 02 00 00 00 00 00 00 00 00 00	lddw r1, 156096
   10758:	b7 02 00 00 1c 00 00 00	mov64 r2, 28
   10759:	18 03 00 00 d8 83 02 00 00 00 00 00 00 00 00 00	lddw r3, 164824
   10761:	85 10 00 00 5d 0f 00 00	call 3933
   10762:	85 10 00 00 ff ff ff ff	call -1
   10763:	18 01 00 00 c0 61 02 00 00 00 00 00 00 00 00 00	lddw r1, 156096
   10765:	b7 02 00 00 1c 00 00 00	mov64 r2, 28
   10766:	18 03 00 00 f0 83 02 00 00 00 00 00 00 00 00 00	lddw r3, 164848
   10768:	85 10 00 00 56 0f 00 00	call 3926
   10769:	85 10 00 00 ff ff ff ff	call -1
   10770:	18 01 00 00 c0 61 02 00 00 00 00 00 00 00 00 00	lddw r1, 156096
   10772:	b7 02 00 00 1c 00 00 00	mov64 r2, 28
   10773:	18 03 00 00 08 84 02 00 00 00 00 00 00 00 00 00	lddw r3, 164872
   10775:	85 10 00 00 4f 0f 00 00	call 3919
   10776:	85 10 00 00 ff ff ff ff	call -1
   10777:	18 01 00 00 c0 61 02 00 00 00 00 00 00 00 00 00	lddw r1, 156096
   10779:	b7 02 00 00 1c 00 00 00	mov64 r2, 28
   10780:	18 03 00 00 20 84 02 00 00 00 00 00 00 00 00 00	lddw r3, 164896
   10782:	85 10 00 00 48 0f 00 00	call 3912
   10783:	85 10 00 00 ff ff ff ff	call -1
   10784:	18 01 00 00 c0 61 02 00 00 00 00 00 00 00 00 00	lddw r1, 156096
   10786:	b7 02 00 00 1c 00 00 00	mov64 r2, 28
   10787:	18 03 00 00 38 84 02 00 00 00 00 00 00 00 00 00	lddw r3, 164920
   10789:	85 10 00 00 41 0f 00 00	call 3905
   10790:	85 10 00 00 ff ff ff ff	call -1
   10791:	18 01 00 00 c0 61 02 00 00 00 00 00 00 00 00 00	lddw r1, 156096
   10793:	b7 02 00 00 1c 00 00 00	mov64 r2, 28
   10794:	18 03 00 00 b8 82 02 00 00 00 00 00 00 00 00 00	lddw r3, 164536
   10796:	85 10 00 00 3a 0f 00 00	call 3898
   10797:	85 10 00 00 ff ff ff ff	call -1
   10798:	18 01 00 00 c0 61 02 00 00 00 00 00 00 00 00 00	lddw r1, 156096
   10800:	b7 02 00 00 1c 00 00 00	mov64 r2, 28
   10801:	18 03 00 00 d0 82 02 00 00 00 00 00 00 00 00 00	lddw r3, 164560
   10803:	85 10 00 00 33 0f 00 00	call 3891
   10804:	85 10 00 00 ff ff ff ff	call -1
   10805:	79 23 00 00 00 00 00 00	ldxdw r3, [r2 + 0]
   10806:	79 24 08 00 00 00 00 00	ldxdw r4, [r2 + 8]
   10807:	79 25 10 00 00 00 00 00	ldxdw r5, [r2 + 16]
   10808:	79 22 18 00 00 00 00 00	ldxdw r2, [r2 + 24]
   10809:	7b 21 18 00 00 00 00 00	stxdw [r1 + 24], r2
   10810:	7b 51 10 00 00 00 00 00	stxdw [r1 + 16], r5
   10811:	7b 41 08 00 00 00 00 00	stxdw [r1 + 8], r4
   10812:	7b 31 00 00 00 00 00 00	stxdw [r1 + 0], r3
   10813:	95 00 00 00 00 00 00 00	exit
   10814:	79 23 00 00 00 00 00 00	ldxdw r3, [r2 + 0]
   10815:	79 24 08 00 00 00 00 00	ldxdw r4, [r2 + 8]
   10816:	79 25 10 00 00 00 00 00	ldxdw r5, [r2 + 16]
   10817:	79 22 18 00 00 00 00 00	ldxdw r2, [r2 + 24]
   10818:	7b 21 18 00 00 00 00 00	stxdw [r1 + 24], r2
   10819:	7b 51 10 00 00 00 00 00	stxdw [r1 + 16], r5
   10820:	7b 41 08 00 00 00 00 00	stxdw [r1 + 8], r4
   10821:	7b 31 00 00 00 00 00 00	stxdw [r1 + 0], r3
   10822:	95 00 00 00 00 00 00 00	exit
   10823:	bf 46 00 00 00 00 00 00	mov64 r6, r4
   10824:	bf 37 00 00 00 00 00 00	mov64 r7, r3
   10825:	7b 2a d0 ff 00 00 00 00	stxdw [r10 - 48], r2
   10826:	bf 19 00 00 00 00 00 00	mov64 r9, r1
   10827:	85 10 00 00 cc 07 00 00	call 1996
   10828:	bf 72 00 00 00 00 00 00	mov64 r2, r7
   10829:	bf a1 00 00 00 00 00 00	mov64 r1, r10
   10830:	07 01 00 00 f8 ff ff ff	add64 r1, -8
   10831:	7b 1a e0 ff 00 00 00 00	stxdw [r10 - 32], r1
   10832:	b7 08 00 00 0c 00 00 00	mov64 r8, 12
   10833:	71 27 00 00 00 00 00 00	ldxb r7, [r2 + 0]
   10834:	7b 2a d8 ff 00 00 00 00	stxdw [r10 - 40], r2
   10835:	65 07 32 00 05 00 00 00	jsgt r7, 5, +50 <custom_panic+0x9fb8>
   10836:	65 07 04 00 02 00 00 00	jsgt r7, 2, +4 <custom_panic+0x9e50>
   10837:	b7 01 00 00 14 00 00 00	mov64 r1, 20
   10838:	15 07 4b 00 00 00 00 00	jeq r7, 0, +75 <custom_panic+0xa098>
   10839:	15 07 49 00 01 00 00 00	jeq r7, 1, +73 <custom_panic+0xa090>
   10840:	05 00 30 00 00 00 00 00	ja +48 <custom_panic+0x9fd0>
   10841:	15 07 02 00 03 00 00 00	jeq r7, 3, +2 <custom_panic+0x9e68>
   10842:	15 07 c9 00 04 00 00 00	jeq r7, 4, +201 <custom_panic+0xa4a8>
   10843:	05 00 2d 00 00 00 00 00	ja +45 <custom_panic+0x9fd0>
   10844:	b7 01 00 00 04 00 00 00	mov64 r1, 4
   10845:	7b 1a e8 ff 00 00 00 00	stxdw [r10 - 24], r1
   10846:	bf a1 00 00 00 00 00 00	mov64 r1, r10
   10847:	07 01 00 00 e0 ff ff ff	add64 r1, -32
   10848:	85 10 00 00 ec fc ff ff	call -788
   10849:	79 a3 e8 ff 00 00 00 00	ldxdw r3, [r10 - 24]
   10850:	bf 31 00 00 00 00 00 00	mov64 r1, r3
   10851:	07 01 00 00 08 00 00 00	add64 r1, 8
   10852:	b7 02 00 00 01 00 00 00	mov64 r2, 1
   10853:	2d 13 01 00 00 00 00 00	jgt r3, r1, +1 <custom_panic+0x9ec0>
   10854:	b7 02 00 00 00 00 00 00	mov64 r2, 0
   10855:	79 a3 d8 ff 00 00 00 00	ldxdw r3, [r10 - 40]
   10856:	55 02 07 00 01 00 00 00	jne r2, 1, +7 <custom_panic+0x9f08>
   10857:	18 01 00 00 c0 61 02 00 00 00 00 00 00 00 00 00	lddw r1, 156096
   10859:	b7 02 00 00 1c 00 00 00	mov64 r2, 28
   10860:	18 03 00 00 68 82 02 00 00 00 00 00 00 00 00 00	lddw r3, 164456
   10862:	85 10 00 00 f8 0e 00 00	call 3832
   10863:	85 10 00 00 ff ff ff ff	call -1
   10864:	79 33 68 00 00 00 00 00	ldxdw r3, [r3 + 104]
   10865:	bf 12 00 00 00 00 00 00	mov64 r2, r1
   10866:	0f 32 00 00 00 00 00 00	add64 r2, r3
   10867:	b7 03 00 00 01 00 00 00	mov64 r3, 1
   10868:	2d 21 01 00 00 00 00 00	jgt r1, r2, +1 <custom_panic+0x9f38>
   10869:	b7 03 00 00 00 00 00 00	mov64 r3, 0
   10870:	55 03 01 00 01 00 00 00	jne r3, 1, +1 <custom_panic+0x9f48>
   10871:	05 00 f1 ff 00 00 00 00	ja -15 <custom_panic+0x9ed0>
   10872:	bf 23 00 00 00 00 00 00	mov64 r3, r2
   10873:	07 03 00 00 08 00 00 00	add64 r3, 8
   10874:	b7 01 00 00 01 00 00 00	mov64 r1, 1
   10875:	2d 32 01 00 00 00 00 00	jgt r2, r3, +1 <custom_panic+0x9f70>
   10876:	b7 01 00 00 00 00 00 00	mov64 r1, 0
   10877:	55 01 01 00 01 00 00 00	jne r1, 1, +1 <custom_panic+0x9f80>
   10878:	05 00 ea ff 00 00 00 00	ja -22 <custom_panic+0x9ed0>
   10879:	bf 31 00 00 00 00 00 00	mov64 r1, r3
   10880:	07 01 00 00 08 00 00 00	add64 r1, 8
   10881:	b7 02 00 00 01 00 00 00	mov64 r2, 1
   10882:	2d 13 01 00 00 00 00 00	jgt r3, r1, +1 <custom_panic+0x9fa8>
   10883:	b7 02 00 00 00 00 00 00	mov64 r2, 0
   10884:	55 02 1d 00 01 00 00 00	jne r2, 1, +29 <custom_panic+0xa098>
   10885:	05 00 e3 ff 00 00 00 00	ja -29 <custom_panic+0x9ed0>
   10886:	65 07 0a 00 08 00 00 00	jsgt r7, 8, +10 <custom_panic+0xa010>
   10887:	15 07 19 00 06 00 00 00	jeq r7, 6, +25 <custom_panic+0xa090>
   10888:	15 07 18 00 07 00 00 00	jeq r7, 7, +24 <custom_panic+0xa090>
   10889:	bf 81 00 00 00 00 00 00	mov64 r1, r8
   10890:	b7 02 00 00 01 00 00 00	mov64 r2, 1
   10891:	85 10 00 00 c7 eb ff ff	call -5177
   10892:	55 00 21 00 00 00 00 00	jne r0, 0, +33 <custom_panic+0xa0f8>
   10893:	b7 01 00 00 01 00 00 00	mov64 r1, 1
   10894:	bf 82 00 00 00 00 00 00	mov64 r2, r8
   10895:	85 10 00 00 00 0c 00 00	call 3072
   10896:	85 10 00 00 ff ff ff ff	call -1
   10897:	65 07 91 00 0a 00 00 00	jsgt r7, 10, +145 <custom_panic+0xa4a0>
   10898:	15 07 9a 00 09 00 00 00	jeq r7, 9, +154 <custom_panic+0xa4f0>
   10899:	b7 01 00 00 04 00 00 00	mov64 r1, 4
   10900:	7b 1a e8 ff 00 00 00 00	stxdw [r10 - 24], r1
   10901:	bf a1 00 00 00 00 00 00	mov64 r1, r10
   10902:	07 01 00 00 e0 ff ff ff	add64 r1, -32
   10903:	85 10 00 00 b5 fc ff ff	call -843
   10904:	79 a3 e8 ff 00 00 00 00	ldxdw r3, [r10 - 24]
   10905:	bf 32 00 00 00 00 00 00	mov64 r2, r3
   10906:	07 02 00 00 08 00 00 00	add64 r2, 8
   10907:	b7 01 00 00 01 00 00 00	mov64 r1, 1
   10908:	2d 23 01 00 00 00 00 00	jgt r3, r2, +1 <custom_panic+0xa078>
   10909:	b7 01 00 00 00 00 00 00	mov64 r1, 0
   10910:	79 a3 d8 ff 00 00 00 00	ldxdw r3, [r10 - 40]
   10911:	55 01 f4 02 01 00 00 00	jne r1, 1, +756 <custom_panic+0xb828>
   10912:	05 00 c8 ff 00 00 00 00	ja -56 <custom_panic+0x9ed0>
   10913:	b7 01 00 00 04 00 00 00	mov64 r1, 4
   10914:	7b 1a e8 ff 00 00 00 00	stxdw [r10 - 24], r1
   10915:	bf a1 00 00 00 00 00 00	mov64 r1, r10
   10916:	07 01 00 00 e0 ff ff ff	add64 r1, -32
   10917:	85 10 00 00 a7 fc ff ff	call -857
   10918:	b7 00 00 00 01 00 00 00	mov64 r0, 1
   10919:	b7 08 00 00 00 00 00 00	mov64 r8, 0
   10920:	79 a1 e8 ff 00 00 00 00	ldxdw r1, [r10 - 24]
   10921:	15 01 04 00 00 00 00 00	jeq r1, 0, +4 <custom_panic+0xa0f8>
   10922:	bf 18 00 00 00 00 00 00	mov64 r8, r1
   10923:	65 01 dd ff ff ff ff ff	jsgt r1, -1, -35 <custom_panic+0x9fd0>
   10924:	85 10 00 00 d2 0b 00 00	call 3026
   10925:	85 10 00 00 ff ff ff ff	call -1
   10926:	b7 01 00 00 00 00 00 00	mov64 r1, 0
   10927:	7b 1a f0 ff 00 00 00 00	stxdw [r10 - 16], r1
   10928:	7b 8a e8 ff 00 00 00 00	stxdw [r10 - 24], r8
   10929:	7b 0a e0 ff 00 00 00 00	stxdw [r10 - 32], r0
   10930:	7b 6a c8 ff 00 00 00 00	stxdw [r10 - 56], r6
   10931:	65 07 12 00 05 00 00 00	jsgt r7, 5, +18 <custom_panic+0xa1b8>
   10932:	65 07 58 00 02 00 00 00	jsgt r7, 2, +88 <custom_panic+0xa3f0>
   10933:	15 07 8d 00 00 00 00 00	jeq r7, 0, +141 <custom_panic+0xa5a0>
   10934:	15 07 cd 00 01 00 00 00	jeq r7, 1, +205 <custom_panic+0xa7a8>
   10935:	b7 07 00 00 00 00 00 00	mov64 r7, 0
   10936:	25 08 01 00 03 00 00 00	jgt r8, 3, +1 <custom_panic+0xa158>
   10937:	05 00 f1 02 00 00 00 00	ja +753 <custom_panic+0xb8e0>
   10938:	0f 70 00 00 00 00 00 00	add64 r0, r7
   10939:	b7 01 00 00 02 00 00 00	mov64 r1, 2
   10940:	63 10 00 00 00 00 00 00	stxw [r0 + 0], r1
   10941:	07 07 00 00 04 00 00 00	add64 r7, 4
   10942:	7b 7a f0 ff 00 00 00 00	stxdw [r10 - 16], r7
   10943:	79 a1 e8 ff 00 00 00 00	ldxdw r1, [r10 - 24]
   10944:	1f 71 00 00 00 00 00 00	sub64 r1, r7
   10945:	79 a2 d8 ff 00 00 00 00	ldxdw r2, [r10 - 40]
   10946:	79 26 08 00 00 00 00 00	ldxdw r6, [r2 + 8]
   10947:	b7 02 00 00 08 00 00 00	mov64 r2, 8
   10948:	2d 12 57 00 00 00 00 00	jgt r2, r1, +87 <custom_panic+0xa468>
   10949:	05 00 10 00 00 00 00 00	ja +16 <custom_panic+0xa238>
   10950:	65 07 14 00 08 00 00 00	jsgt r7, 8, +20 <custom_panic+0xa260>
   10951:	15 07 e3 00 06 00 00 00	jeq r7, 6, +227 <custom_panic+0xa8e0>
   10952:	15 07 09 01 07 00 00 00	jeq r7, 7, +265 <custom_panic+0xaa18>
   10953:	b7 07 00 00 00 00 00 00	mov64 r7, 0
   10954:	25 08 01 00 03 00 00 00	jgt r8, 3, +1 <custom_panic+0xa1e8>
   10955:	05 00 e7 02 00 00 00 00	ja +743 <custom_panic+0xb920>
   10956:	0f 70 00 00 00 00 00 00	add64 r0, r7
   10957:	b7 01 00 00 08 00 00 00	mov64 r1, 8
   10958:	63 10 00 00 00 00 00 00	stxw [r0 + 0], r1
   10959:	07 07 00 00 04 00 00 00	add64 r7, 4
   10960:	7b 7a f0 ff 00 00 00 00	stxdw [r10 - 16], r7
   10961:	79 a2 e8 ff 00 00 00 00	ldxdw r2, [r10 - 24]
   10962:	1f 72 00 00 00 00 00 00	sub64 r2, r7
   10963:	79 a3 d8 ff 00 00 00 00	ldxdw r3, [r10 - 40]
   10964:	79 36 08 00 00 00 00 00	ldxdw r6, [r3 + 8]
   10965:	2d 21 46 00 00 00 00 00	jgt r1, r2, +70 <custom_panic+0xa468>
   10966:	79 a1 e0 ff 00 00 00 00	ldxdw r1, [r10 - 32]
   10967:	0f 71 00 00 00 00 00 00	add64 r1, r7
   10968:	7b 61 00 00 00 00 00 00	stxdw [r1 + 0], r6
   10969:	07 07 00 00 08 00 00 00	add64 r7, 8
   10970:	05 00 95 02 00 00 00 00	ja +661 <custom_panic+0xb708>
   10971:	65 07 4a 00 0a 00 00 00	jsgt r7, 10, +74 <custom_panic+0xa4b8>
   10972:	7b 9a c0 ff 00 00 00 00	stxdw [r10 - 64], r9
   10973:	15 07 1b 01 09 00 00 00	jeq r7, 9, +283 <custom_panic+0xab50>
   10974:	b7 09 00 00 00 00 00 00	mov64 r9, 0
   10975:	b7 07 00 00 00 00 00 00	mov64 r7, 0
   10976:	25 08 01 00 03 00 00 00	jgt r8, 3, +1 <custom_panic+0xa298>
   10977:	05 00 d9 02 00 00 00 00	ja +729 <custom_panic+0xb960>
   10978:	79 a8 d8 ff 00 00 00 00	ldxdw r8, [r10 - 40]
   10979:	bf 81 00 00 00 00 00 00	mov64 r1, r8
   10980:	07 01 00 00 21 00 00 00	add64 r1, 33
   10981:	7b 1a b8 ff 00 00 00 00	stxdw [r10 - 72], r1
   10982:	07 08 00 00 01 00 00 00	add64 r8, 1
   10983:	0f 70 00 00 00 00 00 00	add64 r0, r7
   10984:	b7 01 00 00 0a 00 00 00	mov64 r1, 10
   10985:	63 10 00 00 00 00 00 00	stxw [r0 + 0], r1
   10986:	07 07 00 00 04 00 00 00	add64 r7, 4
   10987:	7b 7a f0 ff 00 00 00 00	stxdw [r10 - 16], r7
   10988:	05 00 14 00 00 00 00 00	ja +20 <custom_panic+0xa390>
   10989:	07 09 00 00 01 00 00 00	add64 r9, 1
   10990:	79 a1 e0 ff 00 00 00 00	ldxdw r1, [r10 - 32]
   10991:	0f 71 00 00 00 00 00 00	add64 r1, r7
   10992:	73 61 00 00 00 00 00 00	stxb [r1 + 0], r6
   10993:	07 07 00 00 01 00 00 00	add64 r7, 1
   10994:	7b 7a f0 ff 00 00 00 00	stxdw [r10 - 16], r7
   10995:	55 09 0d 00 20 00 00 00	jne r9, 32, +13 <custom_panic+0xa390>
   10996:	79 a1 e8 ff 00 00 00 00	ldxdw r1, [r10 - 24]
   10997:	1f 71 00 00 00 00 00 00	sub64 r1, r7
   10998:	79 a2 d8 ff 00 00 00 00	ldxdw r2, [r10 - 40]
   10999:	79 28 58 00 00 00 00 00	ldxdw r8, [r2 + 88]
   11000:	79 29 48 00 00 00 00 00	ldxdw r9, [r2 + 72]
   11001:	25 01 34 01 07 00 00 00	jgt r1, 7, +308 <custom_panic+0xacf8>
   11002:	bf a1 00 00 00 00 00 00	mov64 r1, r10
   11003:	07 01 00 00 e0 ff ff ff	add64 r1, -32
   11004:	bf 72 00 00 00 00 00 00	mov64 r2, r7
   11005:	b7 03 00 00 08 00 00 00	mov64 r3, 8
   11006:	85 10 00 00 1b fc ff ff	call -997
   11007:	79 a7 f0 ff 00 00 00 00	ldxdw r7, [r10 - 16]
   11008:	05 00 2d 01 00 00 00 00	ja +301 <custom_panic+0xacf8>
   11009:	bf 81 00 00 00 00 00 00	mov64 r1, r8
   11010:	0f 91 00 00 00 00 00 00	add64 r1, r9
   11011:	71 16 00 00 00 00 00 00	ldxb r6, [r1 + 0]
   11012:	79 a1 e8 ff 00 00 00 00	ldxdw r1, [r10 - 24]
   11013:	5d 71 e7 ff 00 00 00 00	jne r1, r7, -25 <custom_panic+0xa2f0>
   11014:	bf a1 00 00 00 00 00 00	mov64 r1, r10
   11015:	07 01 00 00 e0 ff ff ff	add64 r1, -32
   11016:	bf 72 00 00 00 00 00 00	mov64 r2, r7
   11017:	b7 03 00 00 01 00 00 00	mov64 r3, 1
   11018:	85 10 00 00 0f fc ff ff	call -1009
   11019:	79 a7 f0 ff 00 00 00 00	ldxdw r7, [r10 - 16]
   11020:	05 00 e0 ff 00 00 00 00	ja -32 <custom_panic+0xa2f0>
   11021:	15 07 4d 01 03 00 00 00	jeq r7, 3, +333 <custom_panic+0xae60>
   11022:	15 07 83 01 04 00 00 00	jeq r7, 4, +387 <custom_panic+0xb018>
   11023:	b7 07 00 00 00 00 00 00	mov64 r7, 0
   11024:	79 a1 d8 ff 00 00 00 00	ldxdw r1, [r10 - 40]
   11025:	79 16 08 00 00 00 00 00	ldxdw r6, [r1 + 8]
   11026:	25 08 01 00 03 00 00 00	jgt r8, 3, +1 <custom_panic+0xa428>
   11027:	05 00 af 02 00 00 00 00	ja +687 <custom_panic+0xb9a0>
   11028:	0f 70 00 00 00 00 00 00	add64 r0, r7
   11029:	b7 01 00 00 05 00 00 00	mov64 r1, 5
   11030:	63 10 00 00 00 00 00 00	stxw [r0 + 0], r1
   11031:	07 07 00 00 04 00 00 00	add64 r7, 4
   11032:	7b 7a f0 ff 00 00 00 00	stxdw [r10 - 16], r7
   11033:	79 a1 e8 ff 00 00 00 00	ldxdw r1, [r10 - 24]
   11034:	1f 71 00 00 00 00 00 00	sub64 r1, r7
   11035:	25 01 ba ff 07 00 00 00	jgt r1, 7, -70 <custom_panic+0xa238>
   11036:	bf a1 00 00 00 00 00 00	mov64 r1, r10
   11037:	07 01 00 00 e0 ff ff ff	add64 r1, -32
   11038:	bf 72 00 00 00 00 00 00	mov64 r2, r7
   11039:	b7 03 00 00 08 00 00 00	mov64 r3, 8
   11040:	85 10 00 00 f9 fb ff ff	call -1031
   11041:	79 a7 f0 ff 00 00 00 00	ldxdw r7, [r10 - 16]
   11042:	05 00 b3 ff 00 00 00 00	ja -77 <custom_panic+0xa238>
   11043:	15 07 17 00 0b 00 00 00	jeq r7, 11, +23 <custom_panic+0xa560>
   11044:	b7 08 00 00 04 00 00 00	mov64 r8, 4
   11045:	05 00 63 ff 00 00 00 00	ja -157 <custom_panic+0x9fd0>
   11046:	15 07 79 01 0b 00 00 00	jeq r7, 11, +377 <custom_panic+0xb088>
   11047:	b7 07 00 00 00 00 00 00	mov64 r7, 0
   11048:	25 08 01 00 03 00 00 00	jgt r8, 3, +1 <custom_panic+0xa4d8>
   11049:	05 00 a1 02 00 00 00 00	ja +673 <custom_panic+0xb9e0>
   11050:	0f 70 00 00 00 00 00 00	add64 r0, r7
   11051:	b7 01 00 00 0c 00 00 00	mov64 r1, 12
   11052:	05 00 70 01 00 00 00 00	ja +368 <custom_panic+0xb070>
   11053:	b7 01 00 00 04 00 00 00	mov64 r1, 4
   11054:	7b 1a e8 ff 00 00 00 00	stxdw [r10 - 24], r1
   11055:	bf a1 00 00 00 00 00 00	mov64 r1, r10
   11056:	07 01 00 00 e0 ff ff ff	add64 r1, -32
   11057:	85 10 00 00 1b fc ff ff	call -997
   11058:	79 a3 e8 ff 00 00 00 00	ldxdw r3, [r10 - 24]
   11059:	bf 31 00 00 00 00 00 00	mov64 r1, r3
   11060:	07 01 00 00 08 00 00 00	add64 r1, 8
   11061:	b7 02 00 00 01 00 00 00	mov64 r2, 1
   11062:	2d 13 01 00 00 00 00 00	jgt r3, r1, +1 <custom_panic+0xa548>
   11063:	b7 02 00 00 00 00 00 00	mov64 r2, 0
   11064:	79 a3 d8 ff 00 00 00 00	ldxdw r3, [r10 - 40]
   11065:	55 02 62 02 01 00 00 00	jne r2, 1, +610 <custom_panic+0xb868>
   11066:	05 00 2e ff 00 00 00 00	ja -210 <custom_panic+0x9ed0>
   11067:	79 23 40 00 00 00 00 00	ldxdw r3, [r2 + 64]
   11068:	bf 31 00 00 00 00 00 00	mov64 r1, r3
   11069:	07 01 00 00 14 00 00 00	add64 r1, 20
   11070:	b7 02 00 00 01 00 00 00	mov64 r2, 1
   11071:	2d 13 01 00 00 00 00 00	jgt r3, r1, +1 <custom_panic+0xa590>
   11072:	b7 02 00 00 00 00 00 00	mov64 r2, 0
   11073:	55 02 60 ff 01 00 00 00	jne r2, 1, -160 <custom_panic+0xa098>
   11074:	05 00 26 ff 00 00 00 00	ja -218 <custom_panic+0x9ed0>
   11075:	b7 06 00 00 00 00 00 00	mov64 r6, 0
   11076:	b7 07 00 00 00 00 00 00	mov64 r7, 0
   11077:	25 08 07 00 03 00 00 00	jgt r8, 3, +7 <custom_panic+0xa5f0>
   11078:	bf a1 00 00 00 00 00 00	mov64 r1, r10
   11079:	07 01 00 00 e0 ff ff ff	add64 r1, -32
   11080:	b7 02 00 00 00 00 00 00	mov64 r2, 0
   11081:	b7 03 00 00 04 00 00 00	mov64 r3, 4
   11082:	85 10 00 00 cf fb ff ff	call -1073
   11083:	79 a0 e0 ff 00 00 00 00	ldxdw r0, [r10 - 32]
   11084:	79 a7 f0 ff 00 00 00 00	ldxdw r7, [r10 - 16]
   11085:	0f 70 00 00 00 00 00 00	add64 r0, r7
   11086:	63 60 00 00 00 00 00 00	stxw [r0 + 0], r6
   11087:	07 07 00 00 04 00 00 00	add64 r7, 4
   11088:	7b 7a f0 ff 00 00 00 00	stxdw [r10 - 16], r7
   11089:	79 a1 e8 ff 00 00 00 00	ldxdw r1, [r10 - 24]
   11090:	1f 71 00 00 00 00 00 00	sub64 r1, r7
   11091:	79 a4 d8 ff 00 00 00 00	ldxdw r4, [r10 - 40]
   11092:	79 46 08 00 00 00 00 00	ldxdw r6, [r4 + 8]
   11093:	b7 02 00 00 08 00 00 00	mov64 r2, 8
   11094:	2d 12 7c 02 00 00 00 00	jgt r2, r1, +636 <custom_panic+0xba20>
   11095:	79 a1 e0 ff 00 00 00 00	ldxdw r1, [r10 - 32]
   11096:	0f 71 00 00 00 00 00 00	add64 r1, r7
   11097:	7b 61 00 00 00 00 00 00	stxdw [r1 + 0], r6
   11098:	07 07 00 00 08 00 00 00	add64 r7, 8
   11099:	7b 7a f0 ff 00 00 00 00	stxdw [r10 - 16], r7
   11100:	79 a1 e8 ff 00 00 00 00	ldxdw r1, [r10 - 24]
   11101:	1f 71 00 00 00 00 00 00	sub64 r1, r7
   11102:	79 46 10 00 00 00 00 00	ldxdw r6, [r4 + 16]
   11103:	25 01 07 00 07 00 00 00	jgt r1, 7, +7 <custom_panic+0xa6c0>
   11104:	bf a1 00 00 00 00 00 00	mov64 r1, r10
   11105:	07 01 00 00 e0 ff ff ff	add64 r1, -32
   11106:	bf 72 00 00 00 00 00 00	mov64 r2, r7
   11107:	b7 03 00 00 08 00 00 00	mov64 r3, 8
   11108:	85 10 00 00 b5 fb ff ff	call -1099
   11109:	79 a4 d8 ff 00 00 00 00	ldxdw r4, [r10 - 40]
   11110:	79 a7 f0 ff 00 00 00 00	ldxdw r7, [r10 - 16]
   11111:	07 04 00 00 18 00 00 00	add64 r4, 24
   11112:	79 a1 e0 ff 00 00 00 00	ldxdw r1, [r10 - 32]
   11113:	0f 71 00 00 00 00 00 00	add64 r1, r7
   11114:	7b 61 00 00 00 00 00 00	stxdw [r1 + 0], r6
   11115:	b7 06 00 00 00 00 00 00	mov64 r6, 0
   11116:	07 07 00 00 08 00 00 00	add64 r7, 8
   11117:	7b 7a f0 ff 00 00 00 00	stxdw [r10 - 16], r7
   11118:	05 00 07 00 00 00 00 00	ja +7 <custom_panic+0xa738>
   11119:	07 06 00 00 01 00 00 00	add64 r6, 1
   11120:	79 a1 e0 ff 00 00 00 00	ldxdw r1, [r10 - 32]
   11121:	0f 71 00 00 00 00 00 00	add64 r1, r7
   11122:	73 81 00 00 00 00 00 00	stxb [r1 + 0], r8
   11123:	07 07 00 00 01 00 00 00	add64 r7, 1
   11124:	7b 7a f0 ff 00 00 00 00	stxdw [r10 - 16], r7
   11125:	15 06 fa 01 20 00 00 00	jeq r6, 32, +506 <custom_panic+0xb708>
   11126:	bf 41 00 00 00 00 00 00	mov64 r1, r4
   11127:	0f 61 00 00 00 00 00 00	add64 r1, r6
   11128:	71 18 00 00 00 00 00 00	ldxb r8, [r1 + 0]
   11129:	79 a1 e8 ff 00 00 00 00	ldxdw r1, [r10 - 24]
   11130:	5d 71 f4 ff 00 00 00 00	jne r1, r7, -12 <custom_panic+0xa700>
   11131:	bf a1 00 00 00 00 00 00	mov64 r1, r10
   11132:	07 01 00 00 e0 ff ff ff	add64 r1, -32
   11133:	bf 72 00 00 00 00 00 00	mov64 r2, r7
   11134:	b7 03 00 00 01 00 00 00	mov64 r3, 1
   11135:	bf 47 00 00 00 00 00 00	mov64 r7, r4
   11136:	85 10 00 00 99 fb ff ff	call -1127
   11137:	bf 74 00 00 00 00 00 00	mov64 r4, r7
   11138:	79 a7 f0 ff 00 00 00 00	ldxdw r7, [r10 - 16]
   11139:	05 00 eb ff 00 00 00 00	ja -21 <custom_panic+0xa700>
   11140:	b7 06 00 00 00 00 00 00	mov64 r6, 0
   11141:	b7 07 00 00 00 00 00 00	mov64 r7, 0
   11142:	25 08 07 00 03 00 00 00	jgt r8, 3, +7 <custom_panic+0xa7f8>
   11143:	bf a1 00 00 00 00 00 00	mov64 r1, r10
   11144:	07 01 00 00 e0 ff ff ff	add64 r1, -32
   11145:	b7 02 00 00 00 00 00 00	mov64 r2, 0
   11146:	b7 03 00 00 04 00 00 00	mov64 r3, 4
   11147:	85 10 00 00 8e fb ff ff	call -1138
   11148:	79 a0 e0 ff 00 00 00 00	ldxdw r0, [r10 - 32]
   11149:	79 a7 f0 ff 00 00 00 00	ldxdw r7, [r10 - 16]
   11150:	79 a4 d8 ff 00 00 00 00	ldxdw r4, [r10 - 40]
   11151:	07 04 00 00 01 00 00 00	add64 r4, 1
   11152:	0f 70 00 00 00 00 00 00	add64 r0, r7
   11153:	b7 01 00 00 01 00 00 00	mov64 r1, 1
   11154:	63 10 00 00 00 00 00 00	stxw [r0 + 0], r1
   11155:	07 07 00 00 04 00 00 00	add64 r7, 4
   11156:	7b 7a f0 ff 00 00 00 00	stxdw [r10 - 16], r7
   11157:	05 00 07 00 00 00 00 00	ja +7 <custom_panic+0xa870>
   11158:	07 06 00 00 01 00 00 00	add64 r6, 1
   11159:	79 a1 e0 ff 00 00 00 00	ldxdw r1, [r10 - 32]
   11160:	0f 71 00 00 00 00 00 00	add64 r1, r7
   11161:	73 81 00 00 00 00 00 00	stxb [r1 + 0], r8
   11162:	07 07 00 00 01 00 00 00	add64 r7, 1
   11163:	7b 7a f0 ff 00 00 00 00	stxdw [r10 - 16], r7
   11164:	15 06 d3 01 20 00 00 00	jeq r6, 32, +467 <custom_panic+0xb708>
   11165:	bf 41 00 00 00 00 00 00	mov64 r1, r4
   11166:	0f 61 00 00 00 00 00 00	add64 r1, r6
   11167:	71 18 00 00 00 00 00 00	ldxb r8, [r1 + 0]
   11168:	79 a1 e8 ff 00 00 00 00	ldxdw r1, [r10 - 24]
   11169:	5d 71 f4 ff 00 00 00 00	jne r1, r7, -12 <custom_panic+0xa838>
   11170:	bf a1 00 00 00 00 00 00	mov64 r1, r10
   11171:	07 01 00 00 e0 ff ff ff	add64 r1, -32
   11172:	bf 72 00 00 00 00 00 00	mov64 r2, r7
   11173:	b7 03 00 00 01 00 00 00	mov64 r3, 1
   11174:	bf 47 00 00 00 00 00 00	mov64 r7, r4
   11175:	85 10 00 00 72 fb ff ff	call -1166
   11176:	bf 74 00 00 00 00 00 00	mov64 r4, r7
   11177:	79 a7 f0 ff 00 00 00 00	ldxdw r7, [r10 - 16]
   11178:	05 00 eb ff 00 00 00 00	ja -21 <custom_panic+0xa838>
   11179:	b7 06 00 00 00 00 00 00	mov64 r6, 0
   11180:	b7 07 00 00 00 00 00 00	mov64 r7, 0
   11181:	25 08 07 00 03 00 00 00	jgt r8, 3, +7 <custom_panic+0xa930>
   11182:	bf a1 00 00 00 00 00 00	mov64 r1, r10
   11183:	07 01 00 00 e0 ff ff ff	add64 r1, -32
   11184:	b7 02 00 00 00 00 00 00	mov64 r2, 0
   11185:	b7 03 00 00 04 00 00 00	mov64 r3, 4
   11186:	85 10 00 00 67 fb ff ff	call -1177
   11187:	79 a0 e0 ff 00 00 00 00	ldxdw r0, [r10 - 32]
   11188:	79 a7 f0 ff 00 00 00 00	ldxdw r7, [r10 - 16]
   11189:	79 a4 d8 ff 00 00 00 00	ldxdw r4, [r10 - 40]
   11190:	07 04 00 00 01 00 00 00	add64 r4, 1
   11191:	0f 70 00 00 00 00 00 00	add64 r0, r7
   11192:	b7 01 00 00 06 00 00 00	mov64 r1, 6
   11193:	63 10 00 00 00 00 00 00	stxw [r0 + 0], r1
   11194:	07 07 00 00 04 00 00 00	add64 r7, 4
   11195:	7b 7a f0 ff 00 00 00 00	stxdw [r10 - 16], r7
   11196:	05 00 07 00 00 00 00 00	ja +7 <custom_panic+0xa9a8>
   11197:	07 06 00 00 01 00 00 00	add64 r6, 1
   11198:	79 a1 e0 ff 00 00 00 00	ldxdw r1, [r10 - 32]
   11199:	0f 71 00 00 00 00 00 00	add64 r1, r7
   11200:	73 81 00 00 00 00 00 00	stxb [r1 + 0], r8
   11201:	07 07 00 00 01 00 00 00	add64 r7, 1
   11202:	7b 7a f0 ff 00 00 00 00	stxdw [r10 - 16], r7
   11203:	15 06 ac 01 20 00 00 00	jeq r6, 32, +428 <custom_panic+0xb708>
   11204:	bf 41 00 00 00 00 00 00	mov64 r1, r4
   11205:	0f 61 00 00 00 00 00 00	add64 r1, r6
   11206:	71 18 00 00 00 00 00 00	ldxb r8, [r1 + 0]
   11207:	79 a1 e8 ff 00 00 00 00	ldxdw r1, [r10 - 24]
   11208:	5d 71 f4 ff 00 00 00 00	jne r1, r7, -12 <custom_panic+0xa970>
   11209:	bf a1 00 00 00 00 00 00	mov64 r1, r10
   11210:	07 01 00 00 e0 ff ff ff	add64 r1, -32
   11211:	bf 72 00 00 00 00 00 00	mov64 r2, r7
   11212:	b7 03 00 00 01 00 00 00	mov64 r3, 1
   11213:	bf 47 00 00 00 00 00 00	mov64 r7, r4
   11214:	85 10 00 00 4b fb ff ff	call -1205
   11215:	bf 74 00 00 00 00 00 00	mov64 r4, r7
   11216:	79 a7 f0 ff 00 00 00 00	ldxdw r7, [r10 - 16]
   11217:	05 00 eb ff 00 00 00 00	ja -21 <custom_panic+0xa970>
   11218:	b7 06 00 00 00 00 00 00	mov64 r6, 0
   11219:	b7 07 00 00 00 00 00 00	mov64 r7, 0
   11220:	25 08 07 00 03 00 00 00	jgt r8, 3, +7 <custom_panic+0xaa68>
   11221:	bf a1 00 00 00 00 00 00	mov64 r1, r10
   11222:	07 01 00 00 e0 ff ff ff	add64 r1, -32
   11223:	b7 02 00 00 00 00 00 00	mov64 r2, 0
   11224:	b7 03 00 00 04 00 00 00	mov64 r3, 4
   11225:	85 10 00 00 40 fb ff ff	call -1216
   11226:	79 a0 e0 ff 00 00 00 00	ldxdw r0, [r10 - 32]
   11227:	79 a7 f0 ff 00 00 00 00	ldxdw r7, [r10 - 16]
   11228:	79 a4 d8 ff 00 00 00 00	ldxdw r4, [r10 - 40]
   11229:	07 04 00 00 01 00 00 00	add64 r4, 1
   11230:	0f 70 00 00 00 00 00 00	add64 r0, r7
   11231:	b7 01 00 00 07 00 00 00	mov64 r1, 7
   11232:	63 10 00 00 00 00 00 00	stxw [r0 + 0], r1
   11233:	07 07 00 00 04 00 00 00	add64 r7, 4
   11234:	7b 7a f0 ff 00 00 00 00	stxdw [r10 - 16], r7
   11235:	05 00 07 00 00 00 00 00	ja +7 <custom_panic+0xaae0>
   11236:	07 06 00 00 01 00 00 00	add64 r6, 1
   11237:	79 a1 e0 ff 00 00 00 00	ldxdw r1, [r10 - 32]
   11238:	0f 71 00 00 00 00 00 00	add64 r1, r7
   11239:	73 81 00 00 00 00 00 00	stxb [r1 + 0], r8
   11240:	07 07 00 00 01 00 00 00	add64 r7, 1
   11241:	7b 7a f0 ff 00 00 00 00	stxdw [r10 - 16], r7
   11242:	15 06 85 01 20 00 00 00	jeq r6, 32, +389 <custom_panic+0xb708>
   11243:	bf 41 00 00 00 00 00 00	mov64 r1, r4
   11244:	0f 61 00 00 00 00 00 00	add64 r1, r6
   11245:	71 18 00 00 00 00 00 00	ldxb r8, [r1 + 0]
   11246:	79 a1 e8 ff 00 00 00 00	ldxdw r1, [r10 - 24]
   11247:	5d 71 f4 ff 00 00 00 00	jne r1, r7, -12 <custom_panic+0xaaa8>
   11248:	bf a1 00 00 00 00 00 00	mov64 r1, r10
   11249:	07 01 00 00 e0 ff ff ff	add64 r1, -32
   11250:	bf 72 00 00 00 00 00 00	mov64 r2, r7
   11251:	b7 03 00 00 01 00 00 00	mov64 r3, 1
   11252:	bf 47 00 00 00 00 00 00	mov64 r7, r4
   11253:	85 10 00 00 24 fb ff ff	call -1244
   11254:	bf 74 00 00 00 00 00 00	mov64 r4, r7
   11255:	79 a7 f0 ff 00 00 00 00	ldxdw r7, [r10 - 16]
   11256:	05 00 eb ff 00 00 00 00	ja -21 <custom_panic+0xaaa8>
   11257:	b7 06 00 00 00 00 00 00	mov64 r6, 0
   11258:	b7 07 00 00 00 00 00 00	mov64 r7, 0
   11259:	25 08 07 00 03 00 00 00	jgt r8, 3, +7 <custom_panic+0xaba0>
   11260:	bf a1 00 00 00 00 00 00	mov64 r1, r10
   11261:	07 01 00 00 e0 ff ff ff	add64 r1, -32
   11262:	b7 02 00 00 00 00 00 00	mov64 r2, 0
   11263:	b7 03 00 00 04 00 00 00	mov64 r3, 4
   11264:	85 10 00 00 19 fb ff ff	call -1255
   11265:	79 a0 e0 ff 00 00 00 00	ldxdw r0, [r10 - 32]
   11266:	79 a7 f0 ff 00 00 00 00	ldxdw r7, [r10 - 16]
   11267:	79 a8 d8 ff 00 00 00 00	ldxdw r8, [r10 - 40]
   11268:	bf 81 00 00 00 00 00 00	mov64 r1, r8
   11269:	07 01 00 00 30 00 00 00	add64 r1, 48
   11270:	7b 1a b8 ff 00 00 00 00	stxdw [r10 - 72], r1
   11271:	07 08 00 00 01 00 00 00	add64 r8, 1
   11272:	0f 70 00 00 00 00 00 00	add64 r0, r7
   11273:	b7 01 00 00 09 00 00 00	mov64 r1, 9
   11274:	63 10 00 00 00 00 00 00	stxw [r0 + 0], r1
   11275:	07 07 00 00 04 00 00 00	add64 r7, 4
   11276:	7b 7a f0 ff 00 00 00 00	stxdw [r10 - 16], r7
   11277:	05 00 14 00 00 00 00 00	ja +20 <custom_panic+0xac98>
   11278:	07 06 00 00 01 00 00 00	add64 r6, 1
   11279:	79 a1 e0 ff 00 00 00 00	ldxdw r1, [r10 - 32]
   11280:	0f 71 00 00 00 00 00 00	add64 r1, r7
   11281:	73 91 00 00 00 00 00 00	stxb [r1 + 0], r9
   11282:	07 07 00 00 01 00 00 00	add64 r7, 1
   11283:	7b 7a f0 ff 00 00 00 00	stxdw [r10 - 16], r7
   11284:	55 06 0d 00 20 00 00 00	jne r6, 32, +13 <custom_panic+0xac98>
   11285:	79 a1 e8 ff 00 00 00 00	ldxdw r1, [r10 - 24]
   11286:	1f 71 00 00 00 00 00 00	sub64 r1, r7
   11287:	79 a2 d8 ff 00 00 00 00	ldxdw r2, [r10 - 40]
   11288:	79 28 60 00 00 00 00 00	ldxdw r8, [r2 + 96]
   11289:	79 26 50 00 00 00 00 00	ldxdw r6, [r2 + 80]
   11290:	25 01 c5 00 07 00 00 00	jgt r1, 7, +197 <custom_panic+0xb288>
   11291:	bf a1 00 00 00 00 00 00	mov64 r1, r10
   11292:	07 01 00 00 e0 ff ff ff	add64 r1, -32
   11293:	bf 72 00 00 00 00 00 00	mov64 r2, r7
   11294:	b7 03 00 00 08 00 00 00	mov64 r3, 8
   11295:	85 10 00 00 fa fa ff ff	call -1286
   11296:	79 a7 f0 ff 00 00 00 00	ldxdw r7, [r10 - 16]
   11297:	05 00 be 00 00 00 00 00	ja +190 <custom_panic+0xb288>
   11298:	bf 81 00 00 00 00 00 00	mov64 r1, r8
   11299:	0f 61 00 00 00 00 00 00	add64 r1, r6
   11300:	71 19 00 00 00 00 00 00	ldxb r9, [r1 + 0]
   11301:	79 a1 e8 ff 00 00 00 00	ldxdw r1, [r10 - 24]
   11302:	5d 71 e7 ff 00 00 00 00	jne r1, r7, -25 <custom_panic+0xabf8>
   11303:	bf a1 00 00 00 00 00 00	mov64 r1, r10
   11304:	07 01 00 00 e0 ff ff ff	add64 r1, -32
   11305:	bf 72 00 00 00 00 00 00	mov64 r2, r7
   11306:	b7 03 00 00 01 00 00 00	mov64 r3, 1
   11307:	85 10 00 00 ee fa ff ff	call -1298
   11308:	79 a7 f0 ff 00 00 00 00	ldxdw r7, [r10 - 16]
   11309:	05 00 e0 ff 00 00 00 00	ja -32 <custom_panic+0xabf8>
   11310:	79 a1 e0 ff 00 00 00 00	ldxdw r1, [r10 - 32]
   11311:	0f 71 00 00 00 00 00 00	add64 r1, r7
   11312:	7b 81 00 00 00 00 00 00	stxdw [r1 + 0], r8
   11313:	07 07 00 00 08 00 00 00	add64 r7, 8
   11314:	7b 7a f0 ff 00 00 00 00	stxdw [r10 - 16], r7
   11315:	79 a1 e8 ff 00 00 00 00	ldxdw r1, [r10 - 24]
   11316:	1f 71 00 00 00 00 00 00	sub64 r1, r7
   11317:	3d 81 06 00 00 00 00 00	jge r1, r8, +6 <custom_panic+0xad68>
   11318:	bf a1 00 00 00 00 00 00	mov64 r1, r10
   11319:	07 01 00 00 e0 ff ff ff	add64 r1, -32
   11320:	bf 72 00 00 00 00 00 00	mov64 r2, r7
   11321:	bf 83 00 00 00 00 00 00	mov64 r3, r8
   11322:	85 10 00 00 df fa ff ff	call -1313
   11323:	79 a7 f0 ff 00 00 00 00	ldxdw r7, [r10 - 16]
   11324:	79 a1 e0 ff 00 00 00 00	ldxdw r1, [r10 - 32]
   11325:	0f 71 00 00 00 00 00 00	add64 r1, r7
   11326:	bf 92 00 00 00 00 00 00	mov64 r2, r9
   11327:	bf 83 00 00 00 00 00 00	mov64 r3, r8
   11328:	85 10 00 00 59 1b 00 00	call 7001
   11329:	0f 87 00 00 00 00 00 00	add64 r7, r8
   11330:	b7 08 00 00 00 00 00 00	mov64 r8, 0
   11331:	7b 7a f0 ff 00 00 00 00	stxdw [r10 - 16], r7
   11332:	79 a9 c0 ff 00 00 00 00	ldxdw r9, [r10 - 64]
   11333:	79 a2 b8 ff 00 00 00 00	ldxdw r2, [r10 - 72]
   11334:	05 00 07 00 00 00 00 00	ja +7 <custom_panic+0xadf8>
   11335:	07 08 00 00 01 00 00 00	add64 r8, 1
   11336:	79 a1 e0 ff 00 00 00 00	ldxdw r1, [r10 - 32]
   11337:	0f 71 00 00 00 00 00 00	add64 r1, r7
   11338:	73 61 00 00 00 00 00 00	stxb [r1 + 0], r6
   11339:	07 07 00 00 01 00 00 00	add64 r7, 1
   11340:	7b 7a f0 ff 00 00 00 00	stxdw [r10 - 16], r7
   11341:	15 08 22 01 20 00 00 00	jeq r8, 32, +290 <custom_panic+0xb708>
   11342:	bf 21 00 00 00 00 00 00	mov64 r1, r2
   11343:	0f 81 00 00 00 00 00 00	add64 r1, r8
   11344:	71 16 00 00 00 00 00 00	ldxb r6, [r1 + 0]
   11345:	79 a1 e8 ff 00 00 00 00	ldxdw r1, [r10 - 24]
   11346:	5d 71 f4 ff 00 00 00 00	jne r1, r7, -12 <custom_panic+0xadc0>
   11347:	bf a1 00 00 00 00 00 00	mov64 r1, r10
   11348:	07 01 00 00 e0 ff ff ff	add64 r1, -32
   11349:	bf 72 00 00 00 00 00 00	mov64 r2, r7
   11350:	b7 03 00 00 01 00 00 00	mov64 r3, 1
   11351:	85 10 00 00 c2 fa ff ff	call -1342
   11352:	79 a2 b8 ff 00 00 00 00	ldxdw r2, [r10 - 72]
   11353:	79 a7 f0 ff 00 00 00 00	ldxdw r7, [r10 - 16]
   11354:	05 00 ec ff 00 00 00 00	ja -20 <custom_panic+0xadc0>
   11355:	7b 9a c0 ff 00 00 00 00	stxdw [r10 - 64], r9
   11356:	b7 06 00 00 00 00 00 00	mov64 r6, 0
   11357:	b7 07 00 00 00 00 00 00	mov64 r7, 0
   11358:	25 08 07 00 03 00 00 00	jgt r8, 3, +7 <custom_panic+0xaeb8>
   11359:	bf a1 00 00 00 00 00 00	mov64 r1, r10
   11360:	07 01 00 00 e0 ff ff ff	add64 r1, -32
   11361:	b7 02 00 00 00 00 00 00	mov64 r2, 0
   11362:	b7 03 00 00 04 00 00 00	mov64 r3, 4
   11363:	85 10 00 00 b6 fa ff ff	call -1354
   11364:	79 a0 e0 ff 00 00 00 00	ldxdw r0, [r10 - 32]
   11365:	79 a7 f0 ff 00 00 00 00	ldxdw r7, [r10 - 16]
   11366:	79 a9 d8 ff 00 00 00 00	ldxdw r9, [r10 - 40]
   11367:	bf 91 00 00 00 00 00 00	mov64 r1, r9
   11368:	07 01 00 00 38 00 00 00	add64 r1, 56
   11369:	7b 1a b8 ff 00 00 00 00	stxdw [r10 - 72], r1
   11370:	07 09 00 00 01 00 00 00	add64 r9, 1
   11371:	0f 70 00 00 00 00 00 00	add64 r0, r7
   11372:	b7 01 00 00 03 00 00 00	mov64 r1, 3
   11373:	63 10 00 00 00 00 00 00	stxw [r0 + 0], r1
   11374:	07 07 00 00 04 00 00 00	add64 r7, 4
   11375:	7b 7a f0 ff 00 00 00 00	stxdw [r10 - 16], r7
   11376:	05 00 15 00 00 00 00 00	ja +21 <custom_panic+0xafb8>
   11377:	07 06 00 00 01 00 00 00	add64 r6, 1
   11378:	79 a1 e0 ff 00 00 00 00	ldxdw r1, [r10 - 32]
   11379:	0f 71 00 00 00 00 00 00	add64 r1, r7
   11380:	73 81 00 00 00 00 00 00	stxb [r1 + 0], r8
   11381:	07 07 00 00 01 00 00 00	add64 r7, 1
   11382:	7b 7a f0 ff 00 00 00 00	stxdw [r10 - 16], r7
   11383:	55 06 0e 00 20 00 00 00	jne r6, 32, +14 <custom_panic+0xafb8>
   11384:	79 a1 e8 ff 00 00 00 00	ldxdw r1, [r10 - 24]
   11385:	1f 71 00 00 00 00 00 00	sub64 r1, r7
   11386:	79 a2 d8 ff 00 00 00 00	ldxdw r2, [r10 - 40]
   11387:	79 26 68 00 00 00 00 00	ldxdw r6, [r2 + 104]
   11388:	79 28 58 00 00 00 00 00	ldxdw r8, [r2 + 88]
   11389:	79 a9 c0 ff 00 00 00 00	ldxdw r9, [r10 - 64]
   11390:	25 01 9e 00 07 00 00 00	jgt r1, 7, +158 <custom_panic+0xb470>
   11391:	bf a1 00 00 00 00 00 00	mov64 r1, r10
   11392:	07 01 00 00 e0 ff ff ff	add64 r1, -32
   11393:	bf 72 00 00 00 00 00 00	mov64 r2, r7
   11394:	b7 03 00 00 08 00 00 00	mov64 r3, 8
   11395:	85 10 00 00 96 fa ff ff	call -1386
   11396:	79 a7 f0 ff 00 00 00 00	ldxdw r7, [r10 - 16]
   11397:	05 00 97 00 00 00 00 00	ja +151 <custom_panic+0xb470>
   11398:	bf 91 00 00 00 00 00 00	mov64 r1, r9
   11399:	0f 61 00 00 00 00 00 00	add64 r1, r6
   11400:	71 18 00 00 00 00 00 00	ldxb r8, [r1 + 0]
   11401:	79 a1 e8 ff 00 00 00 00	ldxdw r1, [r10 - 24]
   11402:	5d 71 e6 ff 00 00 00 00	jne r1, r7, -26 <custom_panic+0xaf10>
   11403:	bf a1 00 00 00 00 00 00	mov64 r1, r10
   11404:	07 01 00 00 e0 ff ff ff	add64 r1, -32
   11405:	bf 72 00 00 00 00 00 00	mov64 r2, r7
   11406:	b7 03 00 00 01 00 00 00	mov64 r3, 1
   11407:	85 10 00 00 8a fa ff ff	call -1398
   11408:	79 a7 f0 ff 00 00 00 00	ldxdw r7, [r10 - 16]
   11409:	05 00 df ff 00 00 00 00	ja -33 <custom_panic+0xaf10>
   11410:	b7 07 00 00 00 00 00 00	mov64 r7, 0
   11411:	25 08 07 00 03 00 00 00	jgt r8, 3, +7 <custom_panic+0xb060>
   11412:	bf a1 00 00 00 00 00 00	mov64 r1, r10
   11413:	07 01 00 00 e0 ff ff ff	add64 r1, -32
   11414:	b7 02 00 00 00 00 00 00	mov64 r2, 0
   11415:	b7 03 00 00 04 00 00 00	mov64 r3, 4
   11416:	85 10 00 00 81 fa ff ff	call -1407
   11417:	79 a0 e0 ff 00 00 00 00	ldxdw r0, [r10 - 32]
   11418:	79 a7 f0 ff 00 00 00 00	ldxdw r7, [r10 - 16]
   11419:	0f 70 00 00 00 00 00 00	add64 r0, r7
   11420:	b7 01 00 00 04 00 00 00	mov64 r1, 4
   11421:	63 10 00 00 00 00 00 00	stxw [r0 + 0], r1
   11422:	07 07 00 00 04 00 00 00	add64 r7, 4
   11423:	05 00 d0 00 00 00 00 00	ja +208 <custom_panic+0xb708>
   11424:	b7 07 00 00 00 00 00 00	mov64 r7, 0
   11425:	25 08 07 00 03 00 00 00	jgt r8, 3, +7 <custom_panic+0xb0d0>
   11426:	bf a1 00 00 00 00 00 00	mov64 r1, r10
   11427:	07 01 00 00 e0 ff ff ff	add64 r1, -32
   11428:	b7 02 00 00 00 00 00 00	mov64 r2, 0
   11429:	b7 03 00 00 04 00 00 00	mov64 r3, 4
   11430:	85 10 00 00 73 fa ff ff	call -1421
   11431:	79 a0 e0 ff 00 00 00 00	ldxdw r0, [r10 - 32]
   11432:	79 a7 f0 ff 00 00 00 00	ldxdw r7, [r10 - 16]
   11433:	0f 70 00 00 00 00 00 00	add64 r0, r7
   11434:	b7 01 00 00 0b 00 00 00	mov64 r1, 11
   11435:	63 10 00 00 00 00 00 00	stxw [r0 + 0], r1
   11436:	07 07 00 00 04 00 00 00	add64 r7, 4
   11437:	7b 7a f0 ff 00 00 00 00	stxdw [r10 - 16], r7
   11438:	79 a1 e8 ff 00 00 00 00	ldxdw r1, [r10 - 24]
   11439:	1f 71 00 00 00 00 00 00	sub64 r1, r7
   11440:	79 a3 d8 ff 00 00 00 00	ldxdw r3, [r10 - 40]
   11441:	79 36 08 00 00 00 00 00	ldxdw r6, [r3 + 8]
   11442:	b7 02 00 00 08 00 00 00	mov64 r2, 8
   11443:	2d 12 27 01 00 00 00 00	jgt r2, r1, +295 <custom_panic+0xba60>
   11444:	79 a1 e0 ff 00 00 00 00	ldxdw r1, [r10 - 32]
   11445:	0f 71 00 00 00 00 00 00	add64 r1, r7
   11446:	7b 61 00 00 00 00 00 00	stxdw [r1 + 0], r6
   11447:	07 07 00 00 08 00 00 00	add64 r7, 8
   11448:	7b 7a f0 ff 00 00 00 00	stxdw [r10 - 16], r7
   11449:	79 a1 e8 ff 00 00 00 00	ldxdw r1, [r10 - 24]
   11450:	1f 71 00 00 00 00 00 00	sub64 r1, r7
   11451:	79 38 40 00 00 00 00 00	ldxdw r8, [r3 + 64]
   11452:	79 36 30 00 00 00 00 00	ldxdw r6, [r3 + 48]
   11453:	25 01 07 00 07 00 00 00	jgt r1, 7, +7 <custom_panic+0xb1b0>
   11454:	bf a1 00 00 00 00 00 00	mov64 r1, r10
   11455:	07 01 00 00 e0 ff ff ff	add64 r1, -32
   11456:	bf 72 00 00 00 00 00 00	mov64 r2, r7
   11457:	b7 03 00 00 08 00 00 00	mov64 r3, 8
   11458:	85 10 00 00 57 fa ff ff	call -1449
   11459:	79 a3 d8 ff 00 00 00 00	ldxdw r3, [r10 - 40]
   11460:	79 a7 f0 ff 00 00 00 00	ldxdw r7, [r10 - 16]
   11461:	79 a1 e0 ff 00 00 00 00	ldxdw r1, [r10 - 32]
   11462:	0f 71 00 00 00 00 00 00	add64 r1, r7
   11463:	7b 81 00 00 00 00 00 00	stxdw [r1 + 0], r8
   11464:	07 07 00 00 08 00 00 00	add64 r7, 8
   11465:	7b 7a f0 ff 00 00 00 00	stxdw [r10 - 16], r7
   11466:	79 a1 e8 ff 00 00 00 00	ldxdw r1, [r10 - 24]
   11467:	1f 71 00 00 00 00 00 00	sub64 r1, r7
   11468:	3d 81 07 00 00 00 00 00	jge r1, r8, +7 <custom_panic+0xb228>
   11469:	bf a1 00 00 00 00 00 00	mov64 r1, r10
   11470:	07 01 00 00 e0 ff ff ff	add64 r1, -32
   11471:	bf 72 00 00 00 00 00 00	mov64 r2, r7
   11472:	bf 83 00 00 00 00 00 00	mov64 r3, r8
   11473:	85 10 00 00 48 fa ff ff	call -1464
   11474:	79 a3 d8 ff 00 00 00 00	ldxdw r3, [r10 - 40]
   11475:	79 a7 f0 ff 00 00 00 00	ldxdw r7, [r10 - 16]
   11476:	07 03 00 00 10 00 00 00	add64 r3, 16
   11477:	7b 3a d8 ff 00 00 00 00	stxdw [r10 - 40], r3
   11478:	79 a1 e0 ff 00 00 00 00	ldxdw r1, [r10 - 32]
   11479:	0f 71 00 00 00 00 00 00	add64 r1, r7
   11480:	bf 62 00 00 00 00 00 00	mov64 r2, r6
   11481:	bf 83 00 00 00 00 00 00	mov64 r3, r8
   11482:	85 10 00 00 bf 1a 00 00	call 6847
   11483:	79 a2 d8 ff 00 00 00 00	ldxdw r2, [r10 - 40]
   11484:	0f 87 00 00 00 00 00 00	add64 r7, r8
   11485:	b7 06 00 00 00 00 00 00	mov64 r6, 0
   11486:	7b 7a f0 ff 00 00 00 00	stxdw [r10 - 16], r7
   11487:	05 00 a7 00 00 00 00 00	ja +167 <custom_panic+0xb7c0>
   11488:	79 a1 e0 ff 00 00 00 00	ldxdw r1, [r10 - 32]
   11489:	0f 71 00 00 00 00 00 00	add64 r1, r7
   11490:	7b 81 00 00 00 00 00 00	stxdw [r1 + 0], r8
   11491:	07 07 00 00 08 00 00 00	add64 r7, 8
   11492:	7b 7a f0 ff 00 00 00 00	stxdw [r10 - 16], r7
   11493:	79 a1 e8 ff 00 00 00 00	ldxdw r1, [r10 - 24]
   11494:	1f 71 00 00 00 00 00 00	sub64 r1, r7
   11495:	79 a9 c0 ff 00 00 00 00	ldxdw r9, [r10 - 64]
   11496:	3d 81 06 00 00 00 00 00	jge r1, r8, +6 <custom_panic+0xb300>
   11497:	bf a1 00 00 00 00 00 00	mov64 r1, r10
   11498:	07 01 00 00 e0 ff ff ff	add64 r1, -32
   11499:	bf 72 00 00 00 00 00 00	mov64 r2, r7
   11500:	bf 83 00 00 00 00 00 00	mov64 r3, r8
   11501:	85 10 00 00 2c fa ff ff	call -1492
   11502:	79 a7 f0 ff 00 00 00 00	ldxdw r7, [r10 - 16]
   11503:	79 a1 e0 ff 00 00 00 00	ldxdw r1, [r10 - 32]
   11504:	0f 71 00 00 00 00 00 00	add64 r1, r7
   11505:	bf 62 00 00 00 00 00 00	mov64 r2, r6
   11506:	bf 83 00 00 00 00 00 00	mov64 r3, r8
   11507:	85 10 00 00 a6 1a 00 00	call 6822
   11508:	0f 87 00 00 00 00 00 00	add64 r7, r8
   11509:	7b 7a f0 ff 00 00 00 00	stxdw [r10 - 16], r7
   11510:	79 a1 e8 ff 00 00 00 00	ldxdw r1, [r10 - 24]
   11511:	1f 71 00 00 00 00 00 00	sub64 r1, r7
   11512:	79 a2 d8 ff 00 00 00 00	ldxdw r2, [r10 - 40]
   11513:	79 26 28 00 00 00 00 00	ldxdw r6, [r2 + 40]
   11514:	25 01 06 00 07 00 00 00	jgt r1, 7, +6 <custom_panic+0xb390>
   11515:	bf a1 00 00 00 00 00 00	mov64 r1, r10
   11516:	07 01 00 00 e0 ff ff ff	add64 r1, -32
   11517:	bf 72 00 00 00 00 00 00	mov64 r2, r7
   11518:	b7 03 00 00 08 00 00 00	mov64 r3, 8
   11519:	85 10 00 00 1a fa ff ff	call -1510
   11520:	79 a7 f0 ff 00 00 00 00	ldxdw r7, [r10 - 16]
   11521:	79 a1 e0 ff 00 00 00 00	ldxdw r1, [r10 - 32]
   11522:	0f 71 00 00 00 00 00 00	add64 r1, r7
   11523:	7b 61 00 00 00 00 00 00	stxdw [r1 + 0], r6
   11524:	b7 06 00 00 00 00 00 00	mov64 r6, 0
   11525:	07 07 00 00 08 00 00 00	add64 r7, 8
   11526:	7b 7a f0 ff 00 00 00 00	stxdw [r10 - 16], r7
   11527:	79 a2 b8 ff 00 00 00 00	ldxdw r2, [r10 - 72]
   11528:	05 00 07 00 00 00 00 00	ja +7 <custom_panic+0xb408>
   11529:	07 06 00 00 01 00 00 00	add64 r6, 1
   11530:	79 a1 e0 ff 00 00 00 00	ldxdw r1, [r10 - 32]
   11531:	0f 71 00 00 00 00 00 00	add64 r1, r7
   11532:	73 81 00 00 00 00 00 00	stxb [r1 + 0], r8
   11533:	07 07 00 00 01 00 00 00	add64 r7, 1
   11534:	7b 7a f0 ff 00 00 00 00	stxdw [r10 - 16], r7
   11535:	15 06 60 00 20 00 00 00	jeq r6, 32, +96 <custom_panic+0xb708>
   11536:	bf 21 00 00 00 00 00 00	mov64 r1, r2
   11537:	0f 61 00 00 00 00 00 00	add64 r1, r6
   11538:	71 18 00 00 00 00 00 00	ldxb r8, [r1 + 0]
   11539:	79 a1 e8 ff 00 00 00 00	ldxdw r1, [r10 - 24]
   11540:	5d 71 f4 ff 00 00 00 00	jne r1, r7, -12 <custom_panic+0xb3d0>
   11541:	bf a1 00 00 00 00 00 00	mov64 r1, r10
   11542:	07 01 00 00 e0 ff ff ff	add64 r1, -32
   11543:	bf 72 00 00 00 00 00 00	mov64 r2, r7
   11544:	b7 03 00 00 01 00 00 00	mov64 r3, 1
   11545:	85 10 00 00 00 fa ff ff	call -1536
   11546:	79 a2 b8 ff 00 00 00 00	ldxdw r2, [r10 - 72]
   11547:	79 a7 f0 ff 00 00 00 00	ldxdw r7, [r10 - 16]
   11548:	05 00 ec ff 00 00 00 00	ja -20 <custom_panic+0xb3d0>
   11549:	79 a1 e0 ff 00 00 00 00	ldxdw r1, [r10 - 32]
   11550:	0f 71 00 00 00 00 00 00	add64 r1, r7
   11551:	7b 61 00 00 00 00 00 00	stxdw [r1 + 0], r6
   11552:	07 07 00 00 08 00 00 00	add64 r7, 8
   11553:	7b 7a f0 ff 00 00 00 00	stxdw [r10 - 16], r7
   11554:	79 a1 e8 ff 00 00 00 00	ldxdw r1, [r10 - 24]
   11555:	1f 71 00 00 00 00 00 00	sub64 r1, r7
   11556:	3d 61 06 00 00 00 00 00	jge r1, r6, +6 <custom_panic+0xb4e0>
   11557:	bf a1 00 00 00 00 00 00	mov64 r1, r10
   11558:	07 01 00 00 e0 ff ff ff	add64 r1, -32
   11559:	bf 72 00 00 00 00 00 00	mov64 r2, r7
   11560:	bf 63 00 00 00 00 00 00	mov64 r3, r6
   11561:	85 10 00 00 f0 f9 ff ff	call -1552
   11562:	79 a7 f0 ff 00 00 00 00	ldxdw r7, [r10 - 16]
   11563:	79 a1 e0 ff 00 00 00 00	ldxdw r1, [r10 - 32]
   11564:	0f 71 00 00 00 00 00 00	add64 r1, r7
   11565:	bf 82 00 00 00 00 00 00	mov64 r2, r8
   11566:	bf 63 00 00 00 00 00 00	mov64 r3, r6
   11567:	85 10 00 00 6a 1a 00 00	call 6762
   11568:	0f 67 00 00 00 00 00 00	add64 r7, r6
   11569:	7b 7a f0 ff 00 00 00 00	stxdw [r10 - 16], r7
   11570:	79 a1 e8 ff 00 00 00 00	ldxdw r1, [r10 - 24]
   11571:	1f 71 00 00 00 00 00 00	sub64 r1, r7
   11572:	79 a2 d8 ff 00 00 00 00	ldxdw r2, [r10 - 40]
   11573:	79 26 28 00 00 00 00 00	ldxdw r6, [r2 + 40]
   11574:	25 01 07 00 07 00 00 00	jgt r1, 7, +7 <custom_panic+0xb578>
   11575:	bf a1 00 00 00 00 00 00	mov64 r1, r10
   11576:	07 01 00 00 e0 ff ff ff	add64 r1, -32
   11577:	bf 72 00 00 00 00 00 00	mov64 r2, r7
   11578:	b7 03 00 00 08 00 00 00	mov64 r3, 8
   11579:	85 10 00 00 de f9 ff ff	call -1570
   11580:	79 a2 d8 ff 00 00 00 00	ldxdw r2, [r10 - 40]
   11581:	79 a7 f0 ff 00 00 00 00	ldxdw r7, [r10 - 16]
   11582:	79 a1 e0 ff 00 00 00 00	ldxdw r1, [r10 - 32]
   11583:	0f 71 00 00 00 00 00 00	add64 r1, r7
   11584:	7b 61 00 00 00 00 00 00	stxdw [r1 + 0], r6
   11585:	07 07 00 00 08 00 00 00	add64 r7, 8
   11586:	7b 7a f0 ff 00 00 00 00	stxdw [r10 - 16], r7
   11587:	79 a1 e8 ff 00 00 00 00	ldxdw r1, [r10 - 24]
   11588:	1f 71 00 00 00 00 00 00	sub64 r1, r7
   11589:	79 26 30 00 00 00 00 00	ldxdw r6, [r2 + 48]
   11590:	25 01 06 00 07 00 00 00	jgt r1, 7, +6 <custom_panic+0xb5f0>
   11591:	bf a1 00 00 00 00 00 00	mov64 r1, r10
   11592:	07 01 00 00 e0 ff ff ff	add64 r1, -32
   11593:	bf 72 00 00 00 00 00 00	mov64 r2, r7
   11594:	b7 03 00 00 08 00 00 00	mov64 r3, 8
   11595:	85 10 00 00 ce f9 ff ff	call -1586
   11596:	79 a7 f0 ff 00 00 00 00	ldxdw r7, [r10 - 16]
   11597:	79 a1 e0 ff 00 00 00 00	ldxdw r1, [r10 - 32]
   11598:	0f 71 00 00 00 00 00 00	add64 r1, r7
   11599:	7b 61 00 00 00 00 00 00	stxdw [r1 + 0], r6
   11600:	b7 06 00 00 00 00 00 00	mov64 r6, 0
   11601:	07 07 00 00 08 00 00 00	add64 r7, 8
   11602:	7b 7a f0 ff 00 00 00 00	stxdw [r10 - 16], r7
   11603:	79 a2 b8 ff 00 00 00 00	ldxdw r2, [r10 - 72]
   11604:	05 00 07 00 00 00 00 00	ja +7 <custom_panic+0xb668>
   11605:	07 06 00 00 01 00 00 00	add64 r6, 1
   11606:	79 a1 e0 ff 00 00 00 00	ldxdw r1, [r10 - 32]
   11607:	0f 71 00 00 00 00 00 00	add64 r1, r7
   11608:	73 81 00 00 00 00 00 00	stxb [r1 + 0], r8
   11609:	07 07 00 00 01 00 00 00	add64 r7, 1
   11610:	7b 7a f0 ff 00 00 00 00	stxdw [r10 - 16], r7
   11611:	15 06 14 00 20 00 00 00	jeq r6, 32, +20 <custom_panic+0xb708>
   11612:	bf 21 00 00 00 00 00 00	mov64 r1, r2
   11613:	0f 61 00 00 00 00 00 00	add64 r1, r6
   11614:	71 18 00 00 00 00 00 00	ldxb r8, [r1 + 0]
   11615:	79 a1 e8 ff 00 00 00 00	ldxdw r1, [r10 - 24]
   11616:	5d 71 f4 ff 00 00 00 00	jne r1, r7, -12 <custom_panic+0xb630>
   11617:	bf a1 00 00 00 00 00 00	mov64 r1, r10
   11618:	07 01 00 00 e0 ff ff ff	add64 r1, -32
   11619:	bf 72 00 00 00 00 00 00	mov64 r2, r7
   11620:	b7 03 00 00 01 00 00 00	mov64 r3, 1
   11621:	85 10 00 00 b4 f9 ff ff	call -1612
   11622:	79 a2 b8 ff 00 00 00 00	ldxdw r2, [r10 - 72]
   11623:	79 a7 f0 ff 00 00 00 00	ldxdw r7, [r10 - 16]
   11624:	05 00 ec ff 00 00 00 00	ja -20 <custom_panic+0xb630>
   11625:	07 06 00 00 01 00 00 00	add64 r6, 1
   11626:	79 a1 e0 ff 00 00 00 00	ldxdw r1, [r10 - 32]
   11627:	0f 71 00 00 00 00 00 00	add64 r1, r7
   11628:	73 81 00 00 00 00 00 00	stxb [r1 + 0], r8
   11629:	07 07 00 00 01 00 00 00	add64 r7, 1
   11630:	7b 7a f0 ff 00 00 00 00	stxdw [r10 - 16], r7
   11631:	55 06 17 00 20 00 00 00	jne r6, 32, +23 <custom_panic+0xb7c0>
   11632:	79 a1 e8 ff 00 00 00 00	ldxdw r1, [r10 - 24]
   11633:	79 a2 e0 ff 00 00 00 00	ldxdw r2, [r10 - 32]
   11634:	15 02 70 00 00 00 00 00	jeq r2, 0, +112 <custom_panic+0xbaa0>
   11635:	79 a4 d0 ff 00 00 00 00	ldxdw r4, [r10 - 48]
   11636:	79 43 18 00 00 00 00 00	ldxdw r3, [r4 + 24]
   11637:	7b 39 48 00 00 00 00 00	stxdw [r9 + 72], r3
   11638:	79 43 10 00 00 00 00 00	ldxdw r3, [r4 + 16]
   11639:	7b 39 40 00 00 00 00 00	stxdw [r9 + 64], r3
   11640:	79 43 08 00 00 00 00 00	ldxdw r3, [r4 + 8]
   11641:	7b 39 38 00 00 00 00 00	stxdw [r9 + 56], r3
   11642:	79 43 00 00 00 00 00 00	ldxdw r3, [r4 + 0]
   11643:	7b 39 30 00 00 00 00 00	stxdw [r9 + 48], r3
   11644:	79 a4 c8 ff 00 00 00 00	ldxdw r4, [r10 - 56]
   11645:	79 43 00 00 00 00 00 00	ldxdw r3, [r4 + 0]
   11646:	7b 39 00 00 00 00 00 00	stxdw [r9 + 0], r3
   11647:	79 43 08 00 00 00 00 00	ldxdw r3, [r4 + 8]
   11648:	7b 39 08 00 00 00 00 00	stxdw [r9 + 8], r3
   11649:	79 43 10 00 00 00 00 00	ldxdw r3, [r4 + 16]
   11650:	7b 39 10 00 00 00 00 00	stxdw [r9 + 16], r3
   11651:	7b 79 28 00 00 00 00 00	stxdw [r9 + 40], r7
   11652:	7b 19 20 00 00 00 00 00	stxdw [r9 + 32], r1
   11653:	7b 29 18 00 00 00 00 00	stxdw [r9 + 24], r2
   11654:	95 00 00 00 00 00 00 00	exit
   11655:	bf 21 00 00 00 00 00 00	mov64 r1, r2
   11656:	0f 61 00 00 00 00 00 00	add64 r1, r6
   11657:	71 18 00 00 00 00 00 00	ldxb r8, [r1 + 0]
   11658:	79 a1 e8 ff 00 00 00 00	ldxdw r1, [r10 - 24]
   11659:	5d 71 dd ff 00 00 00 00	jne r1, r7, -35 <custom_panic+0xb6d0>
   11660:	bf a1 00 00 00 00 00 00	mov64 r1, r10
   11661:	07 01 00 00 e0 ff ff ff	add64 r1, -32
   11662:	bf 72 00 00 00 00 00 00	mov64 r2, r7
   11663:	b7 03 00 00 01 00 00 00	mov64 r3, 1
   11664:	85 10 00 00 89 f9 ff ff	call -1655
   11665:	79 a2 d8 ff 00 00 00 00	ldxdw r2, [r10 - 40]
   11666:	79 a7 f0 ff 00 00 00 00	ldxdw r7, [r10 - 16]
   11667:	05 00 d5 ff 00 00 00 00	ja -43 <custom_panic+0xb6d0>
   11668:	79 33 58 00 00 00 00 00	ldxdw r3, [r3 + 88]
   11669:	bf 21 00 00 00 00 00 00	mov64 r1, r2
   11670:	0f 31 00 00 00 00 00 00	add64 r1, r3
   11671:	b7 03 00 00 01 00 00 00	mov64 r3, 1
   11672:	2d 12 01 00 00 00 00 00	jgt r2, r1, +1 <custom_panic+0xb858>
   11673:	b7 03 00 00 00 00 00 00	mov64 r3, 0
   11674:	55 03 07 fd 01 00 00 00	jne r3, 1, -761 <custom_panic+0xa098>
   11675:	05 00 cd fc 00 00 00 00	ja -819 <custom_panic+0x9ed0>
   11676:	79 33 60 00 00 00 00 00	ldxdw r3, [r3 + 96]
   11677:	bf 12 00 00 00 00 00 00	mov64 r2, r1
   11678:	0f 32 00 00 00 00 00 00	add64 r2, r3
   11679:	b7 03 00 00 01 00 00 00	mov64 r3, 1
   11680:	2d 21 01 00 00 00 00 00	jgt r1, r2, +1 <custom_panic+0xb898>
   11681:	b7 03 00 00 00 00 00 00	mov64 r3, 0
   11682:	55 03 01 00 01 00 00 00	jne r3, 1, +1 <custom_panic+0xb8a8>
   11683:	05 00 c5 fc 00 00 00 00	ja -827 <custom_panic+0x9ed0>
   11684:	bf 21 00 00 00 00 00 00	mov64 r1, r2
   11685:	07 01 00 00 08 00 00 00	add64 r1, 8
   11686:	b7 03 00 00 01 00 00 00	mov64 r3, 1
   11687:	2d 12 01 00 00 00 00 00	jgt r2, r1, +1 <custom_panic+0xb8d0>
   11688:	b7 03 00 00 00 00 00 00	mov64 r3, 0
   11689:	55 03 f8 fc 01 00 00 00	jne r3, 1, -776 <custom_panic+0xa098>
   11690:	05 00 be fc 00 00 00 00	ja -834 <custom_panic+0x9ed0>
   11691:	bf a1 00 00 00 00 00 00	mov64 r1, r10
   11692:	07 01 00 00 e0 ff ff ff	add64 r1, -32
   11693:	b7 02 00 00 00 00 00 00	mov64 r2, 0
   11694:	b7 03 00 00 04 00 00 00	mov64 r3, 4
   11695:	85 10 00 00 6a f9 ff ff	call -1686
   11696:	79 a0 e0 ff 00 00 00 00	ldxdw r0, [r10 - 32]
   11697:	79 a7 f0 ff 00 00 00 00	ldxdw r7, [r10 - 16]
   11698:	05 00 07 fd 00 00 00 00	ja -761 <custom_panic+0xa158>
   11699:	bf a1 00 00 00 00 00 00	mov64 r1, r10
   11700:	07 01 00 00 e0 ff ff ff	add64 r1, -32
   11701:	b7 02 00 00 00 00 00 00	mov64 r2, 0
   11702:	b7 03 00 00 04 00 00 00	mov64 r3, 4
   11703:	85 10 00 00 62 f9 ff ff	call -1694
   11704:	79 a0 e0 ff 00 00 00 00	ldxdw r0, [r10 - 32]
   11705:	79 a7 f0 ff 00 00 00 00	ldxdw r7, [r10 - 16]
   11706:	05 00 11 fd 00 00 00 00	ja -751 <custom_panic+0xa1e8>
   11707:	bf a1 00 00 00 00 00 00	mov64 r1, r10
   11708:	07 01 00 00 e0 ff ff ff	add64 r1, -32
   11709:	b7 02 00 00 00 00 00 00	mov64 r2, 0
   11710:	b7 03 00 00 04 00 00 00	mov64 r3, 4
   11711:	85 10 00 00 5a f9 ff ff	call -1702
   11712:	79 a0 e0 ff 00 00 00 00	ldxdw r0, [r10 - 32]
   11713:	79 a7 f0 ff 00 00 00 00	ldxdw r7, [r10 - 16]
   11714:	05 00 1f fd 00 00 00 00	ja -737 <custom_panic+0xa298>
   11715:	bf a1 00 00 00 00 00 00	mov64 r1, r10
   11716:	07 01 00 00 e0 ff ff ff	add64 r1, -32
   11717:	b7 02 00 00 00 00 00 00	mov64 r2, 0
   11718:	b7 03 00 00 04 00 00 00	mov64 r3, 4
   11719:	85 10 00 00 52 f9 ff ff	call -1710
   11720:	79 a0 e0 ff 00 00 00 00	ldxdw r0, [r10 - 32]
   11721:	79 a7 f0 ff 00 00 00 00	ldxdw r7, [r10 - 16]
   11722:	05 00 49 fd 00 00 00 00	ja -695 <custom_panic+0xa428>
   11723:	bf a1 00 00 00 00 00 00	mov64 r1, r10
   11724:	07 01 00 00 e0 ff ff ff	add64 r1, -32
   11725:	b7 02 00 00 00 00 00 00	mov64 r2, 0
   11726:	b7 03 00 00 04 00 00 00	mov64 r3, 4
   11727:	85 10 00 00 4a f9 ff ff	call -1718
   11728:	79 a0 e0 ff 00 00 00 00	ldxdw r0, [r10 - 32]
   11729:	79 a7 f0 ff 00 00 00 00	ldxdw r7, [r10 - 16]
   11730:	05 00 57 fd 00 00 00 00	ja -681 <custom_panic+0xa4d8>
   11731:	bf a1 00 00 00 00 00 00	mov64 r1, r10
   11732:	07 01 00 00 e0 ff ff ff	add64 r1, -32
   11733:	bf 72 00 00 00 00 00 00	mov64 r2, r7
   11734:	b7 03 00 00 08 00 00 00	mov64 r3, 8
   11735:	85 10 00 00 42 f9 ff ff	call -1726
   11736:	79 a4 d8 ff 00 00 00 00	ldxdw r4, [r10 - 40]
   11737:	79 a7 f0 ff 00 00 00 00	ldxdw r7, [r10 - 16]
   11738:	05 00 7c fd 00 00 00 00	ja -644 <custom_panic+0xa640>
   11739:	bf a1 00 00 00 00 00 00	mov64 r1, r10
   11740:	07 01 00 00 e0 ff ff ff	add64 r1, -32
   11741:	bf 72 00 00 00 00 00 00	mov64 r2, r7
   11742:	b7 03 00 00 08 00 00 00	mov64 r3, 8
   11743:	85 10 00 00 3a f9 ff ff	call -1734
   11744:	79 a3 d8 ff 00 00 00 00	ldxdw r3, [r10 - 40]
   11745:	79 a7 f0 ff 00 00 00 00	ldxdw r7, [r10 - 16]
   11746:	05 00 d1 fe 00 00 00 00	ja -303 <custom_panic+0xb128>
   11747:	7b 1a e0 ff 00 00 00 00	stxdw [r10 - 32], r1
   11748:	bf a3 00 00 00 00 00 00	mov64 r3, r10
   11749:	07 03 00 00 e0 ff ff ff	add64 r3, -32
   11750:	18 01 00 00 01 62 02 00 00 00 00 00 00 00 00 00	lddw r1, 156161
   11752:	b7 02 00 00 2b 00 00 00	mov64 r2, 43
   11753:	18 04 00 00 50 84 02 00 00 00 00 00 00 00 00 00	lddw r4, 164944
   11755:	18 05 00 00 70 84 02 00 00 00 00 00 00 00 00 00	lddw r5, 164976
   11757:	85 10 00 00 a7 0b 00 00	call 2983
   11758:	85 10 00 00 ff ff ff ff	call -1
   11759:	79 24 18 00 00 00 00 00	ldxdw r4, [r2 + 24]
   11760:	7b 41 18 00 00 00 00 00	stxdw [r1 + 24], r4
   11761:	79 24 10 00 00 00 00 00	ldxdw r4, [r2 + 16]
   11762:	7b 41 10 00 00 00 00 00	stxdw [r1 + 16], r4
   11763:	79 24 08 00 00 00 00 00	ldxdw r4, [r2 + 8]
   11764:	7b 41 08 00 00 00 00 00	stxdw [r1 + 8], r4
   11765:	79 22 00 00 00 00 00 00	ldxdw r2, [r2 + 0]
   11766:	7b 21 00 00 00 00 00 00	stxdw [r1 + 0], r2
   11767:	b7 02 00 00 01 00 00 00	mov64 r2, 1
   11768:	73 21 21 00 00 00 00 00	stxb [r1 + 33], r2
   11769:	73 31 20 00 00 00 00 00	stxb [r1 + 32], r3
   11770:	95 00 00 00 00 00 00 00	exit
   11771:	79 24 18 00 00 00 00 00	ldxdw r4, [r2 + 24]
   11772:	7b 41 18 00 00 00 00 00	stxdw [r1 + 24], r4
   11773:	79 24 10 00 00 00 00 00	ldxdw r4, [r2 + 16]
   11774:	7b 41 10 00 00 00 00 00	stxdw [r1 + 16], r4
   11775:	79 24 08 00 00 00 00 00	ldxdw r4, [r2 + 8]
   11776:	7b 41 08 00 00 00 00 00	stxdw [r1 + 8], r4
   11777:	79 22 00 00 00 00 00 00	ldxdw r2, [r2 + 0]
   11778:	7b 21 00 00 00 00 00 00	stxdw [r1 + 0], r2
   11779:	b7 02 00 00 00 00 00 00	mov64 r2, 0
   11780:	73 21 21 00 00 00 00 00	stxb [r1 + 33], r2
   11781:	73 31 20 00 00 00 00 00	stxb [r1 + 32], r3
   11782:	95 00 00 00 00 00 00 00	exit
   11783:	7b 4a d8 ff 00 00 00 00	stxdw [r10 - 40], r4
   11784:	7b 3a d0 ff 00 00 00 00	stxdw [r10 - 48], r3
   11785:	7b 1a c0 ff 00 00 00 00	stxdw [r10 - 64], r1
   11786:	7b 2a c8 ff 00 00 00 00	stxdw [r10 - 56], r2
   11787:	79 21 10 00 00 00 00 00	ldxdw r1, [r2 + 16]
   11788:	79 52 08 f0 00 00 00 00	ldxdw r2, [r5 - 4088]
   11789:	7b 2a 98 ff 00 00 00 00	stxdw [r10 - 104], r2
   11790:	79 52 00 f0 00 00 00 00	ldxdw r2, [r5 - 4096]
   11791:	7b 2a 90 ff 00 00 00 00	stxdw [r10 - 112], r2
   11792:	15 01 53 00 00 00 00 00	jeq r1, 0, +83 <custom_panic+0xbea8>
   11793:	79 a2 c8 ff 00 00 00 00	ldxdw r2, [r10 - 56]
   11794:	79 27 00 00 00 00 00 00	ldxdw r7, [r2 + 0]
   11795:	27 01 00 00 22 00 00 00	mul64 r1, 34
   11796:	bf 72 00 00 00 00 00 00	mov64 r2, r7
   11797:	0f 12 00 00 00 00 00 00	add64 r2, r1
   11798:	7b 2a f8 ff 00 00 00 00	stxdw [r10 - 8], r2
   11799:	79 a0 d8 ff 00 00 00 00	ldxdw r0, [r10 - 40]
   11800:	27 00 00 00 30 00 00 00	mul64 r0, 48
   11801:	79 a5 d0 ff 00 00 00 00	ldxdw r5, [r10 - 48]
   11802:	07 05 00 00 d8 ff ff ff	add64 r5, -40
   11803:	05 00 0a 00 00 00 00 00	ja +10 <custom_panic+0xbcb8>
   11804:	bf 32 00 00 00 00 00 00	mov64 r2, r3
   11805:	07 02 00 00 10 00 00 00	add64 r2, 16
   11806:	7b 2a f0 ff 00 00 00 00	stxdw [r10 - 16], r2
   11807:	7b 43 10 00 00 00 00 00	stxdw [r3 + 16], r4
   11808:	07 03 00 00 18 00 00 00	add64 r3, 24
   11809:	07 06 00 00 18 00 00 00	add64 r6, 24
   11810:	7b 6a e0 ff 00 00 00 00	stxdw [r10 - 32], r6
   11811:	7b 3a e8 ff 00 00 00 00	stxdw [r10 - 24], r3
   11812:	79 a2 f8 ff 00 00 00 00	ldxdw r2, [r10 - 8]
   11813:	1d 27 3e 00 00 00 00 00	jeq r7, r2, +62 <custom_panic+0xbea8>
   11814:	bf 76 00 00 00 00 00 00	mov64 r6, r7
   11815:	07 07 00 00 22 00 00 00	add64 r7, 34
   11816:	bf 08 00 00 00 00 00 00	mov64 r8, r0
   11817:	bf 59 00 00 00 00 00 00	mov64 r9, r5
   11818:	55 08 01 00 00 00 00 00	jne r8, 0, +1 <custom_panic+0xbce8>
   11819:	05 00 f8 ff 00 00 00 00	ja -8 <custom_panic+0xbca8>
   11820:	79 63 00 00 00 00 00 00	ldxdw r3, [r6 + 0]
   11821:	79 94 28 00 00 00 00 00	ldxdw r4, [r9 + 40]
   11822:	79 42 00 00 00 00 00 00	ldxdw r2, [r4 + 0]
   11823:	1d 23 02 00 00 00 00 00	jeq r3, r2, +2 <custom_panic+0xbd18>
   11824:	b7 03 00 00 01 00 00 00	mov64 r3, 1
   11825:	05 00 0a 00 00 00 00 00	ja +10 <custom_panic+0xbd68>
   11826:	79 42 08 00 00 00 00 00	ldxdw r2, [r4 + 8]
   11827:	79 63 08 00 00 00 00 00	ldxdw r3, [r6 + 8]
   11828:	5d 23 fb ff 00 00 00 00	jne r3, r2, -5 <custom_panic+0xbd08>
   11829:	79 42 10 00 00 00 00 00	ldxdw r2, [r4 + 16]
   11830:	79 63 10 00 00 00 00 00	ldxdw r3, [r6 + 16]
   11831:	5d 23 f8 ff 00 00 00 00	jne r3, r2, -8 <custom_panic+0xbd08>
   11832:	b7 03 00 00 00 00 00 00	mov64 r3, 0
   11833:	79 42 18 00 00 00 00 00	ldxdw r2, [r4 + 24]
   11834:	79 64 18 00 00 00 00 00	ldxdw r4, [r6 + 24]
   11835:	5d 24 f4 ff 00 00 00 00	jne r4, r2, -12 <custom_panic+0xbd08>
   11836:	07 08 00 00 d0 ff ff ff	add64 r8, -48
   11837:	07 09 00 00 30 00 00 00	add64 r9, 48
   11838:	55 03 eb ff 00 00 00 00	jne r3, 0, -21 <custom_panic+0xbcd8>
   11839:	71 62 21 00 00 00 00 00	ldxb r2, [r6 + 33]
   11840:	55 02 13 00 00 00 00 00	jne r2, 0, +19 <custom_panic+0xbe28>
   11841:	79 96 00 00 00 00 00 00	ldxdw r6, [r9 + 0]
   11842:	79 62 10 00 00 00 00 00	ldxdw r2, [r6 + 16]
   11843:	18 03 00 00 fe ff ff ff 00 00 00 00 ff ff ff 7f	lddw r3, 9223372036854775806
   11845:	2d 32 2d 00 00 00 00 00	jgt r2, r3, +45 <custom_panic+0xbf20>
   11846:	79 98 08 00 00 00 00 00	ldxdw r8, [r9 + 8]
   11847:	79 82 10 00 00 00 00 00	ldxdw r2, [r8 + 16]
   11848:	2d 32 2f 00 00 00 00 00	jgt r2, r3, +47 <custom_panic+0xbf48>
   11849:	bf 62 00 00 00 00 00 00	mov64 r2, r6
   11850:	07 02 00 00 10 00 00 00	add64 r2, 16
   11851:	7b 2a b0 ff 00 00 00 00	stxdw [r10 - 80], r2
   11852:	bf 82 00 00 00 00 00 00	mov64 r2, r8
   11853:	07 02 00 00 10 00 00 00	add64 r2, 16
   11854:	7b 2a b8 ff 00 00 00 00	stxdw [r10 - 72], r2
   11855:	07 08 00 00 18 00 00 00	add64 r8, 24
   11856:	07 06 00 00 18 00 00 00	add64 r6, 24
   11857:	7b 6a a0 ff 00 00 00 00	stxdw [r10 - 96], r6
   11858:	7b 8a a8 ff 00 00 00 00	stxdw [r10 - 88], r8
   11859:	05 00 d0 ff 00 00 00 00	ja -48 <custom_panic+0xbca8>
   11860:	79 96 00 00 00 00 00 00	ldxdw r6, [r9 + 0]
   11861:	79 62 10 00 00 00 00 00	ldxdw r2, [r6 + 16]
   11862:	b7 04 00 00 00 00 00 00	mov64 r4, 0
   11863:	15 02 01 00 00 00 00 00	jeq r2, 0, +1 <custom_panic+0xbe50>
   11864:	05 00 16 00 00 00 00 00	ja +22 <custom_panic+0xbf00>
   11865:	bf 61 00 00 00 00 00 00	mov64 r1, r6
   11866:	07 01 00 00 10 00 00 00	add64 r1, 16
   11867:	7b 41 00 00 00 00 00 00	stxdw [r1 + 0], r4
   11868:	79 93 08 00 00 00 00 00	ldxdw r3, [r9 + 8]
   11869:	79 32 10 00 00 00 00 00	ldxdw r2, [r3 + 16]
   11870:	15 02 bd ff 00 00 00 00	jeq r2, 0, -67 <custom_panic+0xbc68>
   11871:	79 a2 c0 ff 00 00 00 00	ldxdw r2, [r10 - 64]
   11872:	79 a1 f0 ff 00 00 00 00	ldxdw r1, [r10 - 16]
   11873:	7b 12 10 00 00 00 00 00	stxdw [r2 + 16], r1
   11874:	79 a1 e8 ff 00 00 00 00	ldxdw r1, [r10 - 24]
   11875:	05 00 18 00 00 00 00 00	ja +24 <custom_panic+0xbf68>
   11876:	79 a1 90 ff 00 00 00 00	ldxdw r1, [r10 - 112]
   11877:	7b 1a 00 f0 00 00 00 00	stxdw [r10 - 4096], r1
   11878:	79 a1 98 ff 00 00 00 00	ldxdw r1, [r10 - 104]
   11879:	7b 1a 08 f0 00 00 00 00	stxdw [r10 - 4088], r1
   11880:	bf a5 00 00 00 00 00 00	mov64 r5, r10
   11881:	79 a1 c0 ff 00 00 00 00	ldxdw r1, [r10 - 64]
   11882:	79 a2 c8 ff 00 00 00 00	ldxdw r2, [r10 - 56]
   11883:	79 a3 d0 ff 00 00 00 00	ldxdw r3, [r10 - 48]
   11884:	79 a4 d8 ff 00 00 00 00	ldxdw r4, [r10 - 40]
   11885:	85 10 00 00 12 00 00 00	call 18
   11886:	05 00 10 00 00 00 00 00	ja +16 <custom_panic+0xbf80>
   11887:	79 a2 c0 ff 00 00 00 00	ldxdw r2, [r10 - 64]
   11888:	7b 12 10 00 00 00 00 00	stxdw [r2 + 16], r1
   11889:	79 a1 e0 ff 00 00 00 00	ldxdw r1, [r10 - 32]
   11890:	05 00 09 00 00 00 00 00	ja +9 <custom_panic+0xbf68>
   11891:	79 a2 c0 ff 00 00 00 00	ldxdw r2, [r10 - 64]
   11892:	79 a1 b0 ff 00 00 00 00	ldxdw r1, [r10 - 80]
   11893:	7b 12 10 00 00 00 00 00	stxdw [r2 + 16], r1
   11894:	79 a1 a0 ff 00 00 00 00	ldxdw r1, [r10 - 96]
   11895:	05 00 04 00 00 00 00 00	ja +4 <custom_panic+0xbf68>
   11896:	79 a2 c0 ff 00 00 00 00	ldxdw r2, [r10 - 64]
   11897:	79 a1 b8 ff 00 00 00 00	ldxdw r1, [r10 - 72]
   11898:	7b 12 10 00 00 00 00 00	stxdw [r2 + 16], r1
   11899:	79 a1 a8 ff 00 00 00 00	ldxdw r1, [r10 - 88]
   11900:	7b 12 08 00 00 00 00 00	stxdw [r2 + 8], r1
   11901:	b7 01 00 00 0b 00 00 00	mov64 r1, 11
   11902:	63 12 00 00 00 00 00 00	stxw [r2 + 0], r1
   11903:	95 00 00 00 00 00 00 00	exit
   11904:	7b 4a 80 ff 00 00 00 00	stxdw [r10 - 128], r4
   11905:	7b 3a 78 ff 00 00 00 00	stxdw [r10 - 136], r3
   11906:	7b 1a 88 ff 00 00 00 00	stxdw [r10 - 120], r1
   11907:	79 51 08 f0 00 00 00 00	ldxdw r1, [r5 - 4088]
   11908:	7b 1a 70 ff 00 00 00 00	stxdw [r10 - 144], r1
   11909:	79 51 00 f0 00 00 00 00	ldxdw r1, [r5 - 4096]
   11910:	7b 1a 68 ff 00 00 00 00	stxdw [r10 - 152], r1
   11911:	7b 2a 98 ff 00 00 00 00	stxdw [r10 - 104], r2
   11912:	79 21 10 00 00 00 00 00	ldxdw r1, [r2 + 16]
   11913:	b7 02 00 00 01 00 00 00	mov64 r2, 1
   11914:	7b 2a a0 ff 00 00 00 00	stxdw [r10 - 96], r2
   11915:	7b 1a 90 ff 00 00 00 00	stxdw [r10 - 112], r1
   11916:	15 01 32 00 00 00 00 00	jeq r1, 0, +50 <custom_panic+0xc180>
   11917:	b7 09 00 00 01 00 00 00	mov64 r9, 1
   11918:	18 01 00 00 c4 c3 c3 c3 00 00 00 00 c3 c3 c3 03	lddw r1, 271275648142787524
   11920:	79 a6 90 ff 00 00 00 00	ldxdw r6, [r10 - 112]
   11921:	2d 61 01 00 00 00 00 00	jgt r1, r6, +1 <custom_panic+0xc020>
   11922:	b7 09 00 00 00 00 00 00	mov64 r9, 0
   11923:	79 a2 98 ff 00 00 00 00	ldxdw r2, [r10 - 104]
   11924:	2d 61 02 00 00 00 00 00	jgt r1, r6, +2 <custom_panic+0xc040>
   11925:	85 10 00 00 e9 07 00 00	call 2025
   11926:	85 10 00 00 ff ff ff ff	call -1
   11927:	79 28 00 00 00 00 00 00	ldxdw r8, [r2 + 0]
   11928:	bf 67 00 00 00 00 00 00	mov64 r7, r6
   11929:	27 07 00 00 22 00 00 00	mul64 r7, 34
   11930:	15 07 0a 00 00 00 00 00	jeq r7, 0, +10 <custom_panic+0xc0b0>
   11931:	bf 71 00 00 00 00 00 00	mov64 r1, r7
   11932:	bf 92 00 00 00 00 00 00	mov64 r2, r9
   11933:	85 10 00 00 b5 e7 ff ff	call -6219
   11934:	7b 0a a0 ff 00 00 00 00	stxdw [r10 - 96], r0
   11935:	15 00 01 00 00 00 00 00	jeq r0, 0, +1 <custom_panic+0xc090>
   11936:	05 00 05 00 00 00 00 00	ja +5 <custom_panic+0xc0b8>
   11937:	bf 91 00 00 00 00 00 00	mov64 r1, r9
   11938:	bf 72 00 00 00 00 00 00	mov64 r2, r7
   11939:	85 10 00 00 ec 07 00 00	call 2028
   11940:	85 10 00 00 ff ff ff ff	call -1
   11941:	7b 9a a0 ff 00 00 00 00	stxdw [r10 - 96], r9
   11942:	b7 01 00 00 00 00 00 00	mov64 r1, 0
   11943:	bf 62 00 00 00 00 00 00	mov64 r2, r6
   11944:	1d 17 16 00 00 00 00 00	jeq r7, r1, +22 <custom_panic+0xc180>
   11945:	79 a3 a0 ff 00 00 00 00	ldxdw r3, [r10 - 96]
   11946:	0f 13 00 00 00 00 00 00	add64 r3, r1
   11947:	79 84 00 00 00 00 00 00	ldxdw r4, [r8 + 0]
   11948:	7b 4a a8 ff 00 00 00 00	stxdw [r10 - 88], r4
   11949:	79 85 08 00 00 00 00 00	ldxdw r5, [r8 + 8]
   11950:	79 80 10 00 00 00 00 00	ldxdw r0, [r8 + 16]
   11951:	bf 74 00 00 00 00 00 00	mov64 r4, r7
   11952:	79 87 18 00 00 00 00 00	ldxdw r7, [r8 + 24]
   11953:	71 89 21 00 00 00 00 00	ldxb r9, [r8 + 33]
   11954:	71 86 20 00 00 00 00 00	ldxb r6, [r8 + 32]
   11955:	73 63 20 00 00 00 00 00	stxb [r3 + 32], r6
   11956:	73 93 21 00 00 00 00 00	stxb [r3 + 33], r9
   11957:	7b 73 18 00 00 00 00 00	stxdw [r3 + 24], r7
   11958:	bf 47 00 00 00 00 00 00	mov64 r7, r4
   11959:	7b 03 10 00 00 00 00 00	stxdw [r3 + 16], r0
   11960:	7b 53 08 00 00 00 00 00	stxdw [r3 + 8], r5
   11961:	79 a4 a8 ff 00 00 00 00	ldxdw r4, [r10 - 88]
   11962:	7b 43 00 00 00 00 00 00	stxdw [r3 + 0], r4
   11963:	07 01 00 00 22 00 00 00	add64 r1, 34
   11964:	07 08 00 00 22 00 00 00	add64 r8, 34
   11965:	07 02 00 00 ff ff ff ff	add64 r2, -1
   11966:	55 02 e9 ff 00 00 00 00	jne r2, 0, -23 <custom_panic+0xc0c8>
   11967:	79 a7 98 ff 00 00 00 00	ldxdw r7, [r10 - 104]
   11968:	79 72 18 00 00 00 00 00	ldxdw r2, [r7 + 24]
   11969:	79 76 28 00 00 00 00 00	ldxdw r6, [r7 + 40]
   11970:	b7 09 00 00 01 00 00 00	mov64 r9, 1
   11971:	15 06 10 00 00 00 00 00	jeq r6, 0, +16 <custom_panic+0xc228>
   11972:	7b 2a a8 ff 00 00 00 00	stxdw [r10 - 88], r2
   11973:	65 06 01 00 ff ff ff ff	jsgt r6, -1, +1 <custom_panic+0xc1c0>
   11974:	05 00 ce ff 00 00 00 00	ja -50 <custom_panic+0xc030>
   11975:	bf 68 00 00 00 00 00 00	mov64 r8, r6
   11976:	a7 08 00 00 ff ff ff ff	xor64 r8, -1
   11977:	77 08 00 00 3f 00 00 00	rsh64 r8, 63
   11978:	bf 61 00 00 00 00 00 00	mov64 r1, r6
   11979:	bf 82 00 00 00 00 00 00	mov64 r2, r8
   11980:	85 10 00 00 86 e7 ff ff	call -6266
   11981:	bf 09 00 00 00 00 00 00	mov64 r9, r0
   11982:	79 a2 a8 ff 00 00 00 00	ldxdw r2, [r10 - 88]
   11983:	55 09 04 00 00 00 00 00	jne r9, 0, +4 <custom_panic+0xc228>
   11984:	bf 81 00 00 00 00 00 00	mov64 r1, r8
   11985:	bf 62 00 00 00 00 00 00	mov64 r2, r6
   11986:	85 10 00 00 bd 07 00 00	call 1981
   11987:	85 10 00 00 ff ff ff ff	call -1
   11988:	07 07 00 00 30 00 00 00	add64 r7, 48
   11989:	bf 91 00 00 00 00 00 00	mov64 r1, r9
   11990:	bf 63 00 00 00 00 00 00	mov64 r3, r6
   11991:	85 10 00 00 c2 18 00 00	call 6338
   11992:	79 71 18 00 00 00 00 00	ldxdw r1, [r7 + 24]
   11993:	79 72 10 00 00 00 00 00	ldxdw r2, [r7 + 16]
   11994:	79 73 08 00 00 00 00 00	ldxdw r3, [r7 + 8]
   11995:	79 74 00 00 00 00 00 00	ldxdw r4, [r7 + 0]
   11996:	79 a5 a0 ff 00 00 00 00	ldxdw r5, [r10 - 96]
   11997:	7b 5a b0 ff 00 00 00 00	stxdw [r10 - 80], r5
   11998:	79 a5 90 ff 00 00 00 00	ldxdw r5, [r10 - 112]
   11999:	7b 5a b8 ff 00 00 00 00	stxdw [r10 - 72], r5
   12000:	7b 5a c0 ff 00 00 00 00	stxdw [r10 - 64], r5
   12001:	7b 9a c8 ff 00 00 00 00	stxdw [r10 - 56], r9
   12002:	7b 6a d0 ff 00 00 00 00	stxdw [r10 - 48], r6
   12003:	7b 6a d8 ff 00 00 00 00	stxdw [r10 - 40], r6
   12004:	7b 4a e0 ff 00 00 00 00	stxdw [r10 - 32], r4
   12005:	7b 3a e8 ff 00 00 00 00	stxdw [r10 - 24], r3
   12006:	7b 2a f0 ff 00 00 00 00	stxdw [r10 - 16], r2
   12007:	7b 1a f8 ff 00 00 00 00	stxdw [r10 - 8], r1
   12008:	bf a1 00 00 00 00 00 00	mov64 r1, r10
   12009:	07 01 00 00 b0 ff ff ff	add64 r1, -80
   12010:	79 a2 78 ff 00 00 00 00	ldxdw r2, [r10 - 136]
   12011:	79 a3 80 ff 00 00 00 00	ldxdw r3, [r10 - 128]
   12012:	79 a4 68 ff 00 00 00 00	ldxdw r4, [r10 - 152]
   12013:	79 a5 70 ff 00 00 00 00	ldxdw r5, [r10 - 144]
   12014:	85 10 00 00 ff ff ff ff	call -1
   12015:	55 00 04 00 00 00 00 00	jne r0, 0, +4 <custom_panic+0xc328>
   12016:	b7 01 00 00 16 00 00 00	mov64 r1, 22
   12017:	79 a2 88 ff 00 00 00 00	ldxdw r2, [r10 - 120]
   12018:	63 12 00 00 00 00 00 00	stxw [r2 + 0], r1
   12019:	05 00 03 00 00 00 00 00	ja +3 <custom_panic+0xc340>
   12020:	79 a1 88 ff 00 00 00 00	ldxdw r1, [r10 - 120]
   12021:	bf 02 00 00 00 00 00 00	mov64 r2, r0
   12022:	85 10 00 00 6e 00 00 00	call 110
   12023:	79 a2 b8 ff 00 00 00 00	ldxdw r2, [r10 - 72]
   12024:	15 02 04 00 00 00 00 00	jeq r2, 0, +4 <custom_panic+0xc370>
   12025:	27 02 00 00 22 00 00 00	mul64 r2, 34
   12026:	79 a1 b0 ff 00 00 00 00	ldxdw r1, [r10 - 80]
   12027:	b7 03 00 00 01 00 00 00	mov64 r3, 1
   12028:	85 10 00 00 70 e7 ff ff	call -6288
   12029:	79 a2 d0 ff 00 00 00 00	ldxdw r2, [r10 - 48]
   12030:	15 02 03 00 00 00 00 00	jeq r2, 0, +3 <custom_panic+0xc398>
   12031:	79 a1 c8 ff 00 00 00 00	ldxdw r1, [r10 - 56]
   12032:	b7 03 00 00 01 00 00 00	mov64 r3, 1
   12033:	85 10 00 00 6b e7 ff ff	call -6293
   12034:	95 00 00 00 00 00 00 00	exit
   12035:	61 12 00 00 00 00 00 00	ldxw r2, [r1 + 0]
   12036:	65 02 06 00 0a 00 00 00	jsgt r2, 10, +6 <custom_panic+0xc3e0>
   12037:	65 02 0b 00 04 00 00 00	jsgt r2, 4, +11 <custom_panic+0xc410>
   12038:	65 02 16 00 01 00 00 00	jsgt r2, 1, +22 <custom_panic+0xc470>
   12039:	15 02 29 00 00 00 00 00	jeq r2, 0, +41 <custom_panic+0xc510>
   12040:	18 06 00 00 00 00 00 00 00 00 00 00 02 00 00 00	lddw r6, 8589934592
   12042:	05 00 52 00 00 00 00 00	ja +82 <custom_panic+0xc670>
   12043:	65 02 0b 00 0f 00 00 00	jsgt r2, 15, +11 <custom_panic+0xc440>
   12044:	65 02 15 00 0c 00 00 00	jsgt r2, 12, +21 <custom_panic+0xc498>
   12045:	15 02 29 00 0b 00 00 00	jeq r2, 11, +41 <custom_panic+0xc540>
   12046:	18 06 00 00 00 00 00 00 00 00 00 00 0d 00 00 00	lddw r6, 55834574848
   12048:	05 00 4c 00 00 00 00 00	ja +76 <custom_panic+0xc670>
   12049:	65 02 15 00 07 00 00 00	jsgt r2, 7, +21 <custom_panic+0xc4c0>
   12050:	15 02 27 00 05 00 00 00	jeq r2, 5, +39 <custom_panic+0xc558>
   12051:	15 02 29 00 06 00 00 00	jeq r2, 6, +41 <custom_panic+0xc570>
   12052:	18 06 00 00 00 00 00 00 00 00 00 00 08 00 00 00	lddw r6, 34359738368
   12054:	05 00 46 00 00 00 00 00	ja +70 <custom_panic+0xc670>
   12055:	65 02 14 00 12 00 00 00	jsgt r2, 18, +20 <custom_panic+0xc4e8>
   12056:	15 02 27 00 10 00 00 00	jeq r2, 16, +39 <custom_panic+0xc588>
   12057:	15 02 29 00 11 00 00 00	jeq r2, 17, +41 <custom_panic+0xc5a0>
   12058:	18 06 00 00 00 00 00 00 00 00 00 00 13 00 00 00	lddw r6, 81604378624
   12060:	05 00 40 00 00 00 00 00	ja +64 <custom_panic+0xc670>
   12061:	15 02 28 00 02 00 00 00	jeq r2, 2, +40 <custom_panic+0xc5b8>
   12062:	15 02 2a 00 03 00 00 00	jeq r2, 3, +42 <custom_panic+0xc5d0>
   12063:	18 06 00 00 00 00 00 00 00 00 00 00 05 00 00 00	lddw r6, 21474836480
   12065:	05 00 3b 00 00 00 00 00	ja +59 <custom_panic+0xc670>
   12066:	15 02 29 00 0d 00 00 00	jeq r2, 13, +41 <custom_panic+0xc5e8>
   12067:	15 02 2b 00 0e 00 00 00	jeq r2, 14, +43 <custom_panic+0xc600>
   12068:	18 06 00 00 00 00 00 00 00 00 00 00 10 00 00 00	lddw r6, 68719476736
   12070:	05 00 36 00 00 00 00 00	ja +54 <custom_panic+0xc670>
   12071:	15 02 2a 00 08 00 00 00	jeq r2, 8, +42 <custom_panic+0xc618>
   12072:	15 02 2c 00 09 00 00 00	jeq r2, 9, +44 <custom_panic+0xc630>
   12073:	18 06 00 00 00 00 00 00 00 00 00 00 0b 00 00 00	lddw r6, 47244640256
   12075:	05 00 31 00 00 00 00 00	ja +49 <custom_panic+0xc670>
   12076:	15 02 2b 00 13 00 00 00	jeq r2, 19, +43 <custom_panic+0xc648>
   12077:	15 02 2d 00 14 00 00 00	jeq r2, 20, +45 <custom_panic+0xc660>
   12078:	18 06 00 00 00 00 00 00 00 00 00 00 16 00 00 00	lddw r6, 94489280512
   12080:	05 00 2c 00 00 00 00 00	ja +44 <custom_panic+0xc670>
   12081:	18 06 00 00 00 00 00 00 00 00 00 00 01 00 00 00	lddw r6, 4294967296
   12083:	61 13 04 00 00 00 00 00	ldxw r3, [r1 + 4]
   12084:	15 03 28 00 00 00 00 00	jeq r3, 0, +40 <custom_panic+0xc670>
   12085:	bf 36 00 00 00 00 00 00	mov64 r6, r3
   12086:	05 00 26 00 00 00 00 00	ja +38 <custom_panic+0xc670>
   12087:	18 06 00 00 00 00 00 00 00 00 00 00 0c 00 00 00	lddw r6, 51539607552
   12089:	05 00 23 00 00 00 00 00	ja +35 <custom_panic+0xc670>
   12090:	18 06 00 00 00 00 00 00 00 00 00 00 06 00 00 00	lddw r6, 25769803776
   12092:	05 00 20 00 00 00 00 00	ja +32 <custom_panic+0xc670>
   12093:	18 06 00 00 00 00 00 00 00 00 00 00 07 00 00 00	lddw r6, 30064771072
   12095:	05 00 1d 00 00 00 00 00	ja +29 <custom_panic+0xc670>
   12096:	18 06 00 00 00 00 00 00 00 00 00 00 11 00 00 00	lddw r6, 73014444032
   12098:	05 00 1a 00 00 00 00 00	ja +26 <custom_panic+0xc670>
   12099:	18 06 00 00 00 00 00 00 00 00 00 00 12 00 00 00	lddw r6, 77309411328
   12101:	05 00 17 00 00 00 00 00	ja +23 <custom_panic+0xc670>
   12102:	18 06 00 00 00 00 00 00 00 00 00 00 03 00 00 00	lddw r6, 12884901888
   12104:	05 00 14 00 00 00 00 00	ja +20 <custom_panic+0xc670>
   12105:	18 06 00 00 00 00 00 00 00 00 00 00 04 00 00 00	lddw r6, 17179869184
   12107:	05 00 11 00 00 00 00 00	ja +17 <custom_panic+0xc670>
   12108:	18 06 00 00 00 00 00 00 00 00 00 00 0e 00 00 00	lddw r6, 60129542144
   12110:	05 00 0e 00 00 00 00 00	ja +14 <custom_panic+0xc670>
   12111:	18 06 00 00 00 00 00 00 00 00 00 00 0f 00 00 00	lddw r6, 64424509440
   12113:	05 00 0b 00 00 00 00 00	ja +11 <custom_panic+0xc670>
   12114:	18 06 00 00 00 00 00 00 00 00 00 00 09 00 00 00	lddw r6, 38654705664
   12116:	05 00 08 00 00 00 00 00	ja +8 <custom_panic+0xc670>
   12117:	18 06 00 00 00 00 00 00 00 00 00 00 0a 00 00 00	lddw r6, 42949672960
   12119:	05 00 05 00 00 00 00 00	ja +5 <custom_panic+0xc670>
   12120:	18 06 00 00 00 00 00 00 00 00 00 00 14 00 00 00	lddw r6, 85899345920
   12122:	05 00 02 00 00 00 00 00	ja +2 <custom_panic+0xc670>
   12123:	18 06 00 00 00 00 00 00 00 00 00 00 15 00 00 00	lddw r6, 90194313216
   12125:	55 02 05 00 0e 00 00 00	jne r2, 14, +5 <custom_panic+0xc6a0>
   12126:	79 12 10 00 00 00 00 00	ldxdw r2, [r1 + 16]
   12127:	15 02 03 00 00 00 00 00	jeq r2, 0, +3 <custom_panic+0xc6a0>
   12128:	79 11 08 00 00 00 00 00	ldxdw r1, [r1 + 8]
   12129:	b7 03 00 00 01 00 00 00	mov64 r3, 1
   12130:	85 10 00 00 0a e7 ff ff	call -6390
   12131:	bf 60 00 00 00 00 00 00	mov64 r0, r6
   12132:	95 00 00 00 00 00 00 00	exit
   12133:	bf 16 00 00 00 00 00 00	mov64 r6, r1
   12134:	18 01 00 00 00 00 00 00 00 00 00 00 ff ff ff ff	lddw r1, -4294967296
   12136:	bf 23 00 00 00 00 00 00	mov64 r3, r2
   12137:	0f 13 00 00 00 00 00 00	add64 r3, r1
   12138:	77 03 00 00 20 00 00 00	rsh64 r3, 32
   12139:	bf 21 00 00 00 00 00 00	mov64 r1, r2
   12140:	67 01 00 00 20 00 00 00	lsh64 r1, 32
   12141:	4f 31 00 00 00 00 00 00	or64 r1, r3
   12142:	65 01 06 00 0a 00 00 00	jsgt r1, 10, +6 <custom_panic+0xc730>
   12143:	65 01 0c 00 04 00 00 00	jsgt r1, 4, +12 <custom_panic+0xc768>
   12144:	65 01 19 00 01 00 00 00	jsgt r1, 1, +25 <custom_panic+0xc7d8>
   12145:	15 01 30 00 00 00 00 00	jeq r1, 0, +48 <custom_panic+0xc898>
   12146:	b7 03 00 00 01 00 00 00	mov64 r3, 1
   12147:	15 01 5c 00 01 00 00 00	jeq r1, 1, +92 <custom_panic+0xca08>
   12148:	05 00 2a 00 00 00 00 00	ja +42 <custom_panic+0xc880>
   12149:	65 01 0d 00 0f 00 00 00	jsgt r1, 15, +13 <custom_panic+0xc7a0>
   12150:	65 01 19 00 0c 00 00 00	jsgt r1, 12, +25 <custom_panic+0xc808>
   12151:	15 01 2d 00 0b 00 00 00	jeq r1, 11, +45 <custom_panic+0xc8b0>
   12152:	15 01 01 00 0c 00 00 00	jeq r1, 12, +1 <custom_panic+0xc758>
   12153:	05 00 25 00 00 00 00 00	ja +37 <custom_panic+0xc880>
   12154:	b7 03 00 00 0c 00 00 00	mov64 r3, 12
   12155:	05 00 54 00 00 00 00 00	ja +84 <custom_panic+0xca08>
   12156:	65 01 19 00 07 00 00 00	jsgt r1, 7, +25 <custom_panic+0xc838>
   12157:	15 01 29 00 05 00 00 00	jeq r1, 5, +41 <custom_panic+0xc8c0>
   12158:	15 01 2a 00 06 00 00 00	jeq r1, 6, +42 <custom_panic+0xc8d0>
   12159:	15 01 01 00 07 00 00 00	jeq r1, 7, +1 <custom_panic+0xc790>
   12160:	05 00 1e 00 00 00 00 00	ja +30 <custom_panic+0xc880>
   12161:	b7 03 00 00 07 00 00 00	mov64 r3, 7
   12162:	05 00 4d 00 00 00 00 00	ja +77 <custom_panic+0xca08>
   12163:	65 01 18 00 12 00 00 00	jsgt r1, 18, +24 <custom_panic+0xc868>
   12164:	15 01 26 00 10 00 00 00	jeq r1, 16, +38 <custom_panic+0xc8e0>
   12165:	15 01 27 00 11 00 00 00	jeq r1, 17, +39 <custom_panic+0xc8f0>
   12166:	15 01 01 00 12 00 00 00	jeq r1, 18, +1 <custom_panic+0xc7c8>
   12167:	05 00 17 00 00 00 00 00	ja +23 <custom_panic+0xc880>
   12168:	b7 03 00 00 12 00 00 00	mov64 r3, 18
   12169:	05 00 46 00 00 00 00 00	ja +70 <custom_panic+0xca08>
   12170:	15 01 24 00 02 00 00 00	jeq r1, 2, +36 <custom_panic+0xc900>
   12171:	15 01 25 00 03 00 00 00	jeq r1, 3, +37 <custom_panic+0xc910>
   12172:	15 01 01 00 04 00 00 00	jeq r1, 4, +1 <custom_panic+0xc7f8>
   12173:	05 00 11 00 00 00 00 00	ja +17 <custom_panic+0xc880>
   12174:	b7 03 00 00 04 00 00 00	mov64 r3, 4
   12175:	05 00 40 00 00 00 00 00	ja +64 <custom_panic+0xca08>
   12176:	15 01 22 00 0d 00 00 00	jeq r1, 13, +34 <custom_panic+0xc920>
   12177:	15 01 23 00 0e 00 00 00	jeq r1, 14, +35 <custom_panic+0xc930>
   12178:	15 01 01 00 0f 00 00 00	jeq r1, 15, +1 <custom_panic+0xc828>
   12179:	05 00 0b 00 00 00 00 00	ja +11 <custom_panic+0xc880>
   12180:	b7 03 00 00 0f 00 00 00	mov64 r3, 15
   12181:	05 00 3a 00 00 00 00 00	ja +58 <custom_panic+0xca08>
   12182:	15 01 27 00 08 00 00 00	jeq r1, 8, +39 <custom_panic+0xc978>
   12183:	15 01 28 00 09 00 00 00	jeq r1, 9, +40 <custom_panic+0xc988>
   12184:	15 01 01 00 0a 00 00 00	jeq r1, 10, +1 <custom_panic+0xc858>
   12185:	05 00 05 00 00 00 00 00	ja +5 <custom_panic+0xc880>
   12186:	b7 03 00 00 0a 00 00 00	mov64 r3, 10
   12187:	05 00 34 00 00 00 00 00	ja +52 <custom_panic+0xca08>
   12188:	15 01 25 00 13 00 00 00	jeq r1, 19, +37 <custom_panic+0xc998>
   12189:	15 01 26 00 14 00 00 00	jeq r1, 20, +38 <custom_panic+0xc9a8>
   12190:	15 01 27 00 15 00 00 00	jeq r1, 21, +39 <custom_panic+0xc9b8>
   12191:	63 26 04 00 00 00 00 00	stxw [r6 + 4], r2
   12192:	b7 03 00 00 00 00 00 00	mov64 r3, 0
   12193:	05 00 2e 00 00 00 00 00	ja +46 <custom_panic+0xca08>
   12194:	b7 03 00 00 00 00 00 00	mov64 r3, 0
   12195:	63 36 04 00 00 00 00 00	stxw [r6 + 4], r3
   12196:	05 00 2b 00 00 00 00 00	ja +43 <custom_panic+0xca08>
   12197:	b7 03 00 00 0b 00 00 00	mov64 r3, 11
   12198:	05 00 29 00 00 00 00 00	ja +41 <custom_panic+0xca08>
   12199:	b7 03 00 00 05 00 00 00	mov64 r3, 5
   12200:	05 00 27 00 00 00 00 00	ja +39 <custom_panic+0xca08>
   12201:	b7 03 00 00 06 00 00 00	mov64 r3, 6
   12202:	05 00 25 00 00 00 00 00	ja +37 <custom_panic+0xca08>
   12203:	b7 03 00 00 10 00 00 00	mov64 r3, 16
   12204:	05 00 23 00 00 00 00 00	ja +35 <custom_panic+0xca08>
   12205:	b7 03 00 00 11 00 00 00	mov64 r3, 17
   12206:	05 00 21 00 00 00 00 00	ja +33 <custom_panic+0xca08>
   12207:	b7 03 00 00 02 00 00 00	mov64 r3, 2
   12208:	05 00 1f 00 00 00 00 00	ja +31 <custom_panic+0xca08>
   12209:	b7 03 00 00 03 00 00 00	mov64 r3, 3
   12210:	05 00 1d 00 00 00 00 00	ja +29 <custom_panic+0xca08>
   12211:	b7 03 00 00 0d 00 00 00	mov64 r3, 13
   12212:	05 00 1b 00 00 00 00 00	ja +27 <custom_panic+0xca08>
   12213:	b7 07 00 00 07 00 00 00	mov64 r7, 7
   12214:	b7 01 00 00 07 00 00 00	mov64 r1, 7
   12215:	b7 02 00 00 01 00 00 00	mov64 r2, 1
   12216:	85 10 00 00 9a e6 ff ff	call -6502
   12217:	55 00 0e 00 00 00 00 00	jne r0, 0, +14 <custom_panic+0xc9c8>
   12218:	b7 01 00 00 01 00 00 00	mov64 r1, 1
   12219:	b7 02 00 00 07 00 00 00	mov64 r2, 7
   12220:	85 10 00 00 d3 06 00 00	call 1747
   12221:	85 10 00 00 ff ff ff ff	call -1
   12222:	b7 03 00 00 08 00 00 00	mov64 r3, 8
   12223:	05 00 10 00 00 00 00 00	ja +16 <custom_panic+0xca08>
   12224:	b7 03 00 00 09 00 00 00	mov64 r3, 9
   12225:	05 00 0e 00 00 00 00 00	ja +14 <custom_panic+0xca08>
   12226:	b7 03 00 00 13 00 00 00	mov64 r3, 19
   12227:	05 00 0c 00 00 00 00 00	ja +12 <custom_panic+0xca08>
   12228:	b7 03 00 00 14 00 00 00	mov64 r3, 20
   12229:	05 00 0a 00 00 00 00 00	ja +10 <custom_panic+0xca08>
   12230:	b7 03 00 00 15 00 00 00	mov64 r3, 21
   12231:	05 00 08 00 00 00 00 00	ja +8 <custom_panic+0xca08>
   12232:	b7 01 00 00 6e 6f 77 6e	mov64 r1, 1853321070
   12233:	63 10 03 00 00 00 00 00	stxw [r0 + 3], r1
   12234:	b7 01 00 00 55 6e 6b 6e	mov64 r1, 1852534357
   12235:	63 10 00 00 00 00 00 00	stxw [r0 + 0], r1
   12236:	7b 76 18 00 00 00 00 00	stxdw [r6 + 24], r7
   12237:	7b 76 10 00 00 00 00 00	stxdw [r6 + 16], r7
   12238:	7b 06 08 00 00 00 00 00	stxdw [r6 + 8], r0
   12239:	b7 03 00 00 0e 00 00 00	mov64 r3, 14
   12240:	63 36 00 00 00 00 00 00	stxw [r6 + 0], r3
   12241:	95 00 00 00 00 00 00 00	exit
   12242:	bf 40 00 00 00 00 00 00	mov64 r0, r4
   12243:	bf 16 00 00 00 00 00 00	mov64 r6, r1
   12244:	b7 07 00 00 00 00 00 00	mov64 r7, 0
   12245:	7b 7a e8 ff 00 00 00 00	stxdw [r10 - 24], r7
   12246:	7b 7a e0 ff 00 00 00 00	stxdw [r10 - 32], r7
   12247:	7b 7a d8 ff 00 00 00 00	stxdw [r10 - 40], r7
   12248:	7b 7a d0 ff 00 00 00 00	stxdw [r10 - 48], r7
   12249:	b7 01 00 00 ff 00 00 00	mov64 r1, 255
   12250:	73 1a cf ff 00 00 00 00	stxb [r10 - 49], r1
   12251:	bf a4 00 00 00 00 00 00	mov64 r4, r10
   12252:	07 04 00 00 d0 ff ff ff	add64 r4, -48
   12253:	bf a5 00 00 00 00 00 00	mov64 r5, r10
   12254:	07 05 00 00 cf ff ff ff	add64 r5, -49
   12255:	bf 21 00 00 00 00 00 00	mov64 r1, r2
   12256:	bf 32 00 00 00 00 00 00	mov64 r2, r3
   12257:	bf 03 00 00 00 00 00 00	mov64 r3, r0
   12258:	85 10 00 00 ff ff ff ff	call -1
   12259:	15 00 10 00 00 00 00 00	jeq r0, 0, +16 <custom_panic+0xcb28>
   12260:	b7 01 00 00 01 00 00 00	mov64 r1, 1
   12261:	7b 1a d8 ff 00 00 00 00	stxdw [r10 - 40], r1
   12262:	18 01 00 00 88 84 02 00 00 00 00 00 00 00 00 00	lddw r1, 165000
   12264:	7b 1a d0 ff 00 00 00 00	stxdw [r10 - 48], r1
   12265:	7b 7a f0 ff 00 00 00 00	stxdw [r10 - 16], r7
   12266:	7b 7a e8 ff 00 00 00 00	stxdw [r10 - 24], r7
   12267:	18 01 00 00 c8 65 02 00 00 00 00 00 00 00 00 00	lddw r1, 157128
   12269:	7b 1a e0 ff 00 00 00 00	stxdw [r10 - 32], r1
   12270:	bf a1 00 00 00 00 00 00	mov64 r1, r10
   12271:	07 01 00 00 d0 ff ff ff	add64 r1, -48
   12272:	18 02 00 00 98 84 02 00 00 00 00 00 00 00 00 00	lddw r2, 165016
   12274:	85 10 00 00 66 09 00 00	call 2406
   12275:	85 10 00 00 ff ff ff ff	call -1
   12276:	71 a1 cf ff 00 00 00 00	ldxb r1, [r10 - 49]
   12277:	79 a2 d0 ff 00 00 00 00	ldxdw r2, [r10 - 48]
   12278:	79 a3 d8 ff 00 00 00 00	ldxdw r3, [r10 - 40]
   12279:	79 a4 e0 ff 00 00 00 00	ldxdw r4, [r10 - 32]
   12280:	79 a5 e8 ff 00 00 00 00	ldxdw r5, [r10 - 24]
   12281:	7b 56 18 00 00 00 00 00	stxdw [r6 + 24], r5
   12282:	7b 46 10 00 00 00 00 00	stxdw [r6 + 16], r4
   12283:	7b 36 08 00 00 00 00 00	stxdw [r6 + 8], r3
   12284:	7b 26 00 00 00 00 00 00	stxdw [r6 + 0], r2
   12285:	73 16 20 00 00 00 00 00	stxb [r6 + 32], r1
   12286:	95 00 00 00 00 00 00 00	exit
   12287:	85 10 00 00 ff ff ff ff	call -1
   12288:	95 00 00 00 00 00 00 00	exit
   12289:	bf 26 00 00 00 00 00 00	mov64 r6, r2
   12290:	bf 17 00 00 00 00 00 00	mov64 r7, r1
   12291:	bf 32 00 00 00 00 00 00	mov64 r2, r3
   12292:	07 02 00 00 80 00 00 00	add64 r2, 128
   12293:	b7 01 00 00 01 00 00 00	mov64 r1, 1
   12294:	2d 23 01 00 00 00 00 00	jgt r3, r2, +1 <custom_panic+0xcbc8>
   12295:	b7 01 00 00 00 00 00 00	mov64 r1, 0
   12296:	57 01 00 00 01 00 00 00	and64 r1, 1
   12297:	55 01 27 00 00 00 00 00	jne r1, 0, +39 <custom_panic+0xcd10>
   12298:	79 74 00 00 00 00 00 00	ldxdw r4, [r7 + 0]
   12299:	bf a1 00 00 00 00 00 00	mov64 r1, r10
   12300:	07 01 00 00 f0 ff ff ff	add64 r1, -16
   12301:	b7 03 00 00 00 00 00 00	mov64 r3, 0
   12302:	b7 05 00 00 00 00 00 00	mov64 r5, 0
   12303:	85 10 00 00 82 18 00 00	call 6274
   12304:	b7 01 00 00 01 00 00 00	mov64 r1, 1
   12305:	79 a2 f8 ff 00 00 00 00	ldxdw r2, [r10 - 8]
   12306:	55 02 01 00 00 00 00 00	jne r2, 0, +1 <custom_panic+0xcc28>
   12307:	b7 01 00 00 00 00 00 00	mov64 r1, 0
   12308:	57 01 00 00 01 00 00 00	and64 r1, 1
   12309:	55 01 22 00 00 00 00 00	jne r1, 0, +34 <custom_panic+0xcd48>
   12310:	79 a1 f0 ff 00 00 00 00	ldxdw r1, [r10 - 16]
   12311:	85 10 00 00 ab 19 00 00	call 6571
   12312:	79 71 08 00 00 00 00 00	ldxdw r1, [r7 + 8]
   12313:	bf 02 00 00 00 00 00 00	mov64 r2, r0
   12314:	85 10 00 00 a6 18 00 00	call 6310
   12315:	bf 07 00 00 00 00 00 00	mov64 r7, r0
   12316:	bf 71 00 00 00 00 00 00	mov64 r1, r7
   12317:	b7 02 00 00 00 00 00 00	mov64 r2, 0
   12318:	85 10 00 00 51 18 00 00	call 6225
   12319:	bf 08 00 00 00 00 00 00	mov64 r8, r0
   12320:	bf 71 00 00 00 00 00 00	mov64 r1, r7
   12321:	85 10 00 00 e0 19 00 00	call 6624
   12322:	b7 09 00 00 00 00 00 00	mov64 r9, 0
   12323:	b7 01 00 00 00 00 00 00	mov64 r1, 0
   12324:	6d 81 01 00 00 00 00 00	jsgt r1, r8, +1 <custom_panic+0xccb8>
   12325:	bf 09 00 00 00 00 00 00	mov64 r9, r0
   12326:	bf 71 00 00 00 00 00 00	mov64 r1, r7
   12327:	18 02 00 00 ff ff ff ff 00 00 00 00 ff ff ef 43	lddw r2, 4895412794951729151
   12329:	85 10 00 00 24 18 00 00	call 6180
   12330:	b7 01 00 00 ff ff ff ff	mov64 r1, -1
   12331:	65 00 01 00 00 00 00 00	jsgt r0, 0, +1 <custom_panic+0xccf0>
   12332:	bf 91 00 00 00 00 00 00	mov64 r1, r9
   12333:	b7 00 00 00 01 00 00 00	mov64 r0, 1
   12334:	3d 16 01 00 00 00 00 00	jge r6, r1, +1 <custom_panic+0xcd08>
   12335:	b7 00 00 00 00 00 00 00	mov64 r0, 0
   12336:	95 00 00 00 00 00 00 00	exit
   12337:	18 01 00 00 c0 61 02 00 00 00 00 00 00 00 00 00	lddw r1, 156096
   12339:	b7 02 00 00 1c 00 00 00	mov64 r2, 28
   12340:	18 03 00 00 b0 84 02 00 00 00 00 00 00 00 00 00	lddw r3, 165040
   12342:	85 10 00 00 30 09 00 00	call 2352
   12343:	85 10 00 00 ff ff ff ff	call -1
   12344:	18 01 00 00 e0 61 02 00 00 00 00 00 00 00 00 00	lddw r1, 156128
   12346:	b7 02 00 00 21 00 00 00	mov64 r2, 33
   12347:	18 03 00 00 c8 84 02 00 00 00 00 00 00 00 00 00	lddw r3, 165064
   12349:	85 10 00 00 29 09 00 00	call 2345
   12350:	85 10 00 00 ff ff ff ff	call -1
   12351:	bf 47 00 00 00 00 00 00	mov64 r7, r4
   12352:	bf 38 00 00 00 00 00 00	mov64 r8, r3
   12353:	bf 29 00 00 00 00 00 00	mov64 r9, r2
   12354:	bf 16 00 00 00 00 00 00	mov64 r6, r1
   12355:	b7 01 00 00 44 00 00 00	mov64 r1, 68
   12356:	b7 02 00 00 01 00 00 00	mov64 r2, 1
   12357:	85 10 00 00 0d e6 ff ff	call -6643
   12358:	55 00 04 00 00 00 00 00	jne r0, 0, +4 <custom_panic+0xcde0>
   12359:	b7 01 00 00 01 00 00 00	mov64 r1, 1
   12360:	b7 02 00 00 44 00 00 00	mov64 r2, 68
   12361:	85 10 00 00 46 06 00 00	call 1606
   12362:	85 10 00 00 ff ff ff ff	call -1
   12363:	79 91 18 00 00 00 00 00	ldxdw r1, [r9 + 24]
   12364:	7b 10 18 00 00 00 00 00	stxdw [r0 + 24], r1
   12365:	79 91 10 00 00 00 00 00	ldxdw r1, [r9 + 16]
   12366:	7b 10 10 00 00 00 00 00	stxdw [r0 + 16], r1
   12367:	79 91 08 00 00 00 00 00	ldxdw r1, [r9 + 8]
   12368:	7b 10 08 00 00 00 00 00	stxdw [r0 + 8], r1
   12369:	79 91 00 00 00 00 00 00	ldxdw r1, [r9 + 0]
   12370:	7b 10 00 00 00 00 00 00	stxdw [r0 + 0], r1
   12371:	b7 01 00 00 01 01 00 00	mov64 r1, 257
   12372:	6b 10 20 00 00 00 00 00	stxh [r0 + 32], r1
   12373:	79 81 00 00 00 00 00 00	ldxdw r1, [r8 + 0]
   12374:	7b 10 22 00 00 00 00 00	stxdw [r0 + 34], r1
   12375:	79 81 08 00 00 00 00 00	ldxdw r1, [r8 + 8]
   12376:	7b 10 2a 00 00 00 00 00	stxdw [r0 + 42], r1
   12377:	79 81 10 00 00 00 00 00	ldxdw r1, [r8 + 16]
   12378:	7b 10 32 00 00 00 00 00	stxdw [r0 + 50], r1
   12379:	79 81 18 00 00 00 00 00	ldxdw r1, [r8 + 24]
   12380:	7b 10 3a 00 00 00 00 00	stxdw [r0 + 58], r1
   12381:	b7 01 00 00 00 01 00 00	mov64 r1, 256
   12382:	6b 10 42 00 00 00 00 00	stxh [r0 + 66], r1
   12383:	b7 01 00 00 00 00 00 00	mov64 r1, 0
   12384:	7b 1a 70 ff 00 00 00 00	stxdw [r10 - 144], r1
   12385:	7b 1a 68 ff 00 00 00 00	stxdw [r10 - 152], r1
   12386:	7b 1a 60 ff 00 00 00 00	stxdw [r10 - 160], r1
   12387:	7b 1a 58 ff 00 00 00 00	stxdw [r10 - 168], r1
   12388:	7b 7a 80 ff 00 00 00 00	stxdw [r10 - 128], r7
   12389:	b7 01 00 00 02 00 00 00	mov64 r1, 2
   12390:	73 1a 78 ff 00 00 00 00	stxb [r10 - 136], r1
   12391:	7b 1a f8 ff 00 00 00 00	stxdw [r10 - 8], r1
   12392:	7b 1a f0 ff 00 00 00 00	stxdw [r10 - 16], r1
   12393:	7b 0a e8 ff 00 00 00 00	stxdw [r10 - 24], r0
   12394:	bf a2 00 00 00 00 00 00	mov64 r2, r10
   12395:	07 02 00 00 58 ff ff ff	add64 r2, -168
   12396:	bf a3 00 00 00 00 00 00	mov64 r3, r10
   12397:	07 03 00 00 78 ff ff ff	add64 r3, -136
   12398:	bf a4 00 00 00 00 00 00	mov64 r4, r10
   12399:	07 04 00 00 e8 ff ff ff	add64 r4, -24
   12400:	bf 61 00 00 00 00 00 00	mov64 r1, r6
   12401:	85 10 00 00 d5 f9 ff ff	call -1579
   12402:	95 00 00 00 00 00 00 00	exit
   12403:	61 13 00 00 00 00 00 00	ldxw r3, [r1 + 0]
   12404:	65 03 08 00 0a 00 00 00	jsgt r3, 10, +8 <custom_panic+0xcf70>
   12405:	65 03 0f 00 04 00 00 00	jsgt r3, 4, +15 <custom_panic+0xcfb0>
   12406:	65 03 1e 00 01 00 00 00	jsgt r3, 1, +30 <custom_panic+0xd030>
   12407:	15 03 39 00 00 00 00 00	jeq r3, 0, +57 <custom_panic+0xd110>
   12408:	bf 21 00 00 00 00 00 00	mov64 r1, r2
   12409:	18 02 00 00 d1 62 02 00 00 00 00 00 00 00 00 00	lddw r2, 156369
   12411:	b7 03 00 00 0f 00 00 00	mov64 r3, 15
   12412:	05 00 87 00 00 00 00 00	ja +135 <custom_panic+0xd3a8>
   12413:	65 03 0f 00 0f 00 00 00	jsgt r3, 15, +15 <custom_panic+0xcff0>
   12414:	65 03 1d 00 0c 00 00 00	jsgt r3, 12, +29 <custom_panic+0xd068>
   12415:	15 03 3d 00 0b 00 00 00	jeq r3, 11, +61 <custom_panic+0xd170>
   12416:	bf 21 00 00 00 00 00 00	mov64 r1, r2
   12417:	18 02 00 00 b0 63 02 00 00 00 00 00 00 00 00 00	lddw r2, 156592
   12419:	b7 03 00 00 15 00 00 00	mov64 r3, 21
   12420:	05 00 7f 00 00 00 00 00	ja +127 <custom_panic+0xd3a8>
   12421:	65 03 1d 00 07 00 00 00	jsgt r3, 7, +29 <custom_panic+0xd0a0>
   12422:	15 03 3b 00 05 00 00 00	jeq r3, 5, +59 <custom_panic+0xd198>
   12423:	15 03 3f 00 06 00 00 00	jeq r3, 6, +63 <custom_panic+0xd1c0>
   12424:	bf 21 00 00 00 00 00 00	mov64 r1, r2
   12425:	18 02 00 00 3e 63 02 00 00 00 00 00 00 00 00 00	lddw r2, 156478
   12427:	b7 03 00 00 18 00 00 00	mov64 r3, 24
   12428:	05 00 77 00 00 00 00 00	ja +119 <custom_panic+0xd3a8>
   12429:	65 03 1c 00 12 00 00 00	jsgt r3, 18, +28 <custom_panic+0xd0d8>
   12430:	15 03 3d 00 10 00 00 00	jeq r3, 16, +61 <custom_panic+0xd1e8>
   12431:	15 03 41 00 11 00 00 00	jeq r3, 17, +65 <custom_panic+0xd210>
   12432:	bf 21 00 00 00 00 00 00	mov64 r1, r2
   12433:	18 02 00 00 1c 64 02 00 00 00 00 00 00 00 00 00	lddw r2, 156700
   12435:	b7 03 00 00 22 00 00 00	mov64 r3, 34
   12436:	05 00 6f 00 00 00 00 00	ja +111 <custom_panic+0xd3a8>
   12437:	15 03 40 00 02 00 00 00	jeq r3, 2, +64 <custom_panic+0xd238>
   12438:	15 03 44 00 03 00 00 00	jeq r3, 3, +68 <custom_panic+0xd260>
   12439:	bf 21 00 00 00 00 00 00	mov64 r1, r2
   12440:	18 02 00 00 08 63 02 00 00 00 00 00 00 00 00 00	lddw r2, 156424
   12442:	b7 03 00 00 13 00 00 00	mov64 r3, 19
   12443:	05 00 68 00 00 00 00 00	ja +104 <custom_panic+0xd3a8>
   12444:	15 03 43 00 0d 00 00 00	jeq r3, 13, +67 <custom_panic+0xd288>
   12445:	15 03 47 00 0e 00 00 00	jeq r3, 14, +71 <custom_panic+0xd2b0>
   12446:	bf 21 00 00 00 00 00 00	mov64 r1, r2
   12447:	18 02 00 00 eb 63 02 00 00 00 00 00 00 00 00 00	lddw r2, 156651
   12449:	b7 03 00 00 14 00 00 00	mov64 r3, 20
   12450:	05 00 61 00 00 00 00 00	ja +97 <custom_panic+0xd3a8>
   12451:	15 03 4d 00 08 00 00 00	jeq r3, 8, +77 <custom_panic+0xd310>
   12452:	15 03 51 00 09 00 00 00	jeq r3, 9, +81 <custom_panic+0xd338>
   12453:	bf 21 00 00 00 00 00 00	mov64 r1, r2
   12454:	18 02 00 00 83 63 02 00 00 00 00 00 00 00 00 00	lddw r2, 156547
   12456:	b7 03 00 00 14 00 00 00	mov64 r3, 20
   12457:	05 00 5a 00 00 00 00 00	ja +90 <custom_panic+0xd3a8>
   12458:	15 03 50 00 13 00 00 00	jeq r3, 19, +80 <custom_panic+0xd360>
   12459:	15 03 54 00 14 00 00 00	jeq r3, 20, +84 <custom_panic+0xd388>
   12460:	bf 21 00 00 00 00 00 00	mov64 r1, r2
   12461:	18 02 00 00 5f 64 02 00 00 00 00 00 00 00 00 00	lddw r2, 156767
   12463:	b7 03 00 00 26 00 00 00	mov64 r3, 38
   12464:	05 00 53 00 00 00 00 00	ja +83 <custom_panic+0xd3a8>
   12465:	07 01 00 00 04 00 00 00	add64 r1, 4
   12466:	7b 1a f8 ff 00 00 00 00	stxdw [r10 - 8], r1
   12467:	bf a4 00 00 00 00 00 00	mov64 r4, r10
   12468:	07 04 00 00 f8 ff ff ff	add64 r4, -8
   12469:	bf 21 00 00 00 00 00 00	mov64 r1, r2
   12470:	18 02 00 00 aa 63 02 00 00 00 00 00 00 00 00 00	lddw r2, 156586
   12472:	b7 03 00 00 06 00 00 00	mov64 r3, 6
   12473:	18 05 00 00 e0 84 02 00 00 00 00 00 00 00 00 00	lddw r5, 165088
   12475:	85 10 00 00 fb 0d 00 00	call 3579
   12476:	05 00 48 00 00 00 00 00	ja +72 <custom_panic+0xd3b0>
   12477:	bf 21 00 00 00 00 00 00	mov64 r1, r2
   12478:	18 02 00 00 97 63 02 00 00 00 00 00 00 00 00 00	lddw r2, 156567
   12480:	b7 03 00 00 13 00 00 00	mov64 r3, 19
   12481:	05 00 42 00 00 00 00 00	ja +66 <custom_panic+0xd3a8>
   12482:	bf 21 00 00 00 00 00 00	mov64 r1, r2
   12483:	18 02 00 00 1b 63 02 00 00 00 00 00 00 00 00 00	lddw r2, 156443
   12485:	b7 03 00 00 11 00 00 00	mov64 r3, 17
   12486:	05 00 3d 00 00 00 00 00	ja +61 <custom_panic+0xd3a8>
   12487:	bf 21 00 00 00 00 00 00	mov64 r1, r2
   12488:	18 02 00 00 2c 63 02 00 00 00 00 00 00 00 00 00	lddw r2, 156460
   12490:	b7 03 00 00 12 00 00 00	mov64 r3, 18
   12491:	05 00 38 00 00 00 00 00	ja +56 <custom_panic+0xd3a8>
   12492:	bf 21 00 00 00 00 00 00	mov64 r1, r2
   12493:	18 02 00 00 ff 63 02 00 00 00 00 00 00 00 00 00	lddw r2, 156671
   12495:	b7 03 00 00 11 00 00 00	mov64 r3, 17
   12496:	05 00 33 00 00 00 00 00	ja +51 <custom_panic+0xd3a8>
   12497:	bf 21 00 00 00 00 00 00	mov64 r1, r2
   12498:	18 02 00 00 10 64 02 00 00 00 00 00 00 00 00 00	lddw r2, 156688
   12500:	b7 03 00 00 0c 00 00 00	mov64 r3, 12
   12501:	05 00 2e 00 00 00 00 00	ja +46 <custom_panic+0xd3a8>
   12502:	bf 21 00 00 00 00 00 00	mov64 r1, r2
   12503:	18 02 00 00 e0 62 02 00 00 00 00 00 00 00 00 00	lddw r2, 156384
   12505:	b7 03 00 00 16 00 00 00	mov64 r3, 22
   12506:	05 00 29 00 00 00 00 00	ja +41 <custom_panic+0xd3a8>
   12507:	bf 21 00 00 00 00 00 00	mov64 r1, r2
   12508:	18 02 00 00 f6 62 02 00 00 00 00 00 00 00 00 00	lddw r2, 156406
   12510:	b7 03 00 00 12 00 00 00	mov64 r3, 18
   12511:	05 00 24 00 00 00 00 00	ja +36 <custom_panic+0xd3a8>
   12512:	bf 21 00 00 00 00 00 00	mov64 r1, r2
   12513:	18 02 00 00 c5 63 02 00 00 00 00 00 00 00 00 00	lddw r2, 156613
   12515:	b7 03 00 00 0c 00 00 00	mov64 r3, 12
   12516:	05 00 1f 00 00 00 00 00	ja +31 <custom_panic+0xd3a8>
   12517:	07 01 00 00 08 00 00 00	add64 r1, 8
   12518:	7b 1a f8 ff 00 00 00 00	stxdw [r10 - 8], r1
   12519:	bf a4 00 00 00 00 00 00	mov64 r4, r10
   12520:	07 04 00 00 f8 ff ff ff	add64 r4, -8
   12521:	bf 21 00 00 00 00 00 00	mov64 r1, r2
   12522:	18 02 00 00 df 63 02 00 00 00 00 00 00 00 00 00	lddw r2, 156639
   12524:	b7 03 00 00 0c 00 00 00	mov64 r3, 12
   12525:	18 05 00 00 00 85 02 00 00 00 00 00 00 00 00 00	lddw r5, 165120
   12527:	85 10 00 00 c7 0d 00 00	call 3527
   12528:	05 00 14 00 00 00 00 00	ja +20 <custom_panic+0xd3b0>
   12529:	bf 21 00 00 00 00 00 00	mov64 r1, r2
   12530:	18 02 00 00 56 63 02 00 00 00 00 00 00 00 00 00	lddw r2, 156502
   12532:	b7 03 00 00 19 00 00 00	mov64 r3, 25
   12533:	05 00 0e 00 00 00 00 00	ja +14 <custom_panic+0xd3a8>
   12534:	bf 21 00 00 00 00 00 00	mov64 r1, r2
   12535:	18 02 00 00 6f 63 02 00 00 00 00 00 00 00 00 00	lddw r2, 156527
   12537:	b7 03 00 00 14 00 00 00	mov64 r3, 20
   12538:	05 00 09 00 00 00 00 00	ja +9 <custom_panic+0xd3a8>
   12539:	bf 21 00 00 00 00 00 00	mov64 r1, r2
   12540:	18 02 00 00 d1 63 02 00 00 00 00 00 00 00 00 00	lddw r2, 156625
   12542:	b7 03 00 00 0e 00 00 00	mov64 r3, 14
   12543:	05 00 04 00 00 00 00 00	ja +4 <custom_panic+0xd3a8>
   12544:	bf 21 00 00 00 00 00 00	mov64 r1, r2
   12545:	18 02 00 00 3e 64 02 00 00 00 00 00 00 00 00 00	lddw r2, 156734
   12547:	b7 03 00 00 21 00 00 00	mov64 r3, 33
   12548:	85 10 00 00 43 0d 00 00	call 3395
   12549:	95 00 00 00 00 00 00 00	exit
   12550:	bf 23 00 00 00 00 00 00	mov64 r3, r2
   12551:	61 12 00 00 00 00 00 00	ldxw r2, [r1 + 0]
   12552:	65 02 08 00 0a 00 00 00	jsgt r2, 10, +8 <custom_panic+0xd410>
   12553:	65 02 0f 00 04 00 00 00	jsgt r2, 4, +15 <custom_panic+0xd450>
   12554:	65 02 1e 00 01 00 00 00	jsgt r2, 1, +30 <custom_panic+0xd4d0>
   12555:	15 02 39 00 00 00 00 00	jeq r2, 0, +57 <custom_panic+0xd5b0>
   12556:	b7 01 00 00 01 00 00 00	mov64 r1, 1
   12557:	7b 1a d0 ff 00 00 00 00	stxdw [r10 - 48], r1
   12558:	18 01 00 00 a0 85 02 00 00 00 00 00 00 00 00 00	lddw r1, 165280
   12560:	05 00 a5 00 00 00 00 00	ja +165 <custom_panic+0xd938>
   12561:	65 02 0f 00 0f 00 00 00	jsgt r2, 15, +15 <custom_panic+0xd490>
   12562:	65 02 1d 00 0c 00 00 00	jsgt r2, 12, +29 <custom_panic+0xd508>
   12563:	15 02 53 00 0b 00 00 00	jeq r2, 11, +83 <custom_panic+0xd6c0>
   12564:	b7 01 00 00 01 00 00 00	mov64 r1, 1
   12565:	7b 1a d0 ff 00 00 00 00	stxdw [r10 - 48], r1
   12566:	18 01 00 00 20 85 02 00 00 00 00 00 00 00 00 00	lddw r1, 165152
   12568:	05 00 9d 00 00 00 00 00	ja +157 <custom_panic+0xd938>
   12569:	65 02 1d 00 07 00 00 00	jsgt r2, 7, +29 <custom_panic+0xd540>
   12570:	15 02 51 00 05 00 00 00	jeq r2, 5, +81 <custom_panic+0xd6e8>
   12571:	15 02 55 00 06 00 00 00	jeq r2, 6, +85 <custom_panic+0xd710>
   12572:	b7 01 00 00 01 00 00 00	mov64 r1, 1
   12573:	7b 1a d0 ff 00 00 00 00	stxdw [r10 - 48], r1
   12574:	18 01 00 00 00 86 02 00 00 00 00 00 00 00 00 00	lddw r1, 165376
   12576:	05 00 95 00 00 00 00 00	ja +149 <custom_panic+0xd938>
   12577:	65 02 1c 00 12 00 00 00	jsgt r2, 18, +28 <custom_panic+0xd578>
   12578:	15 02 53 00 10 00 00 00	jeq r2, 16, +83 <custom_panic+0xd738>
   12579:	15 02 57 00 11 00 00 00	jeq r2, 17, +87 <custom_panic+0xd760>
   12580:	b7 01 00 00 01 00 00 00	mov64 r1, 1
   12581:	7b 1a d0 ff 00 00 00 00	stxdw [r10 - 48], r1
   12582:	18 01 00 00 70 85 02 00 00 00 00 00 00 00 00 00	lddw r1, 165232
   12584:	05 00 8d 00 00 00 00 00	ja +141 <custom_panic+0xd938>
   12585:	15 02 56 00 02 00 00 00	jeq r2, 2, +86 <custom_panic+0xd788>
   12586:	15 02 5a 00 03 00 00 00	jeq r2, 3, +90 <custom_panic+0xd7b0>
   12587:	b7 01 00 00 01 00 00 00	mov64 r1, 1
   12588:	7b 1a d0 ff 00 00 00 00	stxdw [r10 - 48], r1
   12589:	18 01 00 00 d0 85 02 00 00 00 00 00 00 00 00 00	lddw r1, 165328
   12591:	05 00 86 00 00 00 00 00	ja +134 <custom_panic+0xd938>
   12592:	15 02 59 00 0d 00 00 00	jeq r2, 13, +89 <custom_panic+0xd7d8>
   12593:	15 02 5d 00 0e 00 00 00	jeq r2, 14, +93 <custom_panic+0xd800>
   12594:	b7 01 00 00 01 00 00 00	mov64 r1, 1
   12595:	7b 1a d0 ff 00 00 00 00	stxdw [r10 - 48], r1
   12596:	18 01 00 00 40 85 02 00 00 00 00 00 00 00 00 00	lddw r1, 165184
   12598:	05 00 7f 00 00 00 00 00	ja +127 <custom_panic+0xd938>
   12599:	15 02 6b 00 08 00 00 00	jeq r2, 8, +107 <custom_panic+0xd8a0>
   12600:	15 02 6f 00 09 00 00 00	jeq r2, 9, +111 <custom_panic+0xd8c8>
   12601:	b7 01 00 00 01 00 00 00	mov64 r1, 1
   12602:	7b 1a d0 ff 00 00 00 00	stxdw [r10 - 48], r1
   12603:	18 01 00 00 30 86 02 00 00 00 00 00 00 00 00 00	lddw r1, 165424
   12605:	05 00 78 00 00 00 00 00	ja +120 <custom_panic+0xd938>
   12606:	15 02 6e 00 13 00 00 00	jeq r2, 19, +110 <custom_panic+0xd8f0>
   12607:	15 02 72 00 14 00 00 00	jeq r2, 20, +114 <custom_panic+0xd918>
   12608:	b7 01 00 00 01 00 00 00	mov64 r1, 1
   12609:	7b 1a d0 ff 00 00 00 00	stxdw [r10 - 48], r1
   12610:	18 01 00 00 80 85 02 00 00 00 00 00 00 00 00 00	lddw r1, 165248
   12612:	05 00 71 00 00 00 00 00	ja +113 <custom_panic+0xd938>
   12613:	07 01 00 00 04 00 00 00	add64 r1, 4
   12614:	7b 1a 80 ff 00 00 00 00	stxdw [r10 - 128], r1
   12615:	18 01 00 00 68 34 01 00 00 00 00 00 00 00 00 00	lddw r1, 78952
   12617:	7b 1a c0 ff 00 00 00 00	stxdw [r10 - 64], r1
   12618:	bf a1 00 00 00 00 00 00	mov64 r1, r10
   12619:	07 01 00 00 80 ff ff ff	add64 r1, -128
   12620:	7b 1a b8 ff 00 00 00 00	stxdw [r10 - 72], r1
   12621:	bf a1 00 00 00 00 00 00	mov64 r1, r10
   12622:	07 01 00 00 c8 ff ff ff	add64 r1, -56
   12623:	7b 1a a8 ff 00 00 00 00	stxdw [r10 - 88], r1
   12624:	18 01 00 00 90 85 02 00 00 00 00 00 00 00 00 00	lddw r1, 165264
   12626:	7b 1a 88 ff 00 00 00 00	stxdw [r10 - 120], r1
   12627:	b7 01 00 00 01 00 00 00	mov64 r1, 1
   12628:	7b 1a b0 ff 00 00 00 00	stxdw [r10 - 80], r1
   12629:	7b 1a 90 ff 00 00 00 00	stxdw [r10 - 112], r1
   12630:	7b 1a a0 ff 00 00 00 00	stxdw [r10 - 96], r1
   12631:	bf a1 00 00 00 00 00 00	mov64 r1, r10
   12632:	07 01 00 00 b8 ff ff ff	add64 r1, -72
   12633:	7b 1a 98 ff 00 00 00 00	stxdw [r10 - 104], r1
   12634:	b7 01 00 00 03 00 00 00	mov64 r1, 3
   12635:	73 1a f8 ff 00 00 00 00	stxb [r10 - 8], r1
   12636:	18 01 00 00 20 00 00 00 00 00 00 00 04 00 00 00	lddw r1, 17179869216
   12638:	7b 1a f0 ff 00 00 00 00	stxdw [r10 - 16], r1
   12639:	b7 01 00 00 00 00 00 00	mov64 r1, 0
   12640:	7b 1a e8 ff 00 00 00 00	stxdw [r10 - 24], r1
   12641:	b7 01 00 00 02 00 00 00	mov64 r1, 2
   12642:	7b 1a d8 ff 00 00 00 00	stxdw [r10 - 40], r1
   12643:	7b 1a c8 ff 00 00 00 00	stxdw [r10 - 56], r1
   12644:	bf a2 00 00 00 00 00 00	mov64 r2, r10
   12645:	07 02 00 00 88 ff ff ff	add64 r2, -120
   12646:	05 00 58 00 00 00 00 00	ja +88 <custom_panic+0xd980>
   12647:	b7 01 00 00 01 00 00 00	mov64 r1, 1
   12648:	7b 1a d0 ff 00 00 00 00	stxdw [r10 - 48], r1
   12649:	18 01 00 00 40 86 02 00 00 00 00 00 00 00 00 00	lddw r1, 165440
   12651:	05 00 4a 00 00 00 00 00	ja +74 <custom_panic+0xd938>
   12652:	b7 01 00 00 01 00 00 00	mov64 r1, 1
   12653:	7b 1a d0 ff 00 00 00 00	stxdw [r10 - 48], r1
   12654:	18 01 00 00 e0 85 02 00 00 00 00 00 00 00 00 00	lddw r1, 165344
   12656:	05 00 45 00 00 00 00 00	ja +69 <custom_panic+0xd938>
   12657:	b7 01 00 00 01 00 00 00	mov64 r1, 1
   12658:	7b 1a d0 ff 00 00 00 00	stxdw [r10 - 48], r1
   12659:	18 01 00 00 f0 85 02 00 00 00 00 00 00 00 00 00	lddw r1, 165360
   12661:	05 00 40 00 00 00 00 00	ja +64 <custom_panic+0xd938>
   12662:	b7 01 00 00 01 00 00 00	mov64 r1, 1
   12663:	7b 1a d0 ff 00 00 00 00	stxdw [r10 - 48], r1
   12664:	18 01 00 00 50 85 02 00 00 00 00 00 00 00 00 00	lddw r1, 165200
   12666:	05 00 3b 00 00 00 00 00	ja +59 <custom_panic+0xd938>
   12667:	b7 01 00 00 01 00 00 00	mov64 r1, 1
   12668:	7b 1a d0 ff 00 00 00 00	stxdw [r10 - 48], r1
   12669:	18 01 00 00 60 85 02 00 00 00 00 00 00 00 00 00	lddw r1, 165216
   12671:	05 00 36 00 00 00 00 00	ja +54 <custom_panic+0xd938>
   12672:	b7 01 00 00 01 00 00 00	mov64 r1, 1
   12673:	7b 1a d0 ff 00 00 00 00	stxdw [r10 - 48], r1
   12674:	18 01 00 00 b0 85 02 00 00 00 00 00 00 00 00 00	lddw r1, 165296
   12676:	05 00 31 00 00 00 00 00	ja +49 <custom_panic+0xd938>
   12677:	b7 01 00 00 01 00 00 00	mov64 r1, 1
   12678:	7b 1a d0 ff 00 00 00 00	stxdw [r10 - 48], r1
   12679:	18 01 00 00 c0 85 02 00 00 00 00 00 00 00 00 00	lddw r1, 165312
   12681:	05 00 2c 00 00 00 00 00	ja +44 <custom_panic+0xd938>
   12682:	b7 01 00 00 01 00 00 00	mov64 r1, 1
   12683:	7b 1a d0 ff 00 00 00 00	stxdw [r10 - 48], r1
   12684:	18 01 00 00 30 85 02 00 00 00 00 00 00 00 00 00	lddw r1, 165168
   12686:	05 00 27 00 00 00 00 00	ja +39 <custom_panic+0xd938>
   12687:	b7 02 00 00 00 00 00 00	mov64 r2, 0
   12688:	7b 2a e8 ff 00 00 00 00	stxdw [r10 - 24], r2
   12689:	18 02 00 00 50 86 02 00 00 00 00 00 00 00 00 00	lddw r2, 165456
   12691:	7b 2a c8 ff 00 00 00 00	stxdw [r10 - 56], r2
   12692:	b7 02 00 00 01 00 00 00	mov64 r2, 1
   12693:	7b 2a d0 ff 00 00 00 00	stxdw [r10 - 48], r2
   12694:	7b 2a e0 ff 00 00 00 00	stxdw [r10 - 32], r2
   12695:	bf a2 00 00 00 00 00 00	mov64 r2, r10
   12696:	07 02 00 00 88 ff ff ff	add64 r2, -120
   12697:	7b 2a d8 ff 00 00 00 00	stxdw [r10 - 40], r2
   12698:	18 02 00 00 38 34 01 00 00 00 00 00 00 00 00 00	lddw r2, 78904
   12700:	7b 2a 90 ff 00 00 00 00	stxdw [r10 - 112], r2
   12701:	bf a2 00 00 00 00 00 00	mov64 r2, r10
   12702:	07 02 00 00 b8 ff ff ff	add64 r2, -72
   12703:	7b 2a 88 ff 00 00 00 00	stxdw [r10 - 120], r2
   12704:	07 01 00 00 08 00 00 00	add64 r1, 8
   12705:	7b 1a b8 ff 00 00 00 00	stxdw [r10 - 72], r1
   12706:	05 00 1a 00 00 00 00 00	ja +26 <custom_panic+0xd970>
   12707:	b7 01 00 00 01 00 00 00	mov64 r1, 1
   12708:	7b 1a d0 ff 00 00 00 00	stxdw [r10 - 48], r1
   12709:	18 01 00 00 10 86 02 00 00 00 00 00 00 00 00 00	lddw r1, 165392
   12711:	05 00 0e 00 00 00 00 00	ja +14 <custom_panic+0xd938>
   12712:	b7 01 00 00 01 00 00 00	mov64 r1, 1
   12713:	7b 1a d0 ff 00 00 00 00	stxdw [r10 - 48], r1
   12714:	18 01 00 00 20 86 02 00 00 00 00 00 00 00 00 00	lddw r1, 165408
   12716:	05 00 09 00 00 00 00 00	ja +9 <custom_panic+0xd938>
   12717:	b7 01 00 00 01 00 00 00	mov64 r1, 1
   12718:	7b 1a d0 ff 00 00 00 00	stxdw [r10 - 48], r1
   12719:	18 01 00 00 60 86 02 00 00 00 00 00 00 00 00 00	lddw r1, 165472
   12721:	05 00 04 00 00 00 00 00	ja +4 <custom_panic+0xd938>
   12722:	b7 01 00 00 01 00 00 00	mov64 r1, 1
   12723:	7b 1a d0 ff 00 00 00 00	stxdw [r10 - 48], r1
   12724:	18 01 00 00 70 86 02 00 00 00 00 00 00 00 00 00	lddw r1, 165488
   12726:	7b 1a c8 ff 00 00 00 00	stxdw [r10 - 56], r1
   12727:	b7 01 00 00 00 00 00 00	mov64 r1, 0
   12728:	7b 1a e8 ff 00 00 00 00	stxdw [r10 - 24], r1
   12729:	7b 1a e0 ff 00 00 00 00	stxdw [r10 - 32], r1
   12730:	18 01 00 00 c8 65 02 00 00 00 00 00 00 00 00 00	lddw r1, 157128
   12732:	7b 1a d8 ff 00 00 00 00	stxdw [r10 - 40], r1
   12733:	bf a2 00 00 00 00 00 00	mov64 r2, r10
   12734:	07 02 00 00 c8 ff ff ff	add64 r2, -56
   12735:	bf 31 00 00 00 00 00 00	mov64 r1, r3
   12736:	85 10 00 00 8d 0c 00 00	call 3213
   12737:	95 00 00 00 00 00 00 00	exit
   12738:	b7 02 00 00 00 00 00 00	mov64 r2, 0
   12739:	7b 21 18 00 00 00 00 00	stxdw [r1 + 24], r2
   12740:	7b 21 10 00 00 00 00 00	stxdw [r1 + 16], r2
   12741:	7b 21 08 00 00 00 00 00	stxdw [r1 + 8], r2
   12742:	7b 21 00 00 00 00 00 00	stxdw [r1 + 0], r2
   12743:	95 00 00 00 00 00 00 00	exit
   12744:	bf 16 00 00 00 00 00 00	mov64 r6, r1
   12745:	b7 01 00 00 32 00 00 00	mov64 r1, 50
   12746:	73 1a f8 ff 00 00 00 00	stxb [r10 - 8], r1
   12747:	18 01 00 00 00 00 00 00 00 00 00 00 00 00 00 40	lddw r1, 4611686018427387904
   12749:	7b 1a f0 ff 00 00 00 00	stxdw [r10 - 16], r1
   12750:	b7 01 00 00 98 0d 00 00	mov64 r1, 3480
   12751:	7b 1a e8 ff 00 00 00 00	stxdw [r10 - 24], r1
   12752:	bf a1 00 00 00 00 00 00	mov64 r1, r10
   12753:	07 01 00 00 e8 ff ff ff	add64 r1, -24
   12754:	85 10 00 00 ff ff ff ff	call -1
   12755:	55 00 09 00 00 00 00 00	jne r0, 0, +9 <custom_panic+0xda70>
   12756:	79 a1 f8 ff 00 00 00 00	ldxdw r1, [r10 - 8]
   12757:	7b 16 18 00 00 00 00 00	stxdw [r6 + 24], r1
   12758:	79 a1 f0 ff 00 00 00 00	ldxdw r1, [r10 - 16]
   12759:	7b 16 10 00 00 00 00 00	stxdw [r6 + 16], r1
   12760:	79 a1 e8 ff 00 00 00 00	ldxdw r1, [r10 - 24]
   12761:	7b 16 08 00 00 00 00 00	stxdw [r6 + 8], r1
   12762:	b7 01 00 00 16 00 00 00	mov64 r1, 22
   12763:	63 16 00 00 00 00 00 00	stxw [r6 + 0], r1
   12764:	05 00 03 00 00 00 00 00	ja +3 <custom_panic+0xda88>
   12765:	bf 61 00 00 00 00 00 00	mov64 r1, r6
   12766:	bf 02 00 00 00 00 00 00	mov64 r2, r0
   12767:	85 10 00 00 85 fd ff ff	call -635
   12768:	95 00 00 00 00 00 00 00	exit
   12769:	bf 23 00 00 00 00 00 00	mov64 r3, r2
   12770:	79 11 00 00 00 00 00 00	ldxdw r1, [r1 + 0]
   12771:	79 12 10 00 00 00 00 00	ldxdw r2, [r1 + 16]
   12772:	79 11 00 00 00 00 00 00	ldxdw r1, [r1 + 0]
   12773:	85 10 00 00 0b 0d 00 00	call 3339
   12774:	95 00 00 00 00 00 00 00	exit
   12775:	79 11 00 00 00 00 00 00	ldxdw r1, [r1 + 0]
   12776:	85 10 00 00 0c 15 00 00	call 5388
   12777:	95 00 00 00 00 00 00 00	exit
   12778:	79 11 00 00 00 00 00 00	ldxdw r1, [r1 + 0]
   12779:	85 10 00 00 4d 02 00 00	call 589
   12780:	95 00 00 00 00 00 00 00	exit
   12781:	bf 26 00 00 00 00 00 00	mov64 r6, r2
   12782:	79 17 00 00 00 00 00 00	ldxdw r7, [r1 + 0]
   12783:	bf 61 00 00 00 00 00 00	mov64 r1, r6
   12784:	85 10 00 00 69 0c 00 00	call 3177
   12785:	55 00 08 00 00 00 00 00	jne r0, 0, +8 <custom_panic+0xdb58>
   12786:	bf 61 00 00 00 00 00 00	mov64 r1, r6
   12787:	85 10 00 00 6a 0c 00 00	call 3178
   12788:	55 00 01 00 00 00 00 00	jne r0, 0, +1 <custom_panic+0xdb38>
   12789:	05 00 08 00 00 00 00 00	ja +8 <custom_panic+0xdb78>
   12790:	bf 71 00 00 00 00 00 00	mov64 r1, r7
   12791:	bf 62 00 00 00 00 00 00	mov64 r2, r6
   12792:	85 10 00 00 44 13 00 00	call 4932
   12793:	05 00 07 00 00 00 00 00	ja +7 <custom_panic+0xdb90>
   12794:	bf 71 00 00 00 00 00 00	mov64 r1, r7
   12795:	bf 62 00 00 00 00 00 00	mov64 r2, r6
   12796:	85 10 00 00 12 13 00 00	call 4882
   12797:	05 00 03 00 00 00 00 00	ja +3 <custom_panic+0xdb90>
   12798:	bf 71 00 00 00 00 00 00	mov64 r1, r7
   12799:	bf 62 00 00 00 00 00 00	mov64 r2, r6
   12800:	85 10 00 00 84 14 00 00	call 5252
   12801:	95 00 00 00 00 00 00 00	exit
   12802:	bf 26 00 00 00 00 00 00	mov64 r6, r2
   12803:	79 17 00 00 00 00 00 00	ldxdw r7, [r1 + 0]
   12804:	bf 61 00 00 00 00 00 00	mov64 r1, r6
   12805:	85 10 00 00 54 0c 00 00	call 3156
   12806:	55 00 08 00 00 00 00 00	jne r0, 0, +8 <custom_panic+0xdc00>
   12807:	bf 61 00 00 00 00 00 00	mov64 r1, r6
   12808:	85 10 00 00 55 0c 00 00	call 3157
   12809:	55 00 01 00 00 00 00 00	jne r0, 0, +1 <custom_panic+0xdbe0>
   12810:	05 00 08 00 00 00 00 00	ja +8 <custom_panic+0xdc20>
   12811:	bf 71 00 00 00 00 00 00	mov64 r1, r7
   12812:	bf 62 00 00 00 00 00 00	mov64 r2, r6
   12813:	85 10 00 00 72 12 00 00	call 4722
   12814:	05 00 07 00 00 00 00 00	ja +7 <custom_panic+0xdc38>
   12815:	bf 71 00 00 00 00 00 00	mov64 r1, r7
   12816:	bf 62 00 00 00 00 00 00	mov64 r2, r6
   12817:	85 10 00 00 3f 12 00 00	call 4671
   12818:	05 00 03 00 00 00 00 00	ja +3 <custom_panic+0xdc38>
   12819:	bf 71 00 00 00 00 00 00	mov64 r1, r7
   12820:	bf 62 00 00 00 00 00 00	mov64 r2, r6
   12821:	85 10 00 00 58 14 00 00	call 5208
   12822:	95 00 00 00 00 00 00 00	exit
   12823:	95 00 00 00 00 00 00 00	exit
   12824:	95 00 00 00 00 00 00 00	exit
   12825:	71 13 00 00 00 00 00 00	ldxb r3, [r1 + 0]
   12826:	65 03 0d 00 03 00 00 00	jsgt r3, 3, +13 <custom_panic+0xdcc8>
   12827:	65 03 20 00 01 00 00 00	jsgt r3, 1, +32 <custom_panic+0xdd68>
   12828:	15 03 25 00 00 00 00 00	jeq r3, 0, +37 <custom_panic+0xdd98>
   12829:	07 01 00 00 08 00 00 00	add64 r1, 8
   12830:	7b 1a f8 ff 00 00 00 00	stxdw [r10 - 8], r1
   12831:	bf a4 00 00 00 00 00 00	mov64 r4, r10
   12832:	07 04 00 00 f8 ff ff ff	add64 r4, -8
   12833:	bf 21 00 00 00 00 00 00	mov64 r1, r2
   12834:	18 02 00 00 93 68 02 00 00 00 00 00 00 00 00 00	lddw r2, 157843
   12836:	b7 03 00 00 13 00 00 00	mov64 r3, 19
   12837:	18 05 00 00 a0 86 02 00 00 00 00 00 00 00 00 00	lddw r5, 165536
   12839:	05 00 45 00 00 00 00 00	ja +69 <custom_panic+0xdef0>
   12840:	65 03 06 00 05 00 00 00	jsgt r3, 5, +6 <custom_panic+0xdd00>
   12841:	15 03 39 00 04 00 00 00	jeq r3, 4, +57 <custom_panic+0xdea0>
   12842:	bf 21 00 00 00 00 00 00	mov64 r1, r2
   12843:	18 02 00 00 de 68 02 00 00 00 00 00 00 00 00 00	lddw r2, 157918
   12845:	b7 03 00 00 1a 00 00 00	mov64 r3, 26
   12846:	05 00 27 00 00 00 00 00	ja +39 <custom_panic+0xde38>
   12847:	15 03 1d 00 06 00 00 00	jeq r3, 6, +29 <custom_panic+0xddf0>
   12848:	15 03 21 00 07 00 00 00	jeq r3, 7, +33 <custom_panic+0xde18>
   12849:	07 01 00 00 08 00 00 00	add64 r1, 8
   12850:	7b 1a f8 ff 00 00 00 00	stxdw [r10 - 8], r1
   12851:	bf a4 00 00 00 00 00 00	mov64 r4, r10
   12852:	07 04 00 00 f8 ff ff ff	add64 r4, -8
   12853:	bf 21 00 00 00 00 00 00	mov64 r1, r2
   12854:	18 02 00 00 17 69 02 00 00 00 00 00 00 00 00 00	lddw r2, 157975
   12856:	b7 03 00 00 06 00 00 00	mov64 r3, 6
   12857:	18 05 00 00 00 87 02 00 00 00 00 00 00 00 00 00	lddw r5, 165632
   12859:	05 00 31 00 00 00 00 00	ja +49 <custom_panic+0xdef0>
   12860:	15 03 1b 00 02 00 00 00	jeq r3, 2, +27 <custom_panic+0xde48>
   12861:	bf 21 00 00 00 00 00 00	mov64 r1, r2
   12862:	18 02 00 00 b9 68 02 00 00 00 00 00 00 00 00 00	lddw r2, 157881
   12864:	b7 03 00 00 13 00 00 00	mov64 r3, 19
   12865:	05 00 14 00 00 00 00 00	ja +20 <custom_panic+0xde38>
   12866:	07 01 00 00 08 00 00 00	add64 r1, 8
   12867:	7b 1a f8 ff 00 00 00 00	stxdw [r10 - 8], r1
   12868:	bf a4 00 00 00 00 00 00	mov64 r4, r10
   12869:	07 04 00 00 f8 ff ff ff	add64 r4, -8
   12870:	bf 21 00 00 00 00 00 00	mov64 r1, r2
   12871:	18 02 00 00 91 68 02 00 00 00 00 00 00 00 00 00	lddw r2, 157841
   12873:	b7 03 00 00 02 00 00 00	mov64 r3, 2
   12874:	18 05 00 00 80 86 02 00 00 00 00 00 00 00 00 00	lddw r5, 165504
   12876:	05 00 20 00 00 00 00 00	ja +32 <custom_panic+0xdef0>
   12877:	bf 21 00 00 00 00 00 00	mov64 r1, r2
   12878:	18 02 00 00 f8 68 02 00 00 00 00 00 00 00 00 00	lddw r2, 157944
   12880:	b7 03 00 00 09 00 00 00	mov64 r3, 9
   12881:	05 00 04 00 00 00 00 00	ja +4 <custom_panic+0xde38>
   12882:	bf 21 00 00 00 00 00 00	mov64 r1, r2
   12883:	18 02 00 00 01 69 02 00 00 00 00 00 00 00 00 00	lddw r2, 157953
   12885:	b7 03 00 00 16 00 00 00	mov64 r3, 22
   12886:	85 10 00 00 f1 0b 00 00	call 3057
   12887:	05 00 16 00 00 00 00 00	ja +22 <custom_panic+0xdef8>
   12888:	07 01 00 00 01 00 00 00	add64 r1, 1
   12889:	7b 1a f8 ff 00 00 00 00	stxdw [r10 - 8], r1
   12890:	bf a4 00 00 00 00 00 00	mov64 r4, r10
   12891:	07 04 00 00 f8 ff ff ff	add64 r4, -8
   12892:	bf 21 00 00 00 00 00 00	mov64 r1, r2
   12893:	18 02 00 00 a6 68 02 00 00 00 00 00 00 00 00 00	lddw r2, 157862
   12895:	b7 03 00 00 13 00 00 00	mov64 r3, 19
   12896:	18 05 00 00 c0 86 02 00 00 00 00 00 00 00 00 00	lddw r5, 165568
   12898:	05 00 0a 00 00 00 00 00	ja +10 <custom_panic+0xdef0>
   12899:	07 01 00 00 08 00 00 00	add64 r1, 8
   12900:	7b 1a f8 ff 00 00 00 00	stxdw [r10 - 8], r1
   12901:	bf a4 00 00 00 00 00 00	mov64 r4, r10
   12902:	07 04 00 00 f8 ff ff ff	add64 r4, -8
   12903:	bf 21 00 00 00 00 00 00	mov64 r1, r2
   12904:	18 02 00 00 cc 68 02 00 00 00 00 00 00 00 00 00	lddw r2, 157900
   12906:	b7 03 00 00 12 00 00 00	mov64 r3, 18
   12907:	18 05 00 00 e0 86 02 00 00 00 00 00 00 00 00 00	lddw r5, 165600
   12909:	85 10 00 00 49 0c 00 00	call 3145
   12910:	95 00 00 00 00 00 00 00	exit
   12911:	67 01 00 00 20 00 00 00	lsh64 r1, 32
   12912:	77 01 00 00 20 00 00 00	rsh64 r1, 32
   12913:	65 01 09 00 13 00 00 00	jsgt r1, 19, +9 <custom_panic+0xdf60>
   12914:	65 01 17 00 09 00 00 00	jsgt r1, 9, +23 <custom_panic+0xdfd8>
   12915:	65 01 24 00 04 00 00 00	jsgt r1, 4, +36 <custom_panic+0xe048>
   12916:	65 01 35 00 01 00 00 00	jsgt r1, 1, +53 <custom_panic+0xe0d8>
   12917:	b7 00 00 00 00 00 00 00	mov64 r0, 0
   12918:	15 01 94 00 00 00 00 00	jeq r1, 0, +148 <custom_panic+0xe3e0>
   12919:	15 01 01 00 01 00 00 00	jeq r1, 1, +1 <custom_panic+0xdf50>
   12920:	05 00 91 00 00 00 00 00	ja +145 <custom_panic+0xe3d8>
   12921:	b7 00 00 00 01 00 00 00	mov64 r0, 1
   12922:	05 00 90 00 00 00 00 00	ja +144 <custom_panic+0xe3e0>
   12923:	65 01 07 00 1d 00 00 00	jsgt r1, 29, +7 <custom_panic+0xdfa0>
   12924:	65 01 21 00 18 00 00 00	jsgt r1, 24, +33 <custom_panic+0xe078>
   12925:	65 01 32 00 15 00 00 00	jsgt r1, 21, +50 <custom_panic+0xe108>
   12926:	15 01 5b 00 14 00 00 00	jeq r1, 20, +91 <custom_panic+0xe258>
   12927:	15 01 01 00 15 00 00 00	jeq r1, 21, +1 <custom_panic+0xdf90>
   12928:	05 00 89 00 00 00 00 00	ja +137 <custom_panic+0xe3d8>
   12929:	b7 00 00 00 15 00 00 00	mov64 r0, 21
   12930:	05 00 88 00 00 00 00 00	ja +136 <custom_panic+0xe3e0>
   12931:	65 01 0d 00 22 00 00 00	jsgt r1, 34, +13 <custom_panic+0xe010>
   12932:	65 01 31 00 1f 00 00 00	jsgt r1, 31, +49 <custom_panic+0xe138>
   12933:	15 01 56 00 1e 00 00 00	jeq r1, 30, +86 <custom_panic+0xe268>
   12934:	15 01 01 00 1f 00 00 00	jeq r1, 31, +1 <custom_panic+0xdfc8>
   12935:	05 00 82 00 00 00 00 00	ja +130 <custom_panic+0xe3d8>
   12936:	b7 00 00 00 1f 00 00 00	mov64 r0, 31
   12937:	05 00 81 00 00 00 00 00	ja +129 <custom_panic+0xe3e0>
   12938:	65 01 19 00 0e 00 00 00	jsgt r1, 14, +25 <custom_panic+0xe0a8>
   12939:	65 01 30 00 0b 00 00 00	jsgt r1, 11, +48 <custom_panic+0xe168>
   12940:	15 01 51 00 0a 00 00 00	jeq r1, 10, +81 <custom_panic+0xe278>
   12941:	15 01 01 00 0b 00 00 00	jeq r1, 11, +1 <custom_panic+0xe000>
   12942:	05 00 7b 00 00 00 00 00	ja +123 <custom_panic+0xe3d8>
   12943:	b7 00 00 00 0b 00 00 00	mov64 r0, 11
   12944:	05 00 7a 00 00 00 00 00	ja +122 <custom_panic+0xe3e0>
   12945:	65 01 30 00 25 00 00 00	jsgt r1, 37, +48 <custom_panic+0xe198>
   12946:	15 01 4d 00 23 00 00 00	jeq r1, 35, +77 <custom_panic+0xe288>
   12947:	15 01 4e 00 24 00 00 00	jeq r1, 36, +78 <custom_panic+0xe298>
   12948:	15 01 01 00 25 00 00 00	jeq r1, 37, +1 <custom_panic+0xe038>
   12949:	05 00 74 00 00 00 00 00	ja +116 <custom_panic+0xe3d8>
   12950:	b7 00 00 00 25 00 00 00	mov64 r0, 37
   12951:	05 00 73 00 00 00 00 00	ja +115 <custom_panic+0xe3e0>
   12952:	65 01 2f 00 06 00 00 00	jsgt r1, 6, +47 <custom_panic+0xe1c8>
   12953:	15 01 4a 00 05 00 00 00	jeq r1, 5, +74 <custom_panic+0xe2a8>
   12954:	15 01 01 00 06 00 00 00	jeq r1, 6, +1 <custom_panic+0xe068>
   12955:	05 00 6e 00 00 00 00 00	ja +110 <custom_panic+0xe3d8>
   12956:	b7 00 00 00 06 00 00 00	mov64 r0, 6
   12957:	05 00 6d 00 00 00 00 00	ja +109 <custom_panic+0xe3e0>
   12958:	65 01 2f 00 1a 00 00 00	jsgt r1, 26, +47 <custom_panic+0xe1f8>
   12959:	15 01 46 00 19 00 00 00	jeq r1, 25, +70 <custom_panic+0xe2b8>
   12960:	15 01 01 00 1a 00 00 00	jeq r1, 26, +1 <custom_panic+0xe098>
   12961:	05 00 68 00 00 00 00 00	ja +104 <custom_panic+0xe3d8>
   12962:	b7 00 00 00 1a 00 00 00	mov64 r0, 26
   12963:	05 00 67 00 00 00 00 00	ja +103 <custom_panic+0xe3e0>
   12964:	65 01 2f 00 10 00 00 00	jsgt r1, 16, +47 <custom_panic+0xe228>
   12965:	15 01 42 00 0f 00 00 00	jeq r1, 15, +66 <custom_panic+0xe2c8>
   12966:	15 01 01 00 10 00 00 00	jeq r1, 16, +1 <custom_panic+0xe0c8>
   12967:	05 00 62 00 00 00 00 00	ja +98 <custom_panic+0xe3d8>
   12968:	b7 00 00 00 10 00 00 00	mov64 r0, 16
   12969:	05 00 61 00 00 00 00 00	ja +97 <custom_panic+0xe3e0>
   12970:	15 01 3f 00 02 00 00 00	jeq r1, 2, +63 <custom_panic+0xe2d8>
   12971:	15 01 40 00 03 00 00 00	jeq r1, 3, +64 <custom_panic+0xe2e8>
   12972:	15 01 01 00 04 00 00 00	jeq r1, 4, +1 <custom_panic+0xe0f8>
   12973:	05 00 5c 00 00 00 00 00	ja +92 <custom_panic+0xe3d8>
   12974:	b7 00 00 00 04 00 00 00	mov64 r0, 4
   12975:	05 00 5b 00 00 00 00 00	ja +91 <custom_panic+0xe3e0>
   12976:	15 01 3d 00 16 00 00 00	jeq r1, 22, +61 <custom_panic+0xe2f8>
   12977:	15 01 3e 00 17 00 00 00	jeq r1, 23, +62 <custom_panic+0xe308>
   12978:	15 01 01 00 18 00 00 00	jeq r1, 24, +1 <custom_panic+0xe128>
   12979:	05 00 56 00 00 00 00 00	ja +86 <custom_panic+0xe3d8>
   12980:	b7 00 00 00 18 00 00 00	mov64 r0, 24
   12981:	05 00 55 00 00 00 00 00	ja +85 <custom_panic+0xe3e0>
   12982:	15 01 3b 00 20 00 00 00	jeq r1, 32, +59 <custom_panic+0xe318>
   12983:	15 01 3c 00 21 00 00 00	jeq r1, 33, +60 <custom_panic+0xe328>
   12984:	15 01 01 00 22 00 00 00	jeq r1, 34, +1 <custom_panic+0xe158>
   12985:	05 00 50 00 00 00 00 00	ja +80 <custom_panic+0xe3d8>
   12986:	b7 00 00 00 22 00 00 00	mov64 r0, 34
   12987:	05 00 4f 00 00 00 00 00	ja +79 <custom_panic+0xe3e0>
   12988:	15 01 39 00 0c 00 00 00	jeq r1, 12, +57 <custom_panic+0xe338>
   12989:	15 01 3a 00 0d 00 00 00	jeq r1, 13, +58 <custom_panic+0xe348>
   12990:	15 01 01 00 0e 00 00 00	jeq r1, 14, +1 <custom_panic+0xe188>
   12991:	05 00 4a 00 00 00 00 00	ja +74 <custom_panic+0xe3d8>
   12992:	b7 00 00 00 0e 00 00 00	mov64 r0, 14
   12993:	05 00 49 00 00 00 00 00	ja +73 <custom_panic+0xe3e0>
   12994:	15 01 37 00 26 00 00 00	jeq r1, 38, +55 <custom_panic+0xe358>
   12995:	15 01 38 00 27 00 00 00	jeq r1, 39, +56 <custom_panic+0xe368>
   12996:	15 01 01 00 28 00 00 00	jeq r1, 40, +1 <custom_panic+0xe1b8>
   12997:	05 00 44 00 00 00 00 00	ja +68 <custom_panic+0xe3d8>
   12998:	b7 00 00 00 28 00 00 00	mov64 r0, 40
   12999:	05 00 43 00 00 00 00 00	ja +67 <custom_panic+0xe3e0>
   13000:	15 01 35 00 07 00 00 00	jeq r1, 7, +53 <custom_panic+0xe378>
   13001:	15 01 36 00 08 00 00 00	jeq r1, 8, +54 <custom_panic+0xe388>
   13002:	15 01 01 00 09 00 00 00	jeq r1, 9, +1 <custom_panic+0xe1e8>
   13003:	05 00 3e 00 00 00 00 00	ja +62 <custom_panic+0xe3d8>
   13004:	b7 00 00 00 09 00 00 00	mov64 r0, 9
   13005:	05 00 3d 00 00 00 00 00	ja +61 <custom_panic+0xe3e0>
   13006:	15 01 33 00 1b 00 00 00	jeq r1, 27, +51 <custom_panic+0xe398>
   13007:	15 01 34 00 1c 00 00 00	jeq r1, 28, +52 <custom_panic+0xe3a8>
   13008:	15 01 01 00 1d 00 00 00	jeq r1, 29, +1 <custom_panic+0xe218>
   13009:	05 00 38 00 00 00 00 00	ja +56 <custom_panic+0xe3d8>
   13010:	b7 00 00 00 1d 00 00 00	mov64 r0, 29
   13011:	05 00 37 00 00 00 00 00	ja +55 <custom_panic+0xe3e0>
   13012:	15 01 31 00 11 00 00 00	jeq r1, 17, +49 <custom_panic+0xe3b8>
   13013:	15 01 32 00 12 00 00 00	jeq r1, 18, +50 <custom_panic+0xe3c8>
   13014:	15 01 01 00 13 00 00 00	jeq r1, 19, +1 <custom_panic+0xe248>
   13015:	05 00 32 00 00 00 00 00	ja +50 <custom_panic+0xe3d8>
   13016:	b7 00 00 00 13 00 00 00	mov64 r0, 19
   13017:	05 00 31 00 00 00 00 00	ja +49 <custom_panic+0xe3e0>
   13018:	b7 00 00 00 14 00 00 00	mov64 r0, 20
   13019:	05 00 2f 00 00 00 00 00	ja +47 <custom_panic+0xe3e0>
   13020:	b7 00 00 00 1e 00 00 00	mov64 r0, 30
   13021:	05 00 2d 00 00 00 00 00	ja +45 <custom_panic+0xe3e0>
   13022:	b7 00 00 00 0a 00 00 00	mov64 r0, 10
   13023:	05 00 2b 00 00 00 00 00	ja +43 <custom_panic+0xe3e0>
   13024:	b7 00 00 00 23 00 00 00	mov64 r0, 35
   13025:	05 00 29 00 00 00 00 00	ja +41 <custom_panic+0xe3e0>
   13026:	b7 00 00 00 24 00 00 00	mov64 r0, 36
   13027:	05 00 27 00 00 00 00 00	ja +39 <custom_panic+0xe3e0>
   13028:	b7 00 00 00 05 00 00 00	mov64 r0, 5
   13029:	05 00 25 00 00 00 00 00	ja +37 <custom_panic+0xe3e0>
   13030:	b7 00 00 00 19 00 00 00	mov64 r0, 25
   13031:	05 00 23 00 00 00 00 00	ja +35 <custom_panic+0xe3e0>
   13032:	b7 00 00 00 0f 00 00 00	mov64 r0, 15
   13033:	05 00 21 00 00 00 00 00	ja +33 <custom_panic+0xe3e0>
   13034:	b7 00 00 00 02 00 00 00	mov64 r0, 2
   13035:	05 00 1f 00 00 00 00 00	ja +31 <custom_panic+0xe3e0>
   13036:	b7 00 00 00 03 00 00 00	mov64 r0, 3
   13037:	05 00 1d 00 00 00 00 00	ja +29 <custom_panic+0xe3e0>
   13038:	b7 00 00 00 16 00 00 00	mov64 r0, 22
   13039:	05 00 1b 00 00 00 00 00	ja +27 <custom_panic+0xe3e0>
   13040:	b7 00 00 00 17 00 00 00	mov64 r0, 23
   13041:	05 00 19 00 00 00 00 00	ja +25 <custom_panic+0xe3e0>
   13042:	b7 00 00 00 20 00 00 00	mov64 r0, 32
   13043:	05 00 17 00 00 00 00 00	ja +23 <custom_panic+0xe3e0>
   13044:	b7 00 00 00 21 00 00 00	mov64 r0, 33
   13045:	05 00 15 00 00 00 00 00	ja +21 <custom_panic+0xe3e0>
   13046:	b7 00 00 00 0c 00 00 00	mov64 r0, 12
   13047:	05 00 13 00 00 00 00 00	ja +19 <custom_panic+0xe3e0>
   13048:	b7 00 00 00 0d 00 00 00	mov64 r0, 13
   13049:	05 00 11 00 00 00 00 00	ja +17 <custom_panic+0xe3e0>
   13050:	b7 00 00 00 26 00 00 00	mov64 r0, 38
   13051:	05 00 0f 00 00 00 00 00	ja +15 <custom_panic+0xe3e0>
   13052:	b7 00 00 00 27 00 00 00	mov64 r0, 39
   13053:	05 00 0d 00 00 00 00 00	ja +13 <custom_panic+0xe3e0>
   13054:	b7 00 00 00 07 00 00 00	mov64 r0, 7
   13055:	05 00 0b 00 00 00 00 00	ja +11 <custom_panic+0xe3e0>
   13056:	b7 00 00 00 08 00 00 00	mov64 r0, 8
   13057:	05 00 09 00 00 00 00 00	ja +9 <custom_panic+0xe3e0>
   13058:	b7 00 00 00 1b 00 00 00	mov64 r0, 27
   13059:	05 00 07 00 00 00 00 00	ja +7 <custom_panic+0xe3e0>
   13060:	b7 00 00 00 1c 00 00 00	mov64 r0, 28
   13061:	05 00 05 00 00 00 00 00	ja +5 <custom_panic+0xe3e0>
   13062:	b7 00 00 00 11 00 00 00	mov64 r0, 17
   13063:	05 00 03 00 00 00 00 00	ja +3 <custom_panic+0xe3e0>
   13064:	b7 00 00 00 12 00 00 00	mov64 r0, 18
   13065:	05 00 01 00 00 00 00 00	ja +1 <custom_panic+0xe3e0>
   13066:	b7 00 00 00 29 00 00 00	mov64 r0, 41
   13067:	95 00 00 00 00 00 00 00	exit
   13068:	79 12 08 00 00 00 00 00	ldxdw r2, [r1 + 8]
   13069:	15 02 03 00 00 00 00 00	jeq r2, 0, +3 <custom_panic+0xe410>
   13070:	79 11 00 00 00 00 00 00	ldxdw r1, [r1 + 0]
   13071:	b7 03 00 00 01 00 00 00	mov64 r3, 1
   13072:	85 10 00 00 5c e3 ff ff	call -7332
   13073:	95 00 00 00 00 00 00 00	exit
   13074:	b7 02 00 00 00 00 00 00	mov64 r2, 0
   13075:	7b 21 00 00 00 00 00 00	stxdw [r1 + 0], r2
   13076:	95 00 00 00 00 00 00 00	exit
   13077:	95 00 00 00 00 00 00 00	exit
   13078:	18 02 00 00 b4 06 af 33 00 00 00 00 02 af d4 57	lddw r2, 6328875800354293428
   13080:	7b 21 08 00 00 00 00 00	stxdw [r1 + 8], r2
   13081:	18 02 00 00 eb eb 4a 38 00 00 00 00 ff c6 fa 26	lddw r2, 2808776117082319851
   13083:	7b 21 00 00 00 00 00 00	stxdw [r1 + 0], r2
   13084:	95 00 00 00 00 00 00 00	exit
   13085:	bf 16 00 00 00 00 00 00	mov64 r6, r1
   13086:	bf 68 00 00 00 00 00 00	mov64 r8, r6
   13087:	57 08 00 00 03 00 00 00	and64 r8, 3
   13088:	65 08 03 00 01 00 00 00	jsgt r8, 1, +3 <custom_panic+0xe4a8>
   13089:	15 08 07 00 00 00 00 00	jeq r8, 0, +7 <custom_panic+0xe4d0>
   13090:	71 60 0f 00 00 00 00 00	ldxb r0, [r6 + 15]
   13091:	05 00 0b 00 00 00 00 00	ja +11 <custom_panic+0xe500>
   13092:	15 08 06 00 02 00 00 00	jeq r8, 2, +6 <custom_panic+0xe4e0>
   13093:	bf 61 00 00 00 00 00 00	mov64 r1, r6
   13094:	77 01 00 00 20 00 00 00	rsh64 r1, 32
   13095:	85 10 00 00 47 ff ff ff	call -185
   13096:	05 00 05 00 00 00 00 00	ja +5 <custom_panic+0xe4f8>
   13097:	71 60 10 00 00 00 00 00	ldxb r0, [r6 + 16]
   13098:	05 00 04 00 00 00 00 00	ja +4 <custom_panic+0xe500>
   13099:	bf 61 00 00 00 00 00 00	mov64 r1, r6
   13100:	77 01 00 00 20 00 00 00	rsh64 r1, 32
   13101:	85 10 00 00 90 02 00 00	call 656
   13102:	57 00 00 00 ff 00 00 00	and64 r0, 255
   13103:	57 00 00 00 ff 00 00 00	and64 r0, 255
   13104:	bf 67 00 00 00 00 00 00	mov64 r7, r6
   13105:	55 00 3a 00 25 00 00 00	jne r0, 37, +58 <custom_panic+0xe6e8>
   13106:	b7 01 00 00 1a 00 00 00	mov64 r1, 26
   13107:	b7 02 00 00 01 00 00 00	mov64 r2, 1
   13108:	85 10 00 00 1e e3 ff ff	call -7394
   13109:	bf 07 00 00 00 00 00 00	mov64 r7, r0
   13110:	55 07 04 00 00 00 00 00	jne r7, 0, +4 <custom_panic+0xe560>
   13111:	b7 01 00 00 01 00 00 00	mov64 r1, 1
   13112:	b7 02 00 00 1a 00 00 00	mov64 r2, 26
   13113:	85 10 00 00 56 03 00 00	call 854
   13114:	85 10 00 00 ff ff ff ff	call -1
   13115:	b7 01 00 00 75 74 00 00	mov64 r1, 29813
   13116:	6b 17 18 00 00 00 00 00	stxh [r7 + 24], r1
   13117:	18 01 00 00 68 20 6f 66 00 00 00 00 20 69 6e 70	lddw r1, 8101528367564529768
   13119:	7b 17 10 00 00 00 00 00	stxdw [r7 + 16], r1
   13120:	18 01 00 00 65 64 20 6c 00 00 00 00 65 6e 67 74	lddw r1, 8387794212885652581
   13122:	7b 17 08 00 00 00 00 00	stxdw [r7 + 8], r1
   13123:	18 01 00 00 55 6e 65 78 00 00 00 00 70 65 63 74	lddw r1, 8386658464824651349
   13125:	7b 17 00 00 00 00 00 00	stxdw [r7 + 0], r1
   13126:	b7 01 00 00 18 00 00 00	mov64 r1, 24
   13127:	b7 02 00 00 08 00 00 00	mov64 r2, 8
   13128:	85 10 00 00 0a e3 ff ff	call -7414
   13129:	55 00 04 00 00 00 00 00	jne r0, 0, +4 <custom_panic+0xe5f8>
   13130:	b7 01 00 00 08 00 00 00	mov64 r1, 8
   13131:	b7 02 00 00 18 00 00 00	mov64 r2, 24
   13132:	85 10 00 00 43 03 00 00	call 835
   13133:	85 10 00 00 ff ff ff ff	call -1
   13134:	b7 01 00 00 1a 00 00 00	mov64 r1, 26
   13135:	7b 10 10 00 00 00 00 00	stxdw [r0 + 16], r1
   13136:	7b 10 08 00 00 00 00 00	stxdw [r0 + 8], r1
   13137:	7b 70 00 00 00 00 00 00	stxdw [r0 + 0], r7
   13138:	b7 01 00 00 14 00 00 00	mov64 r1, 20
   13139:	bf 02 00 00 00 00 00 00	mov64 r2, r0
   13140:	18 03 00 00 40 87 02 00 00 00 00 00 00 00 00 00	lddw r3, 165696
   13142:	85 10 00 00 e4 00 00 00	call 228
   13143:	bf 07 00 00 00 00 00 00	mov64 r7, r0
   13144:	bf 81 00 00 00 00 00 00	mov64 r1, r8
   13145:	07 01 00 00 fe ff ff ff	add64 r1, -2
   13146:	b7 02 00 00 02 00 00 00	mov64 r2, 2
   13147:	2d 12 10 00 00 00 00 00	jgt r2, r1, +16 <custom_panic+0xe6e8>
   13148:	15 08 0f 00 00 00 00 00	jeq r8, 0, +15 <custom_panic+0xe6e8>
   13149:	79 68 ff ff 00 00 00 00	ldxdw r8, [r6 - 1]
   13150:	79 69 07 00 00 00 00 00	ldxdw r9, [r6 + 7]
   13151:	79 92 00 00 00 00 00 00	ldxdw r2, [r9 + 0]
   13152:	bf 81 00 00 00 00 00 00	mov64 r1, r8
   13153:	8d 00 00 00 02 00 00 00	callx r2
   13154:	07 06 00 00 ff ff ff ff	add64 r6, -1
   13155:	79 92 08 00 00 00 00 00	ldxdw r2, [r9 + 8]
   13156:	15 02 03 00 00 00 00 00	jeq r2, 0, +3 <custom_panic+0xe6c8>
   13157:	79 93 10 00 00 00 00 00	ldxdw r3, [r9 + 16]
   13158:	bf 81 00 00 00 00 00 00	mov64 r1, r8
   13159:	85 10 00 00 05 e3 ff ff	call -7419
   13160:	bf 61 00 00 00 00 00 00	mov64 r1, r6
   13161:	b7 02 00 00 18 00 00 00	mov64 r2, 24
   13162:	b7 03 00 00 08 00 00 00	mov64 r3, 8
   13163:	85 10 00 00 01 e3 ff ff	call -7423
   13164:	bf 70 00 00 00 00 00 00	mov64 r0, r7
   13165:	95 00 00 00 00 00 00 00	exit
   13166:	79 13 00 00 00 00 00 00	ldxdw r3, [r1 + 0]
   13167:	79 31 00 00 00 00 00 00	ldxdw r1, [r3 + 0]
   13168:	79 33 08 00 00 00 00 00	ldxdw r3, [r3 + 8]
   13169:	79 33 18 00 00 00 00 00	ldxdw r3, [r3 + 24]
   13170:	8d 00 00 00 03 00 00 00	callx r3
   13171:	95 00 00 00 00 00 00 00	exit
   13172:	bf 23 00 00 00 00 00 00	mov64 r3, r2
   13173:	79 12 08 00 00 00 00 00	ldxdw r2, [r1 + 8]
   13174:	79 11 00 00 00 00 00 00	ldxdw r1, [r1 + 0]
   13175:	85 10 00 00 79 0b 00 00	call 2937
   13176:	95 00 00 00 00 00 00 00	exit
   13177:	bf 26 00 00 00 00 00 00	mov64 r6, r2
   13178:	bf 17 00 00 00 00 00 00	mov64 r7, r1
   13179:	bf 61 00 00 00 00 00 00	mov64 r1, r6
   13180:	85 10 00 00 dd 0a 00 00	call 2781
   13181:	55 00 08 00 00 00 00 00	jne r0, 0, +8 <custom_panic+0xe7b8>
   13182:	bf 61 00 00 00 00 00 00	mov64 r1, r6
   13183:	85 10 00 00 de 0a 00 00	call 2782
   13184:	55 00 01 00 00 00 00 00	jne r0, 0, +1 <custom_panic+0xe798>
   13185:	05 00 08 00 00 00 00 00	ja +8 <custom_panic+0xe7d8>
   13186:	bf 71 00 00 00 00 00 00	mov64 r1, r7
   13187:	bf 62 00 00 00 00 00 00	mov64 r2, r6
   13188:	85 10 00 00 5a 11 00 00	call 4442
   13189:	05 00 07 00 00 00 00 00	ja +7 <custom_panic+0xe7f0>
   13190:	bf 71 00 00 00 00 00 00	mov64 r1, r7
   13191:	bf 62 00 00 00 00 00 00	mov64 r2, r6
   13192:	85 10 00 00 26 11 00 00	call 4390
   13193:	05 00 03 00 00 00 00 00	ja +3 <custom_panic+0xe7f0>
   13194:	bf 71 00 00 00 00 00 00	mov64 r1, r7
   13195:	bf 62 00 00 00 00 00 00	mov64 r2, r6
   13196:	85 10 00 00 e6 12 00 00	call 4838
   13197:	95 00 00 00 00 00 00 00	exit
   13198:	95 00 00 00 00 00 00 00	exit
   13199:	95 00 00 00 00 00 00 00	exit
   13200:	95 00 00 00 00 00 00 00	exit
   13201:	79 12 08 00 00 00 00 00	ldxdw r2, [r1 + 8]
   13202:	15 02 03 00 00 00 00 00	jeq r2, 0, +3 <custom_panic+0xe838>
   13203:	79 11 00 00 00 00 00 00	ldxdw r1, [r1 + 0]
   13204:	b7 03 00 00 01 00 00 00	mov64 r3, 1
   13205:	85 10 00 00 d7 e2 ff ff	call -7465
   13206:	95 00 00 00 00 00 00 00	exit
   13207:	bf 23 00 00 00 00 00 00	mov64 r3, r2
   13208:	79 12 10 00 00 00 00 00	ldxdw r2, [r1 + 16]
   13209:	79 11 00 00 00 00 00 00	ldxdw r1, [r1 + 0]
   13210:	85 10 00 00 56 0b 00 00	call 2902
   13211:	95 00 00 00 00 00 00 00	exit
   13212:	67 01 00 00 20 00 00 00	lsh64 r1, 32
   13213:	77 01 00 00 20 00 00 00	rsh64 r1, 32
   13214:	65 01 09 00 13 00 00 00	jsgt r1, 19, +9 <custom_panic+0xe8c8>
   13215:	65 01 17 00 09 00 00 00	jsgt r1, 9, +23 <custom_panic+0xe940>
   13216:	65 01 24 00 04 00 00 00	jsgt r1, 4, +36 <custom_panic+0xe9b0>
   13217:	65 01 35 00 01 00 00 00	jsgt r1, 1, +53 <custom_panic+0xea40>
   13218:	b7 00 00 00 00 00 00 00	mov64 r0, 0
   13219:	15 01 94 00 00 00 00 00	jeq r1, 0, +148 <custom_panic+0xed48>
   13220:	15 01 01 00 01 00 00 00	jeq r1, 1, +1 <custom_panic+0xe8b8>
   13221:	05 00 91 00 00 00 00 00	ja +145 <custom_panic+0xed40>
   13222:	b7 00 00 00 01 00 00 00	mov64 r0, 1
   13223:	05 00 90 00 00 00 00 00	ja +144 <custom_panic+0xed48>
   13224:	65 01 07 00 1d 00 00 00	jsgt r1, 29, +7 <custom_panic+0xe908>
   13225:	65 01 21 00 18 00 00 00	jsgt r1, 24, +33 <custom_panic+0xe9e0>
   13226:	65 01 32 00 15 00 00 00	jsgt r1, 21, +50 <custom_panic+0xea70>
   13227:	15 01 5b 00 14 00 00 00	jeq r1, 20, +91 <custom_panic+0xebc0>
   13228:	15 01 01 00 15 00 00 00	jeq r1, 21, +1 <custom_panic+0xe8f8>
   13229:	05 00 89 00 00 00 00 00	ja +137 <custom_panic+0xed40>
   13230:	b7 00 00 00 15 00 00 00	mov64 r0, 21
   13231:	05 00 88 00 00 00 00 00	ja +136 <custom_panic+0xed48>
   13232:	65 01 0d 00 22 00 00 00	jsgt r1, 34, +13 <custom_panic+0xe978>
   13233:	65 01 31 00 1f 00 00 00	jsgt r1, 31, +49 <custom_panic+0xeaa0>
   13234:	15 01 56 00 1e 00 00 00	jeq r1, 30, +86 <custom_panic+0xebd0>
   13235:	15 01 01 00 1f 00 00 00	jeq r1, 31, +1 <custom_panic+0xe930>
   13236:	05 00 82 00 00 00 00 00	ja +130 <custom_panic+0xed40>
   13237:	b7 00 00 00 1f 00 00 00	mov64 r0, 31
   13238:	05 00 81 00 00 00 00 00	ja +129 <custom_panic+0xed48>
   13239:	65 01 19 00 0e 00 00 00	jsgt r1, 14, +25 <custom_panic+0xea10>
   13240:	65 01 30 00 0b 00 00 00	jsgt r1, 11, +48 <custom_panic+0xead0>
   13241:	15 01 51 00 0a 00 00 00	jeq r1, 10, +81 <custom_panic+0xebe0>
   13242:	15 01 01 00 0b 00 00 00	jeq r1, 11, +1 <custom_panic+0xe968>
   13243:	05 00 7b 00 00 00 00 00	ja +123 <custom_panic+0xed40>
   13244:	b7 00 00 00 0b 00 00 00	mov64 r0, 11
   13245:	05 00 7a 00 00 00 00 00	ja +122 <custom_panic+0xed48>
   13246:	65 01 30 00 25 00 00 00	jsgt r1, 37, +48 <custom_panic+0xeb00>
   13247:	15 01 4d 00 23 00 00 00	jeq r1, 35, +77 <custom_panic+0xebf0>
   13248:	15 01 4e 00 24 00 00 00	jeq r1, 36, +78 <custom_panic+0xec00>
   13249:	15 01 01 00 25 00 00 00	jeq r1, 37, +1 <custom_panic+0xe9a0>
   13250:	05 00 74 00 00 00 00 00	ja +116 <custom_panic+0xed40>
   13251:	b7 00 00 00 25 00 00 00	mov64 r0, 37
   13252:	05 00 73 00 00 00 00 00	ja +115 <custom_panic+0xed48>
   13253:	65 01 2f 00 06 00 00 00	jsgt r1, 6, +47 <custom_panic+0xeb30>
   13254:	15 01 4a 00 05 00 00 00	jeq r1, 5, +74 <custom_panic+0xec10>
   13255:	15 01 01 00 06 00 00 00	jeq r1, 6, +1 <custom_panic+0xe9d0>
   13256:	05 00 6e 00 00 00 00 00	ja +110 <custom_panic+0xed40>
   13257:	b7 00 00 00 06 00 00 00	mov64 r0, 6
   13258:	05 00 6d 00 00 00 00 00	ja +109 <custom_panic+0xed48>
   13259:	65 01 2f 00 1a 00 00 00	jsgt r1, 26, +47 <custom_panic+0xeb60>
   13260:	15 01 46 00 19 00 00 00	jeq r1, 25, +70 <custom_panic+0xec20>
   13261:	15 01 01 00 1a 00 00 00	jeq r1, 26, +1 <custom_panic+0xea00>
   13262:	05 00 68 00 00 00 00 00	ja +104 <custom_panic+0xed40>
   13263:	b7 00 00 00 1a 00 00 00	mov64 r0, 26
   13264:	05 00 67 00 00 00 00 00	ja +103 <custom_panic+0xed48>
   13265:	65 01 2f 00 10 00 00 00	jsgt r1, 16, +47 <custom_panic+0xeb90>
   13266:	15 01 42 00 0f 00 00 00	jeq r1, 15, +66 <custom_panic+0xec30>
   13267:	15 01 01 00 10 00 00 00	jeq r1, 16, +1 <custom_panic+0xea30>
   13268:	05 00 62 00 00 00 00 00	ja +98 <custom_panic+0xed40>
   13269:	b7 00 00 00 10 00 00 00	mov64 r0, 16
   13270:	05 00 61 00 00 00 00 00	ja +97 <custom_panic+0xed48>
   13271:	15 01 3f 00 02 00 00 00	jeq r1, 2, +63 <custom_panic+0xec40>
   13272:	15 01 40 00 03 00 00 00	jeq r1, 3, +64 <custom_panic+0xec50>
   13273:	15 01 01 00 04 00 00 00	jeq r1, 4, +1 <custom_panic+0xea60>
   13274:	05 00 5c 00 00 00 00 00	ja +92 <custom_panic+0xed40>
   13275:	b7 00 00 00 04 00 00 00	mov64 r0, 4
   13276:	05 00 5b 00 00 00 00 00	ja +91 <custom_panic+0xed48>
   13277:	15 01 3d 00 16 00 00 00	jeq r1, 22, +61 <custom_panic+0xec60>
   13278:	15 01 3e 00 17 00 00 00	jeq r1, 23, +62 <custom_panic+0xec70>
   13279:	15 01 01 00 18 00 00 00	jeq r1, 24, +1 <custom_panic+0xea90>
   13280:	05 00 56 00 00 00 00 00	ja +86 <custom_panic+0xed40>
   13281:	b7 00 00 00 18 00 00 00	mov64 r0, 24
   13282:	05 00 55 00 00 00 00 00	ja +85 <custom_panic+0xed48>
   13283:	15 01 3b 00 20 00 00 00	jeq r1, 32, +59 <custom_panic+0xec80>
   13284:	15 01 3c 00 21 00 00 00	jeq r1, 33, +60 <custom_panic+0xec90>
   13285:	15 01 01 00 22 00 00 00	jeq r1, 34, +1 <custom_panic+0xeac0>
   13286:	05 00 50 00 00 00 00 00	ja +80 <custom_panic+0xed40>
   13287:	b7 00 00 00 22 00 00 00	mov64 r0, 34
   13288:	05 00 4f 00 00 00 00 00	ja +79 <custom_panic+0xed48>
   13289:	15 01 39 00 0c 00 00 00	jeq r1, 12, +57 <custom_panic+0xeca0>
   13290:	15 01 3a 00 0d 00 00 00	jeq r1, 13, +58 <custom_panic+0xecb0>
   13291:	15 01 01 00 0e 00 00 00	jeq r1, 14, +1 <custom_panic+0xeaf0>
   13292:	05 00 4a 00 00 00 00 00	ja +74 <custom_panic+0xed40>
   13293:	b7 00 00 00 0e 00 00 00	mov64 r0, 14
   13294:	05 00 49 00 00 00 00 00	ja +73 <custom_panic+0xed48>
   13295:	15 01 37 00 26 00 00 00	jeq r1, 38, +55 <custom_panic+0xecc0>
   13296:	15 01 38 00 27 00 00 00	jeq r1, 39, +56 <custom_panic+0xecd0>
   13297:	15 01 01 00 28 00 00 00	jeq r1, 40, +1 <custom_panic+0xeb20>
   13298:	05 00 44 00 00 00 00 00	ja +68 <custom_panic+0xed40>
   13299:	b7 00 00 00 28 00 00 00	mov64 r0, 40
   13300:	05 00 43 00 00 00 00 00	ja +67 <custom_panic+0xed48>
   13301:	15 01 35 00 07 00 00 00	jeq r1, 7, +53 <custom_panic+0xece0>
   13302:	15 01 36 00 08 00 00 00	jeq r1, 8, +54 <custom_panic+0xecf0>
   13303:	15 01 01 00 09 00 00 00	jeq r1, 9, +1 <custom_panic+0xeb50>
   13304:	05 00 3e 00 00 00 00 00	ja +62 <custom_panic+0xed40>
   13305:	b7 00 00 00 09 00 00 00	mov64 r0, 9
   13306:	05 00 3d 00 00 00 00 00	ja +61 <custom_panic+0xed48>
   13307:	15 01 33 00 1b 00 00 00	jeq r1, 27, +51 <custom_panic+0xed00>
   13308:	15 01 34 00 1c 00 00 00	jeq r1, 28, +52 <custom_panic+0xed10>
   13309:	15 01 01 00 1d 00 00 00	jeq r1, 29, +1 <custom_panic+0xeb80>
   13310:	05 00 38 00 00 00 00 00	ja +56 <custom_panic+0xed40>
   13311:	b7 00 00 00 1d 00 00 00	mov64 r0, 29
   13312:	05 00 37 00 00 00 00 00	ja +55 <custom_panic+0xed48>
   13313:	15 01 31 00 11 00 00 00	jeq r1, 17, +49 <custom_panic+0xed20>
   13314:	15 01 32 00 12 00 00 00	jeq r1, 18, +50 <custom_panic+0xed30>
   13315:	15 01 01 00 13 00 00 00	jeq r1, 19, +1 <custom_panic+0xebb0>
   13316:	05 00 32 00 00 00 00 00	ja +50 <custom_panic+0xed40>
   13317:	b7 00 00 00 13 00 00 00	mov64 r0, 19
   13318:	05 00 31 00 00 00 00 00	ja +49 <custom_panic+0xed48>
   13319:	b7 00 00 00 14 00 00 00	mov64 r0, 20
   13320:	05 00 2f 00 00 00 00 00	ja +47 <custom_panic+0xed48>
   13321:	b7 00 00 00 1e 00 00 00	mov64 r0, 30
   13322:	05 00 2d 00 00 00 00 00	ja +45 <custom_panic+0xed48>
   13323:	b7 00 00 00 0a 00 00 00	mov64 r0, 10
   13324:	05 00 2b 00 00 00 00 00	ja +43 <custom_panic+0xed48>
   13325:	b7 00 00 00 23 00 00 00	mov64 r0, 35
   13326:	05 00 29 00 00 00 00 00	ja +41 <custom_panic+0xed48>
   13327:	b7 00 00 00 24 00 00 00	mov64 r0, 36
   13328:	05 00 27 00 00 00 00 00	ja +39 <custom_panic+0xed48>
   13329:	b7 00 00 00 05 00 00 00	mov64 r0, 5
   13330:	05 00 25 00 00 00 00 00	ja +37 <custom_panic+0xed48>
   13331:	b7 00 00 00 19 00 00 00	mov64 r0, 25
   13332:	05 00 23 00 00 00 00 00	ja +35 <custom_panic+0xed48>
   13333:	b7 00 00 00 0f 00 00 00	mov64 r0, 15
   13334:	05 00 21 00 00 00 00 00	ja +33 <custom_panic+0xed48>
   13335:	b7 00 00 00 02 00 00 00	mov64 r0, 2
   13336:	05 00 1f 00 00 00 00 00	ja +31 <custom_panic+0xed48>
   13337:	b7 00 00 00 03 00 00 00	mov64 r0, 3
   13338:	05 00 1d 00 00 00 00 00	ja +29 <custom_panic+0xed48>
   13339:	b7 00 00 00 16 00 00 00	mov64 r0, 22
   13340:	05 00 1b 00 00 00 00 00	ja +27 <custom_panic+0xed48>
   13341:	b7 00 00 00 17 00 00 00	mov64 r0, 23
   13342:	05 00 19 00 00 00 00 00	ja +25 <custom_panic+0xed48>
   13343:	b7 00 00 00 20 00 00 00	mov64 r0, 32
   13344:	05 00 17 00 00 00 00 00	ja +23 <custom_panic+0xed48>
   13345:	b7 00 00 00 21 00 00 00	mov64 r0, 33
   13346:	05 00 15 00 00 00 00 00	ja +21 <custom_panic+0xed48>
   13347:	b7 00 00 00 0c 00 00 00	mov64 r0, 12
   13348:	05 00 13 00 00 00 00 00	ja +19 <custom_panic+0xed48>
   13349:	b7 00 00 00 0d 00 00 00	mov64 r0, 13
   13350:	05 00 11 00 00 00 00 00	ja +17 <custom_panic+0xed48>
   13351:	b7 00 00 00 26 00 00 00	mov64 r0, 38
   13352:	05 00 0f 00 00 00 00 00	ja +15 <custom_panic+0xed48>
   13353:	b7 00 00 00 27 00 00 00	mov64 r0, 39
   13354:	05 00 0d 00 00 00 00 00	ja +13 <custom_panic+0xed48>
   13355:	b7 00 00 00 07 00 00 00	mov64 r0, 7
   13356:	05 00 0b 00 00 00 00 00	ja +11 <custom_panic+0xed48>
   13357:	b7 00 00 00 08 00 00 00	mov64 r0, 8
   13358:	05 00 09 00 00 00 00 00	ja +9 <custom_panic+0xed48>
   13359:	b7 00 00 00 1b 00 00 00	mov64 r0, 27
   13360:	05 00 07 00 00 00 00 00	ja +7 <custom_panic+0xed48>
   13361:	b7 00 00 00 1c 00 00 00	mov64 r0, 28
   13362:	05 00 05 00 00 00 00 00	ja +5 <custom_panic+0xed48>
   13363:	b7 00 00 00 11 00 00 00	mov64 r0, 17
   13364:	05 00 03 00 00 00 00 00	ja +3 <custom_panic+0xed48>
   13365:	b7 00 00 00 12 00 00 00	mov64 r0, 18
   13366:	05 00 01 00 00 00 00 00	ja +1 <custom_panic+0xed48>
   13367:	b7 00 00 00 29 00 00 00	mov64 r0, 41
   13368:	95 00 00 00 00 00 00 00	exit
   13369:	85 10 00 00 11 00 00 00	call 17
   13370:	95 00 00 00 00 00 00 00	exit
   13371:	bf 37 00 00 00 00 00 00	mov64 r7, r3
   13372:	bf 26 00 00 00 00 00 00	mov64 r6, r2
   13373:	bf 18 00 00 00 00 00 00	mov64 r8, r1
   13374:	b7 01 00 00 18 00 00 00	mov64 r1, 24
   13375:	b7 02 00 00 08 00 00 00	mov64 r2, 8
   13376:	85 10 00 00 12 e2 ff ff	call -7662
   13377:	55 00 04 00 00 00 00 00	jne r0, 0, +4 <custom_panic+0xedb8>
   13378:	b7 01 00 00 08 00 00 00	mov64 r1, 8
   13379:	b7 02 00 00 18 00 00 00	mov64 r2, 24
   13380:	85 10 00 00 4b 02 00 00	call 587
   13381:	85 10 00 00 ff ff ff ff	call -1
   13382:	73 80 10 00 00 00 00 00	stxb [r0 + 16], r8
   13383:	7b 70 08 00 00 00 00 00	stxdw [r0 + 8], r7
   13384:	7b 60 00 00 00 00 00 00	stxdw [r0 + 0], r6
   13385:	07 00 00 00 01 00 00 00	add64 r0, 1
   13386:	95 00 00 00 00 00 00 00	exit
   13387:	bf 26 00 00 00 00 00 00	mov64 r6, r2
   13388:	79 17 00 00 00 00 00 00	ldxdw r7, [r1 + 0]
   13389:	bf 71 00 00 00 00 00 00	mov64 r1, r7
   13390:	57 01 00 00 03 00 00 00	and64 r1, 3
   13391:	65 01 1f 00 01 00 00 00	jsgt r1, 1, +31 <custom_panic+0xef00>
   13392:	15 01 35 00 00 00 00 00	jeq r1, 0, +53 <custom_panic+0xefb8>
   13393:	bf 71 00 00 00 00 00 00	mov64 r1, r7
   13394:	07 01 00 00 ff ff ff ff	add64 r1, -1
   13395:	7b 1a e8 ff 00 00 00 00	stxdw [r10 - 24], r1
   13396:	bf a1 00 00 00 00 00 00	mov64 r1, r10
   13397:	07 01 00 00 e8 ff ff ff	add64 r1, -24
   13398:	7b 1a 28 f0 00 00 00 00	stxdw [r10 - 4056], r1
   13399:	18 01 00 00 18 88 02 00 00 00 00 00 00 00 00 00	lddw r1, 165912
   13401:	7b 1a 30 f0 00 00 00 00	stxdw [r10 - 4048], r1
   13402:	b7 01 00 00 05 00 00 00	mov64 r1, 5
   13403:	7b 1a 20 f0 00 00 00 00	stxdw [r10 - 4064], r1
   13404:	18 01 00 00 5c 69 02 00 00 00 00 00 00 00 00 00	lddw r1, 158044
   13406:	7b 1a 18 f0 00 00 00 00	stxdw [r10 - 4072], r1
   13407:	18 01 00 00 b8 87 02 00 00 00 00 00 00 00 00 00	lddw r1, 165816
   13409:	7b 1a 10 f0 00 00 00 00	stxdw [r10 - 4080], r1
   13410:	07 07 00 00 0f 00 00 00	add64 r7, 15
   13411:	7b 7a 08 f0 00 00 00 00	stxdw [r10 - 4088], r7
   13412:	b7 01 00 00 04 00 00 00	mov64 r1, 4
   13413:	7b 1a 00 f0 00 00 00 00	stxdw [r10 - 4096], r1
   13414:	bf a5 00 00 00 00 00 00	mov64 r5, r10
   13415:	bf 61 00 00 00 00 00 00	mov64 r1, r6
   13416:	18 02 00 00 56 69 02 00 00 00 00 00 00 00 00 00	lddw r2, 158038
   13418:	b7 03 00 00 06 00 00 00	mov64 r3, 6
   13419:	18 04 00 00 c1 54 02 00 00 00 00 00 00 00 00 00	lddw r4, 152769
   13421:	85 10 00 00 01 0a 00 00	call 2561
   13422:	05 00 32 00 00 00 00 00	ja +50 <custom_panic+0xf090>
   13423:	15 01 34 00 02 00 00 00	jeq r1, 2, +52 <custom_panic+0xf0a8>
   13424:	77 07 00 00 20 00 00 00	rsh64 r7, 32
   13425:	bf 71 00 00 00 00 00 00	mov64 r1, r7
   13426:	85 10 00 00 29 ff ff ff	call -215
   13427:	57 00 00 00 ff 00 00 00	and64 r0, 255
   13428:	73 0a d0 ff 00 00 00 00	stxb [r10 - 48], r0
   13429:	bf a7 00 00 00 00 00 00	mov64 r7, r10
   13430:	07 07 00 00 e8 ff ff ff	add64 r7, -24
   13431:	bf 71 00 00 00 00 00 00	mov64 r1, r7
   13432:	bf 62 00 00 00 00 00 00	mov64 r2, r6
   13433:	18 03 00 00 c9 54 02 00 00 00 00 00 00 00 00 00	lddw r3, 152777
   13435:	b7 04 00 00 04 00 00 00	mov64 r4, 4
   13436:	85 10 00 00 28 0a 00 00	call 2600
   13437:	bf a2 00 00 00 00 00 00	mov64 r2, r10
   13438:	07 02 00 00 d0 ff ff ff	add64 r2, -48
   13439:	bf 71 00 00 00 00 00 00	mov64 r1, r7
   13440:	18 03 00 00 b8 87 02 00 00 00 00 00 00 00 00 00	lddw r3, 165816
   13442:	85 10 00 00 72 06 00 00	call 1650
   13443:	bf 01 00 00 00 00 00 00	mov64 r1, r0
   13444:	85 10 00 00 d6 06 00 00	call 1750
   13445:	05 00 1b 00 00 00 00 00	ja +27 <custom_panic+0xf090>
   13446:	bf a8 00 00 00 00 00 00	mov64 r8, r10
   13447:	07 08 00 00 e8 ff ff ff	add64 r8, -24
   13448:	bf 81 00 00 00 00 00 00	mov64 r1, r8
   13449:	bf 62 00 00 00 00 00 00	mov64 r2, r6
   13450:	18 03 00 00 46 69 02 00 00 00 00 00 00 00 00 00	lddw r3, 158022
   13452:	b7 04 00 00 05 00 00 00	mov64 r4, 5
   13453:	85 10 00 00 d4 09 00 00	call 2516
   13454:	bf 74 00 00 00 00 00 00	mov64 r4, r7
   13455:	07 04 00 00 10 00 00 00	add64 r4, 16
   13456:	bf 81 00 00 00 00 00 00	mov64 r1, r8
   13457:	18 02 00 00 c1 54 02 00 00 00 00 00 00 00 00 00	lddw r2, 152769
   13459:	b7 03 00 00 04 00 00 00	mov64 r3, 4
   13460:	18 05 00 00 b8 87 02 00 00 00 00 00 00 00 00 00	lddw r5, 165816
   13462:	85 10 00 00 c2 05 00 00	call 1474
   13463:	bf 01 00 00 00 00 00 00	mov64 r1, r0
   13464:	18 02 00 00 3f 69 02 00 00 00 00 00 00 00 00 00	lddw r2, 158015
   13466:	b7 03 00 00 07 00 00 00	mov64 r3, 7
   13467:	bf 74 00 00 00 00 00 00	mov64 r4, r7
   13468:	18 05 00 00 f8 87 02 00 00 00 00 00 00 00 00 00	lddw r5, 165880
   13470:	85 10 00 00 ba 05 00 00	call 1466
   13471:	bf 01 00 00 00 00 00 00	mov64 r1, r0
   13472:	85 10 00 00 35 06 00 00	call 1589
   13473:	bf 06 00 00 00 00 00 00	mov64 r6, r0
   13474:	bf 60 00 00 00 00 00 00	mov64 r0, r6
   13475:	95 00 00 00 00 00 00 00	exit
   13476:	77 07 00 00 20 00 00 00	rsh64 r7, 32
   13477:	63 7a cc ff 00 00 00 00	stxw [r10 - 52], r7
   13478:	bf a7 00 00 00 00 00 00	mov64 r7, r10
   13479:	07 07 00 00 d0 ff ff ff	add64 r7, -48
   13480:	bf 71 00 00 00 00 00 00	mov64 r1, r7
   13481:	bf 62 00 00 00 00 00 00	mov64 r2, r6
   13482:	18 03 00 00 3d 69 02 00 00 00 00 00 00 00 00 00	lddw r3, 158013
   13484:	b7 04 00 00 02 00 00 00	mov64 r4, 2
   13485:	85 10 00 00 b4 09 00 00	call 2484
   13486:	bf a4 00 00 00 00 00 00	mov64 r4, r10
   13487:	07 04 00 00 cc ff ff ff	add64 r4, -52
   13488:	bf 71 00 00 00 00 00 00	mov64 r1, r7
   13489:	18 02 00 00 c5 54 02 00 00 00 00 00 00 00 00 00	lddw r2, 152773
   13491:	b7 03 00 00 04 00 00 00	mov64 r3, 4
   13492:	18 05 00 00 98 87 02 00 00 00 00 00 00 00 00 00	lddw r5, 165784
   13494:	85 10 00 00 a2 05 00 00	call 1442
   13495:	b7 01 00 00 27 00 00 00	mov64 r1, 39
   13496:	73 1a e7 ff 00 00 00 00	stxb [r10 - 25], r1
   13497:	bf a4 00 00 00 00 00 00	mov64 r4, r10
   13498:	07 04 00 00 e7 ff ff ff	add64 r4, -25
   13499:	bf 01 00 00 00 00 00 00	mov64 r1, r0
   13500:	18 02 00 00 c1 54 02 00 00 00 00 00 00 00 00 00	lddw r2, 152769
   13502:	b7 03 00 00 04 00 00 00	mov64 r3, 4
   13503:	18 05 00 00 b8 87 02 00 00 00 00 00 00 00 00 00	lddw r5, 165816
   13505:	85 10 00 00 97 05 00 00	call 1431
   13506:	bf 06 00 00 00 00 00 00	mov64 r6, r0
   13507:	b7 07 00 00 14 00 00 00	mov64 r7, 20
   13508:	b7 01 00 00 14 00 00 00	mov64 r1, 20
   13509:	b7 02 00 00 01 00 00 00	mov64 r2, 1
   13510:	85 10 00 00 8c e1 ff ff	call -7796
   13511:	55 00 04 00 00 00 00 00	jne r0, 0, +4 <custom_panic+0xf1e8>
   13512:	b7 01 00 00 01 00 00 00	mov64 r1, 1
   13513:	b7 02 00 00 14 00 00 00	mov64 r2, 20
   13514:	85 10 00 00 c5 01 00 00	call 453
   13515:	85 10 00 00 ff ff ff ff	call -1
   13516:	b7 01 00 00 73 66 75 6c	mov64 r1, 1819633267
   13517:	63 10 10 00 00 00 00 00	stxw [r0 + 16], r1
   13518:	18 01 00 00 6e 20 73 75 00 00 00 00 63 63 65 73	lddw r1, 8315161565832880238
   13520:	7b 10 08 00 00 00 00 00	stxdw [r0 + 8], r1
   13521:	18 01 00 00 6f 70 65 72 00 00 00 00 61 74 69 6f	lddw r1, 8028075772644520047
   13523:	7b 10 00 00 00 00 00 00	stxdw [r0 + 0], r1
   13524:	7b 7a f8 ff 00 00 00 00	stxdw [r10 - 8], r7
   13525:	7b 7a f0 ff 00 00 00 00	stxdw [r10 - 16], r7
   13526:	7b 0a e8 ff 00 00 00 00	stxdw [r10 - 24], r0
   13527:	bf a4 00 00 00 00 00 00	mov64 r4, r10
   13528:	07 04 00 00 e8 ff ff ff	add64 r4, -24
   13529:	bf 61 00 00 00 00 00 00	mov64 r1, r6
   13530:	18 02 00 00 3f 69 02 00 00 00 00 00 00 00 00 00	lddw r2, 158015
   13532:	b7 03 00 00 07 00 00 00	mov64 r3, 7
   13533:	18 05 00 00 d8 87 02 00 00 00 00 00 00 00 00 00	lddw r5, 165848
   13535:	85 10 00 00 79 05 00 00	call 1401
   13536:	bf 01 00 00 00 00 00 00	mov64 r1, r0
   13537:	85 10 00 00 f4 05 00 00	call 1524
   13538:	bf 06 00 00 00 00 00 00	mov64 r6, r0
   13539:	79 a2 f0 ff 00 00 00 00	ldxdw r2, [r10 - 16]
   13540:	15 02 bd ff 00 00 00 00	jeq r2, 0, -67 <custom_panic+0xf098>
   13541:	79 a1 e8 ff 00 00 00 00	ldxdw r1, [r10 - 24]
   13542:	b7 03 00 00 01 00 00 00	mov64 r3, 1
   13543:	85 10 00 00 85 e1 ff ff	call -7803
   13544:	05 00 b9 ff 00 00 00 00	ja -71 <custom_panic+0xf098>
   13545:	85 10 00 00 d6 00 00 00	call 214
   13546:	85 10 00 00 ff ff ff ff	call -1
   13547:	85 10 00 00 cf 00 00 00	call 207
   13548:	85 10 00 00 ff ff ff ff	call -1
   13549:	bf 24 00 00 00 00 00 00	mov64 r4, r2
   13550:	b7 03 00 00 08 00 00 00	mov64 r3, 8
   13551:	71 11 00 00 00 00 00 00	ldxb r1, [r1 + 0]
   13552:	65 01 0a 00 13 00 00 00	jsgt r1, 19, +10 <custom_panic+0xf360>
   13553:	65 01 17 00 09 00 00 00	jsgt r1, 9, +23 <custom_panic+0xf3d0>
   13554:	65 01 24 00 04 00 00 00	jsgt r1, 4, +36 <custom_panic+0xf440>
   13555:	65 01 35 00 01 00 00 00	jsgt r1, 1, +53 <custom_panic+0xf4d0>
   13556:	18 02 00 00 25 69 02 00 00 00 00 00 00 00 00 00	lddw r2, 157989
   13558:	15 01 bf 00 00 00 00 00	jeq r1, 0, +191 <custom_panic+0xf938>
   13559:	18 02 00 00 27 54 02 00 00 00 00 00 00 00 00 00	lddw r2, 152615
   13561:	b7 03 00 00 10 00 00 00	mov64 r3, 16
   13562:	05 00 bb 00 00 00 00 00	ja +187 <custom_panic+0xf938>
   13563:	65 01 07 00 1d 00 00 00	jsgt r1, 29, +7 <custom_panic+0xf3a0>
   13564:	65 01 20 00 18 00 00 00	jsgt r1, 24, +32 <custom_panic+0xf470>
   13565:	65 01 31 00 15 00 00 00	jsgt r1, 21, +49 <custom_panic+0xf500>
   13566:	15 01 5a 00 14 00 00 00	jeq r1, 20, +90 <custom_panic+0xf650>
   13567:	18 02 00 00 60 6a 02 00 00 00 00 00 00 00 00 00	lddw r2, 158304
   13569:	b7 03 00 00 0b 00 00 00	mov64 r3, 11
   13570:	05 00 b3 00 00 00 00 00	ja +179 <custom_panic+0xf938>
   13571:	65 01 0c 00 22 00 00 00	jsgt r1, 34, +12 <custom_panic+0xf408>
   13572:	65 01 30 00 1f 00 00 00	jsgt r1, 31, +48 <custom_panic+0xf530>
   13573:	15 01 57 00 1e 00 00 00	jeq r1, 30, +87 <custom_panic+0xf670>
   13574:	18 02 00 00 cb 6a 02 00 00 00 00 00 00 00 00 00	lddw r2, 158411
   13576:	05 00 ac 00 00 00 00 00	ja +172 <custom_panic+0xf930>
   13577:	65 01 19 00 0e 00 00 00	jsgt r1, 14, +25 <custom_panic+0xf4a0>
   13578:	65 01 30 00 0b 00 00 00	jsgt r1, 11, +48 <custom_panic+0xf560>
   13579:	15 01 54 00 0a 00 00 00	jeq r1, 10, +84 <custom_panic+0xf688>
   13580:	18 02 00 00 d3 69 02 00 00 00 00 00 00 00 00 00	lddw r2, 158163
   13582:	b7 03 00 00 0a 00 00 00	mov64 r3, 10
   13583:	05 00 a6 00 00 00 00 00	ja +166 <custom_panic+0xf938>
   13584:	65 01 30 00 25 00 00 00	jsgt r1, 37, +48 <custom_panic+0xf590>
   13585:	15 01 52 00 23 00 00 00	jeq r1, 35, +82 <custom_panic+0xf6a8>
   13586:	15 01 55 00 24 00 00 00	jeq r1, 36, +85 <custom_panic+0xf6c8>
   13587:	18 02 00 00 12 6b 02 00 00 00 00 00 00 00 00 00	lddw r2, 158482
   13589:	b7 03 00 00 0d 00 00 00	mov64 r3, 13
   13590:	05 00 9f 00 00 00 00 00	ja +159 <custom_panic+0xf938>
   13591:	65 01 2f 00 06 00 00 00	jsgt r1, 6, +47 <custom_panic+0xf5c0>
   13592:	15 01 53 00 05 00 00 00	jeq r1, 5, +83 <custom_panic+0xf6e8>
   13593:	18 02 00 00 a2 69 02 00 00 00 00 00 00 00 00 00	lddw r2, 158114
   13595:	b7 03 00 00 11 00 00 00	mov64 r3, 17
   13596:	05 00 99 00 00 00 00 00	ja +153 <custom_panic+0xf938>
   13597:	65 01 2f 00 1a 00 00 00	jsgt r1, 26, +47 <custom_panic+0xf5f0>
   13598:	15 01 51 00 19 00 00 00	jeq r1, 25, +81 <custom_panic+0xf708>
   13599:	18 02 00 00 8a 6a 02 00 00 00 00 00 00 00 00 00	lddw r2, 158346
   13601:	b7 03 00 00 17 00 00 00	mov64 r3, 23
   13602:	05 00 93 00 00 00 00 00	ja +147 <custom_panic+0xf938>
   13603:	65 01 2f 00 10 00 00 00	jsgt r1, 16, +47 <custom_panic+0xf620>
   13604:	15 01 4f 00 0f 00 00 00	jeq r1, 15, +79 <custom_panic+0xf728>
   13605:	18 02 00 00 0d 6a 02 00 00 00 00 00 00 00 00 00	lddw r2, 158221
   13607:	b7 03 00 00 11 00 00 00	mov64 r3, 17
   13608:	05 00 8d 00 00 00 00 00	ja +141 <custom_panic+0xf938>
   13609:	15 01 4e 00 02 00 00 00	jeq r1, 2, +78 <custom_panic+0xf748>
   13610:	15 01 51 00 03 00 00 00	jeq r1, 3, +81 <custom_panic+0xf768>
   13611:	18 02 00 00 81 69 02 00 00 00 00 00 00 00 00 00	lddw r2, 158081
   13613:	b7 03 00 00 0f 00 00 00	mov64 r3, 15
   13614:	05 00 87 00 00 00 00 00	ja +135 <custom_panic+0xf938>
   13615:	15 01 50 00 16 00 00 00	jeq r1, 22, +80 <custom_panic+0xf788>
   13616:	15 01 52 00 17 00 00 00	jeq r1, 23, +82 <custom_panic+0xf7a0>
   13617:	18 02 00 00 74 6a 02 00 00 00 00 00 00 00 00 00	lddw r2, 158324
   13619:	b7 03 00 00 0b 00 00 00	mov64 r3, 11
   13620:	05 00 81 00 00 00 00 00	ja +129 <custom_panic+0xf938>
   13621:	15 01 51 00 20 00 00 00	jeq r1, 32, +81 <custom_panic+0xf7c0>
   13622:	15 01 54 00 21 00 00 00	jeq r1, 33, +84 <custom_panic+0xf7e0>
   13623:	18 02 00 00 f4 6a 02 00 00 00 00 00 00 00 00 00	lddw r2, 158452
   13625:	b7 03 00 00 13 00 00 00	mov64 r3, 19
   13626:	05 00 7b 00 00 00 00 00	ja +123 <custom_panic+0xf938>
   13627:	15 01 53 00 0c 00 00 00	jeq r1, 12, +83 <custom_panic+0xf800>
   13628:	15 01 56 00 0d 00 00 00	jeq r1, 13, +86 <custom_panic+0xf820>
   13629:	18 02 00 00 f4 69 02 00 00 00 00 00 00 00 00 00	lddw r2, 158196
   13631:	b7 03 00 00 0d 00 00 00	mov64 r3, 13
   13632:	05 00 75 00 00 00 00 00	ja +117 <custom_panic+0xf938>
   13633:	15 01 55 00 26 00 00 00	jeq r1, 38, +85 <custom_panic+0xf840>
   13634:	15 01 58 00 27 00 00 00	jeq r1, 39, +88 <custom_panic+0xf860>
   13635:	18 02 00 00 2f 6b 02 00 00 00 00 00 00 00 00 00	lddw r2, 158511
   13637:	b7 03 00 00 0d 00 00 00	mov64 r3, 13
   13638:	05 00 6f 00 00 00 00 00	ja +111 <custom_panic+0xf938>
   13639:	15 01 57 00 07 00 00 00	jeq r1, 7, +87 <custom_panic+0xf880>
   13640:	15 01 5a 00 08 00 00 00	jeq r1, 8, +90 <custom_panic+0xf8a0>
   13641:	18 02 00 00 87 54 02 00 00 00 00 00 00 00 00 00	lddw r2, 152711
   13643:	b7 03 00 00 10 00 00 00	mov64 r3, 16
   13644:	05 00 69 00 00 00 00 00	ja +105 <custom_panic+0xf938>
   13645:	15 01 59 00 1b 00 00 00	jeq r1, 27, +89 <custom_panic+0xf8c0>
   13646:	15 01 5c 00 1c 00 00 00	jeq r1, 28, +92 <custom_panic+0xf8e0>
   13647:	18 02 00 00 b9 6a 02 00 00 00 00 00 00 00 00 00	lddw r2, 158393
   13649:	b7 03 00 00 12 00 00 00	mov64 r3, 18
   13650:	05 00 63 00 00 00 00 00	ja +99 <custom_panic+0xf938>
   13651:	15 01 5b 00 11 00 00 00	jeq r1, 17, +91 <custom_panic+0xf900>
   13652:	15 01 5e 00 12 00 00 00	jeq r1, 18, +94 <custom_panic+0xf920>
   13653:	18 02 00 00 3e 6a 02 00 00 00 00 00 00 00 00 00	lddw r2, 158270
   13655:	b7 03 00 00 16 00 00 00	mov64 r3, 22
   13656:	05 00 5d 00 00 00 00 00	ja +93 <custom_panic+0xf938>
   13657:	18 02 00 00 54 6a 02 00 00 00 00 00 00 00 00 00	lddw r2, 158292
   13659:	b7 03 00 00 0c 00 00 00	mov64 r3, 12
   13660:	05 00 59 00 00 00 00 00	ja +89 <custom_panic+0xf938>
   13661:	18 02 00 00 2d 69 02 00 00 00 00 00 00 00 00 00	lddw r2, 157997
   13663:	05 00 56 00 00 00 00 00	ja +86 <custom_panic+0xf938>
   13664:	18 02 00 00 c8 69 02 00 00 00 00 00 00 00 00 00	lddw r2, 158152
   13666:	b7 03 00 00 0b 00 00 00	mov64 r3, 11
   13667:	05 00 52 00 00 00 00 00	ja +82 <custom_panic+0xf938>
   13668:	18 02 00 00 07 6b 02 00 00 00 00 00 00 00 00 00	lddw r2, 158471
   13670:	b7 03 00 00 0b 00 00 00	mov64 r3, 11
   13671:	05 00 4e 00 00 00 00 00	ja +78 <custom_panic+0xf938>
   13672:	18 02 00 00 4b 69 02 00 00 00 00 00 00 00 00 00	lddw r2, 158027
   13674:	b7 03 00 00 0b 00 00 00	mov64 r3, 11
   13675:	05 00 4a 00 00 00 00 00	ja +74 <custom_panic+0xf938>
   13676:	18 02 00 00 90 69 02 00 00 00 00 00 00 00 00 00	lddw r2, 158096
   13678:	b7 03 00 00 12 00 00 00	mov64 r3, 18
   13679:	05 00 46 00 00 00 00 00	ja +70 <custom_panic+0xf938>
   13680:	18 02 00 00 7f 6a 02 00 00 00 00 00 00 00 00 00	lddw r2, 158335
   13682:	b7 03 00 00 0b 00 00 00	mov64 r3, 11
   13683:	05 00 42 00 00 00 00 00	ja +66 <custom_panic+0xf938>
   13684:	18 02 00 00 01 6a 02 00 00 00 00 00 00 00 00 00	lddw r2, 158209
   13686:	b7 03 00 00 0c 00 00 00	mov64 r3, 12
   13687:	05 00 3e 00 00 00 00 00	ja +62 <custom_panic+0xf938>
   13688:	18 02 00 00 61 69 02 00 00 00 00 00 00 00 00 00	lddw r2, 158049
   13690:	b7 03 00 00 11 00 00 00	mov64 r3, 17
   13691:	05 00 3a 00 00 00 00 00	ja +58 <custom_panic+0xf938>
   13692:	18 02 00 00 72 69 02 00 00 00 00 00 00 00 00 00	lddw r2, 158066
   13694:	b7 03 00 00 0f 00 00 00	mov64 r3, 15
   13695:	05 00 36 00 00 00 00 00	ja +54 <custom_panic+0xf938>
   13696:	18 02 00 00 35 69 02 00 00 00 00 00 00 00 00 00	lddw r2, 158005
   13698:	05 00 33 00 00 00 00 00	ja +51 <custom_panic+0xf938>
   13699:	18 02 00 00 6b 6a 02 00 00 00 00 00 00 00 00 00	lddw r2, 158315
   13701:	b7 03 00 00 09 00 00 00	mov64 r3, 9
   13702:	05 00 2f 00 00 00 00 00	ja +47 <custom_panic+0xf938>
   13703:	18 02 00 00 d9 6a 02 00 00 00 00 00 00 00 00 00	lddw r2, 158425
   13705:	b7 03 00 00 0c 00 00 00	mov64 r3, 12
   13706:	05 00 2b 00 00 00 00 00	ja +43 <custom_panic+0xf938>
   13707:	18 02 00 00 e5 6a 02 00 00 00 00 00 00 00 00 00	lddw r2, 158437
   13709:	b7 03 00 00 0f 00 00 00	mov64 r3, 15
   13710:	05 00 27 00 00 00 00 00	ja +39 <custom_panic+0xf938>
   13711:	18 02 00 00 dd 69 02 00 00 00 00 00 00 00 00 00	lddw r2, 158173
   13713:	b7 03 00 00 0d 00 00 00	mov64 r3, 13
   13714:	05 00 23 00 00 00 00 00	ja +35 <custom_panic+0xf938>
   13715:	18 02 00 00 ea 69 02 00 00 00 00 00 00 00 00 00	lddw r2, 158186
   13717:	b7 03 00 00 0a 00 00 00	mov64 r3, 10
   13718:	05 00 1f 00 00 00 00 00	ja +31 <custom_panic+0xf938>
   13719:	18 02 00 00 1f 6b 02 00 00 00 00 00 00 00 00 00	lddw r2, 158495
   13721:	b7 03 00 00 0b 00 00 00	mov64 r3, 11
   13722:	05 00 1b 00 00 00 00 00	ja +27 <custom_panic+0xf938>
   13723:	18 02 00 00 2a 6b 02 00 00 00 00 00 00 00 00 00	lddw r2, 158506
   13725:	b7 03 00 00 05 00 00 00	mov64 r3, 5
   13726:	05 00 17 00 00 00 00 00	ja +23 <custom_panic+0xf938>
   13727:	18 02 00 00 b3 69 02 00 00 00 00 00 00 00 00 00	lddw r2, 158131
   13729:	b7 03 00 00 0c 00 00 00	mov64 r3, 12
   13730:	05 00 13 00 00 00 00 00	ja +19 <custom_panic+0xf938>
   13731:	18 02 00 00 bf 69 02 00 00 00 00 00 00 00 00 00	lddw r2, 158143
   13733:	b7 03 00 00 09 00 00 00	mov64 r3, 9
   13734:	05 00 0f 00 00 00 00 00	ja +15 <custom_panic+0xf938>
   13735:	18 02 00 00 a1 6a 02 00 00 00 00 00 00 00 00 00	lddw r2, 158369
   13737:	b7 03 00 00 0c 00 00 00	mov64 r3, 12
   13738:	05 00 0b 00 00 00 00 00	ja +11 <custom_panic+0xf938>
   13739:	18 02 00 00 ad 6a 02 00 00 00 00 00 00 00 00 00	lddw r2, 158381
   13741:	b7 03 00 00 0c 00 00 00	mov64 r3, 12
   13742:	05 00 07 00 00 00 00 00	ja +7 <custom_panic+0xf938>
   13743:	18 02 00 00 1e 6a 02 00 00 00 00 00 00 00 00 00	lddw r2, 158238
   13745:	b7 03 00 00 12 00 00 00	mov64 r3, 18
   13746:	05 00 03 00 00 00 00 00	ja +3 <custom_panic+0xf938>
   13747:	18 02 00 00 30 6a 02 00 00 00 00 00 00 00 00 00	lddw r2, 158256
   13749:	b7 03 00 00 0e 00 00 00	mov64 r3, 14
   13750:	bf 41 00 00 00 00 00 00	mov64 r1, r4
   13751:	85 10 00 00 90 08 00 00	call 2192
   13752:	95 00 00 00 00 00 00 00	exit
   13753:	85 10 00 00 ff ff ff ff	call -1
   13754:	95 00 00 00 00 00 00 00	exit
   13755:	85 10 00 00 ff ff ff ff	call -1
   13756:	85 10 00 00 ff ff ff ff	call -1
   13757:	85 10 00 00 ff ff ff ff	call -1
   13758:	b7 00 00 00 27 00 00 00	mov64 r0, 39
   13759:	95 00 00 00 00 00 00 00	exit
   13760:	85 10 00 00 ff ff ff ff	call -1
   13761:	85 10 00 00 ff ff ff ff	call -1
   13762:	18 01 00 00 3c 6b 02 00 00 00 00 00 00 00 00 00	lddw r1, 158524
   13764:	b7 02 00 00 2e 00 00 00	mov64 r2, 46
   13765:	85 10 00 00 f3 ff ff ff	call -13
   13766:	85 10 00 00 22 ff ff ff	call -222
   13767:	85 10 00 00 ff ff ff ff	call -1
   13768:	85 10 00 00 f9 ff ff ff	call -7
   13769:	85 10 00 00 ff ff ff ff	call -1
   13770:	95 00 00 00 00 00 00 00	exit
   13771:	95 00 00 00 00 00 00 00	exit
   13772:	79 11 00 00 00 00 00 00	ldxdw r1, [r1 + 0]
   13773:	85 10 00 00 43 01 00 00	call 323
   13774:	b7 00 00 00 00 00 00 00	mov64 r0, 0
   13775:	95 00 00 00 00 00 00 00	exit
   13776:	79 17 00 00 00 00 00 00	ldxdw r7, [r1 + 0]
   13777:	bf a6 00 00 00 00 00 00	mov64 r6, r10
   13778:	07 06 00 00 d0 ff ff ff	add64 r6, -48
   13779:	bf 61 00 00 00 00 00 00	mov64 r1, r6
   13780:	b7 03 00 00 30 00 00 00	mov64 r3, 48
   13781:	85 10 00 00 c4 11 00 00	call 4548
   13782:	7b 7a c8 ff 00 00 00 00	stxdw [r10 - 56], r7
   13783:	bf a1 00 00 00 00 00 00	mov64 r1, r10
   13784:	07 01 00 00 c8 ff ff ff	add64 r1, -56
   13785:	18 02 00 00 38 88 02 00 00 00 00 00 00 00 00 00	lddw r2, 165944
   13787:	bf 63 00 00 00 00 00 00	mov64 r3, r6
   13788:	85 10 00 00 52 06 00 00	call 1618
   13789:	95 00 00 00 00 00 00 00	exit
   13790:	bf 36 00 00 00 00 00 00	mov64 r6, r3
   13791:	bf 28 00 00 00 00 00 00	mov64 r8, r2
   13792:	79 17 00 00 00 00 00 00	ldxdw r7, [r1 + 0]
   13793:	79 79 10 00 00 00 00 00	ldxdw r9, [r7 + 16]
   13794:	79 71 08 00 00 00 00 00	ldxdw r1, [r7 + 8]
   13795:	1f 91 00 00 00 00 00 00	sub64 r1, r9
   13796:	3d 61 05 00 00 00 00 00	jge r1, r6, +5 <custom_panic+0xfad8>
   13797:	bf 71 00 00 00 00 00 00	mov64 r1, r7
   13798:	bf 92 00 00 00 00 00 00	mov64 r2, r9
   13799:	bf 63 00 00 00 00 00 00	mov64 r3, r6
   13800:	85 10 00 00 0a 00 00 00	call 10
   13801:	79 79 10 00 00 00 00 00	ldxdw r9, [r7 + 16]
   13802:	79 71 00 00 00 00 00 00	ldxdw r1, [r7 + 0]
   13803:	0f 91 00 00 00 00 00 00	add64 r1, r9
   13804:	bf 82 00 00 00 00 00 00	mov64 r2, r8
   13805:	bf 63 00 00 00 00 00 00	mov64 r3, r6
   13806:	85 10 00 00 ab 11 00 00	call 4523
   13807:	0f 69 00 00 00 00 00 00	add64 r9, r6
   13808:	7b 97 10 00 00 00 00 00	stxdw [r7 + 16], r9
   13809:	b7 00 00 00 00 00 00 00	mov64 r0, 0
   13810:	95 00 00 00 00 00 00 00	exit
   13811:	bf 16 00 00 00 00 00 00	mov64 r6, r1
   13812:	bf 24 00 00 00 00 00 00	mov64 r4, r2
   13813:	0f 34 00 00 00 00 00 00	add64 r4, r3
   13814:	b7 01 00 00 01 00 00 00	mov64 r1, 1
   13815:	2d 42 01 00 00 00 00 00	jgt r2, r4, +1 <custom_panic+0xfb50>
   13816:	b7 01 00 00 00 00 00 00	mov64 r1, 0
   13817:	57 01 00 00 01 00 00 00	and64 r1, 1
   13818:	55 01 23 00 00 00 00 00	jne r1, 0, +35 <custom_panic+0xfc78>
   13819:	79 61 08 00 00 00 00 00	ldxdw r1, [r6 + 8]
   13820:	bf 17 00 00 00 00 00 00	mov64 r7, r1
   13821:	67 07 00 00 01 00 00 00	lsh64 r7, 1
   13822:	2d 47 01 00 00 00 00 00	jgt r7, r4, +1 <custom_panic+0xfb88>
   13823:	bf 47 00 00 00 00 00 00	mov64 r7, r4
   13824:	25 07 01 00 08 00 00 00	jgt r7, 8, +1 <custom_panic+0xfb98>
   13825:	b7 07 00 00 08 00 00 00	mov64 r7, 8
   13826:	bf 72 00 00 00 00 00 00	mov64 r2, r7
   13827:	a7 02 00 00 ff ff ff ff	xor64 r2, -1
   13828:	77 02 00 00 3f 00 00 00	rsh64 r2, 63
   13829:	15 01 06 00 00 00 00 00	jeq r1, 0, +6 <custom_panic+0xfbe8>
   13830:	79 63 00 00 00 00 00 00	ldxdw r3, [r6 + 0]
   13831:	7b 1a f8 ff 00 00 00 00	stxdw [r10 - 8], r1
   13832:	b7 01 00 00 01 00 00 00	mov64 r1, 1
   13833:	7b 1a f0 ff 00 00 00 00	stxdw [r10 - 16], r1
   13834:	7b 3a e8 ff 00 00 00 00	stxdw [r10 - 24], r3
   13835:	05 00 02 00 00 00 00 00	ja +2 <custom_panic+0xfbf8>
   13836:	b7 01 00 00 00 00 00 00	mov64 r1, 0
   13837:	7b 1a f0 ff 00 00 00 00	stxdw [r10 - 16], r1
   13838:	bf a1 00 00 00 00 00 00	mov64 r1, r10
   13839:	07 01 00 00 d0 ff ff ff	add64 r1, -48
   13840:	bf a4 00 00 00 00 00 00	mov64 r4, r10
   13841:	07 04 00 00 e8 ff ff ff	add64 r4, -24
   13842:	bf 73 00 00 00 00 00 00	mov64 r3, r7
   13843:	85 10 00 00 3e 00 00 00	call 62
   13844:	79 a1 d8 ff 00 00 00 00	ldxdw r1, [r10 - 40]
   13845:	79 a2 d0 ff 00 00 00 00	ldxdw r2, [r10 - 48]
   13846:	55 02 03 00 00 00 00 00	jne r2, 0, +3 <custom_panic+0xfc58>
   13847:	7b 76 08 00 00 00 00 00	stxdw [r6 + 8], r7
   13848:	7b 16 00 00 00 00 00 00	stxdw [r6 + 0], r1
   13849:	95 00 00 00 00 00 00 00	exit
   13850:	18 02 00 00 01 00 00 00 00 00 00 00 00 00 00 80	lddw r2, -9223372036854775807
   13852:	1d 21 fc ff 00 00 00 00	jeq r1, r2, -4 <custom_panic+0xfc50>
   13853:	55 01 02 00 00 00 00 00	jne r1, 0, +2 <custom_panic+0xfc88>
   13854:	85 10 00 00 60 00 00 00	call 96
   13855:	85 10 00 00 ff ff ff ff	call -1
   13856:	79 a2 e0 ff 00 00 00 00	ldxdw r2, [r10 - 32]
   13857:	85 10 00 00 6e 00 00 00	call 110
   13858:	85 10 00 00 ff ff ff ff	call -1
   13859:	bf 16 00 00 00 00 00 00	mov64 r6, r1
   13860:	07 02 00 00 01 00 00 00	add64 r2, 1
   13861:	b7 01 00 00 01 00 00 00	mov64 r1, 1
   13862:	15 02 01 00 00 00 00 00	jeq r2, 0, +1 <custom_panic+0xfcc8>
   13863:	b7 01 00 00 00 00 00 00	mov64 r1, 0
   13864:	57 01 00 00 01 00 00 00	and64 r1, 1
   13865:	55 01 23 00 00 00 00 00	jne r1, 0, +35 <custom_panic+0xfdf0>
   13866:	79 61 08 00 00 00 00 00	ldxdw r1, [r6 + 8]
   13867:	bf 17 00 00 00 00 00 00	mov64 r7, r1
   13868:	67 07 00 00 01 00 00 00	lsh64 r7, 1
   13869:	2d 27 01 00 00 00 00 00	jgt r7, r2, +1 <custom_panic+0xfd00>
   13870:	bf 27 00 00 00 00 00 00	mov64 r7, r2
   13871:	25 07 01 00 08 00 00 00	jgt r7, 8, +1 <custom_panic+0xfd10>
   13872:	b7 07 00 00 08 00 00 00	mov64 r7, 8
   13873:	bf 72 00 00 00 00 00 00	mov64 r2, r7
   13874:	a7 02 00 00 ff ff ff ff	xor64 r2, -1
   13875:	77 02 00 00 3f 00 00 00	rsh64 r2, 63
   13876:	15 01 06 00 00 00 00 00	jeq r1, 0, +6 <custom_panic+0xfd60>
   13877:	79 63 00 00 00 00 00 00	ldxdw r3, [r6 + 0]
   13878:	7b 1a f8 ff 00 00 00 00	stxdw [r10 - 8], r1
   13879:	b7 01 00 00 01 00 00 00	mov64 r1, 1
   13880:	7b 1a f0 ff 00 00 00 00	stxdw [r10 - 16], r1
   13881:	7b 3a e8 ff 00 00 00 00	stxdw [r10 - 24], r3
   13882:	05 00 02 00 00 00 00 00	ja +2 <custom_panic+0xfd70>
   13883:	b7 01 00 00 00 00 00 00	mov64 r1, 0
   13884:	7b 1a f0 ff 00 00 00 00	stxdw [r10 - 16], r1
   13885:	bf a1 00 00 00 00 00 00	mov64 r1, r10
   13886:	07 01 00 00 d0 ff ff ff	add64 r1, -48
   13887:	bf a4 00 00 00 00 00 00	mov64 r4, r10
   13888:	07 04 00 00 e8 ff ff ff	add64 r4, -24
   13889:	bf 73 00 00 00 00 00 00	mov64 r3, r7
   13890:	85 10 00 00 0f 00 00 00	call 15
   13891:	79 a1 d8 ff 00 00 00 00	ldxdw r1, [r10 - 40]
   13892:	79 a2 d0 ff 00 00 00 00	ldxdw r2, [r10 - 48]
   13893:	55 02 03 00 00 00 00 00	jne r2, 0, +3 <custom_panic+0xfdd0>
   13894:	7b 76 08 00 00 00 00 00	stxdw [r6 + 8], r7
   13895:	7b 16 00 00 00 00 00 00	stxdw [r6 + 0], r1
   13896:	95 00 00 00 00 00 00 00	exit
   13897:	18 02 00 00 01 00 00 00 00 00 00 00 00 00 00 80	lddw r2, -9223372036854775807
   13899:	1d 21 fc ff 00 00 00 00	jeq r1, r2, -4 <custom_panic+0xfdc8>
   13900:	55 01 02 00 00 00 00 00	jne r1, 0, +2 <custom_panic+0xfe00>
   13901:	85 10 00 00 31 00 00 00	call 49
   13902:	85 10 00 00 ff ff ff ff	call -1
   13903:	79 a2 e0 ff 00 00 00 00	ldxdw r2, [r10 - 32]
   13904:	85 10 00 00 3f 00 00 00	call 63
   13905:	85 10 00 00 ff ff ff ff	call -1
   13906:	bf 37 00 00 00 00 00 00	mov64 r7, r3
   13907:	bf 16 00 00 00 00 00 00	mov64 r6, r1
   13908:	15 02 0d 00 00 00 00 00	jeq r2, 0, +13 <custom_panic+0xfe98>
   13909:	79 41 08 00 00 00 00 00	ldxdw r1, [r4 + 8]
   13910:	15 01 1b 00 00 00 00 00	jeq r1, 0, +27 <custom_panic+0xff18>
   13911:	79 42 10 00 00 00 00 00	ldxdw r2, [r4 + 16]
   13912:	55 02 0e 00 00 00 00 00	jne r2, 0, +14 <custom_panic+0xfec0>
   13913:	b7 01 00 00 00 00 00 00	mov64 r1, 0
   13914:	b7 00 00 00 01 00 00 00	mov64 r0, 1
   13915:	15 07 1e 00 00 00 00 00	jeq r7, 0, +30 <custom_panic+0xff58>
   13916:	bf 71 00 00 00 00 00 00	mov64 r1, r7
   13917:	b7 02 00 00 01 00 00 00	mov64 r2, 1
   13918:	85 10 00 00 f4 df ff ff	call -8204
   13919:	bf 71 00 00 00 00 00 00	mov64 r1, r7
   13920:	15 00 0d 00 00 00 00 00	jeq r0, 0, +13 <custom_panic+0xfef8>
   13921:	05 00 18 00 00 00 00 00	ja +24 <custom_panic+0xff58>
   13922:	7b 76 10 00 00 00 00 00	stxdw [r6 + 16], r7
   13923:	b7 01 00 00 00 00 00 00	mov64 r1, 0
   13924:	7b 16 08 00 00 00 00 00	stxdw [r6 + 8], r1
   13925:	b7 01 00 00 01 00 00 00	mov64 r1, 1
   13926:	05 00 16 00 00 00 00 00	ja +22 <custom_panic+0xff70>
   13927:	79 41 00 00 00 00 00 00	ldxdw r1, [r4 + 0]
   13928:	b7 03 00 00 01 00 00 00	mov64 r3, 1
   13929:	bf 74 00 00 00 00 00 00	mov64 r4, r7
   13930:	85 10 00 00 03 e0 ff ff	call -8189
   13931:	bf 71 00 00 00 00 00 00	mov64 r1, r7
   13932:	15 00 01 00 00 00 00 00	jeq r0, 0, +1 <custom_panic+0xfef8>
   13933:	05 00 0c 00 00 00 00 00	ja +12 <custom_panic+0xff58>
   13934:	7b 76 10 00 00 00 00 00	stxdw [r6 + 16], r7
   13935:	b7 01 00 00 01 00 00 00	mov64 r1, 1
   13936:	7b 16 08 00 00 00 00 00	stxdw [r6 + 8], r1
   13937:	05 00 0b 00 00 00 00 00	ja +11 <custom_panic+0xff70>
   13938:	b7 01 00 00 00 00 00 00	mov64 r1, 0
   13939:	b7 00 00 00 01 00 00 00	mov64 r0, 1
   13940:	15 07 05 00 00 00 00 00	jeq r7, 0, +5 <custom_panic+0xff58>
   13941:	bf 71 00 00 00 00 00 00	mov64 r1, r7
   13942:	b7 02 00 00 01 00 00 00	mov64 r2, 1
   13943:	85 10 00 00 db df ff ff	call -8229
   13944:	bf 71 00 00 00 00 00 00	mov64 r1, r7
   13945:	15 00 f4 ff 00 00 00 00	jeq r0, 0, -12 <custom_panic+0xfef8>
   13946:	7b 16 10 00 00 00 00 00	stxdw [r6 + 16], r1
   13947:	7b 06 08 00 00 00 00 00	stxdw [r6 + 8], r0
   13948:	b7 01 00 00 00 00 00 00	mov64 r1, 0
   13949:	7b 16 00 00 00 00 00 00	stxdw [r6 + 0], r1
   13950:	95 00 00 00 00 00 00 00	exit
   13951:	b7 01 00 00 01 00 00 00	mov64 r1, 1
   13952:	7b 1a d8 ff 00 00 00 00	stxdw [r10 - 40], r1
   13953:	18 01 00 00 68 88 02 00 00 00 00 00 00 00 00 00	lddw r1, 165992
   13955:	7b 1a d0 ff 00 00 00 00	stxdw [r10 - 48], r1
   13956:	b7 01 00 00 00 00 00 00	mov64 r1, 0
   13957:	7b 1a f0 ff 00 00 00 00	stxdw [r10 - 16], r1
   13958:	7b 1a e8 ff 00 00 00 00	stxdw [r10 - 24], r1
   13959:	18 01 00 00 70 6b 02 00 00 00 00 00 00 00 00 00	lddw r1, 158576
   13961:	7b 1a e0 ff 00 00 00 00	stxdw [r10 - 32], r1
   13962:	bf a1 00 00 00 00 00 00	mov64 r1, r10
   13963:	07 01 00 00 d0 ff ff ff	add64 r1, -48
   13964:	18 02 00 00 78 88 02 00 00 00 00 00 00 00 00 00	lddw r2, 166008
   13966:	85 10 00 00 ca 02 00 00	call 714
   13967:	85 10 00 00 ff ff ff ff	call -1
   13968:	85 10 00 00 01 00 00 00	call 1
   13969:	85 10 00 00 ff ff ff ff	call -1
   13970:	bf 13 00 00 00 00 00 00	mov64 r3, r1
   13971:	bf 21 00 00 00 00 00 00	mov64 r1, r2
   13972:	bf 32 00 00 00 00 00 00	mov64 r2, r3
   13973:	85 10 00 00 14 e0 ff ff	call -8172
   13974:	85 10 00 00 ff ff ff ff	call -1
   13975:	79 23 10 00 00 00 00 00	ldxdw r3, [r2 + 16]
   13976:	7b 31 08 00 00 00 00 00	stxdw [r1 + 8], r3
   13977:	79 22 00 00 00 00 00 00	ldxdw r2, [r2 + 0]
   13978:	7b 21 00 00 00 00 00 00	stxdw [r1 + 0], r2
   13979:	95 00 00 00 00 00 00 00	exit
   13980:	bf 23 00 00 00 00 00 00	mov64 r3, r2
   13981:	79 12 10 00 00 00 00 00	ldxdw r2, [r1 + 16]
   13982:	79 11 00 00 00 00 00 00	ldxdw r1, [r1 + 0]
   13983:	85 10 00 00 43 09 00 00	call 2371
   13984:	95 00 00 00 00 00 00 00	exit
   13985:	bf 23 00 00 00 00 00 00	mov64 r3, r2
   13986:	79 12 10 00 00 00 00 00	ldxdw r2, [r1 + 16]
   13987:	79 11 00 00 00 00 00 00	ldxdw r1, [r1 + 0]
   13988:	85 10 00 00 4c 08 00 00	call 2124
   13989:	95 00 00 00 00 00 00 00	exit
   13990:	b7 03 00 00 00 00 00 00	mov64 r3, 0
   13991:	b7 04 00 00 04 00 00 00	mov64 r4, 4
   13992:	b7 05 00 00 05 00 00 00	mov64 r5, 5
   13993:	2d 25 0a 00 00 00 00 00	jgt r5, r2, +10 <custom_panic+0x10128>
   13994:	bf 24 00 00 00 00 00 00	mov64 r4, r2
   13995:	15 02 08 00 05 00 00 00	jeq r2, 5, +8 <custom_panic+0x10128>
   13996:	15 02 04 00 06 00 00 00	jeq r2, 6, +4 <custom_panic+0x10110>
   13997:	b7 03 00 00 01 00 00 00	mov64 r3, 1
   13998:	b7 04 00 00 06 00 00 00	mov64 r4, 6
   13999:	07 02 00 00 f9 ff ff ff	add64 r2, -7
   14000:	05 00 03 00 00 00 00 00	ja +3 <custom_panic+0x10128>
   14001:	b7 02 00 00 00 00 00 00	mov64 r2, 0
   14002:	b7 03 00 00 01 00 00 00	mov64 r3, 1
   14003:	b7 04 00 00 05 00 00 00	mov64 r4, 5
   14004:	7b 21 10 00 00 00 00 00	stxdw [r1 + 16], r2
   14005:	7b 31 08 00 00 00 00 00	stxdw [r1 + 8], r3
   14006:	7b 41 00 00 00 00 00 00	stxdw [r1 + 0], r4
   14007:	95 00 00 00 00 00 00 00	exit
   14008:	bf 27 00 00 00 00 00 00	mov64 r7, r2
   14009:	bf 16 00 00 00 00 00 00	mov64 r6, r1
   14010:	79 72 08 00 00 00 00 00	ldxdw r2, [r7 + 8]
   14011:	15 02 29 00 00 00 00 00	jeq r2, 0, +41 <custom_panic+0x102b0>
   14012:	79 71 00 00 00 00 00 00	ldxdw r1, [r7 + 0]
   14013:	b7 04 00 00 00 00 00 00	mov64 r4, 0
   14014:	bf 13 00 00 00 00 00 00	mov64 r3, r1
   14015:	07 03 00 00 08 00 00 00	add64 r3, 8
   14016:	79 38 00 00 00 00 00 00	ldxdw r8, [r3 + 0]
   14017:	0f 48 00 00 00 00 00 00	add64 r8, r4
   14018:	07 03 00 00 10 00 00 00	add64 r3, 16
   14019:	07 02 00 00 ff ff ff ff	add64 r2, -1
   14020:	bf 84 00 00 00 00 00 00	mov64 r4, r8
   14021:	55 02 fa ff 00 00 00 00	jne r2, 0, -6 <custom_panic+0x10188>
   14022:	79 72 18 00 00 00 00 00	ldxdw r2, [r7 + 24]
   14023:	15 02 0e 00 00 00 00 00	jeq r2, 0, +14 <custom_panic+0x10238>
   14024:	b7 04 00 00 00 00 00 00	mov64 r4, 0
   14025:	b7 03 00 00 01 00 00 00	mov64 r3, 1
   14026:	b7 05 00 00 10 00 00 00	mov64 r5, 16
   14027:	b7 02 00 00 01 00 00 00	mov64 r2, 1
   14028:	2d 85 01 00 00 00 00 00	jgt r5, r8, +1 <custom_panic+0x101f8>
   14029:	b7 02 00 00 00 00 00 00	mov64 r2, 0
   14030:	79 11 08 00 00 00 00 00	ldxdw r1, [r1 + 8]
   14031:	15 01 01 00 00 00 00 00	jeq r1, 0, +1 <custom_panic+0x10210>
   14032:	b7 03 00 00 00 00 00 00	mov64 r3, 0
   14033:	6d 84 17 00 00 00 00 00	jsgt r4, r8, +23 <custom_panic+0x102d0>
   14034:	5f 32 00 00 00 00 00 00	and64 r2, r3
   14035:	57 02 00 00 01 00 00 00	and64 r2, 1
   14036:	55 02 14 00 00 00 00 00	jne r2, 0, +20 <custom_panic+0x102d0>
   14037:	67 08 00 00 01 00 00 00	lsh64 r8, 1
   14038:	b7 00 00 00 01 00 00 00	mov64 r0, 1
   14039:	b7 01 00 00 00 00 00 00	mov64 r1, 0
   14040:	15 08 12 00 00 00 00 00	jeq r8, 0, +18 <custom_panic+0x102e0>
   14041:	65 08 02 00 ff ff ff ff	jsgt r8, -1, +2 <custom_panic+0x10268>
   14042:	85 10 00 00 a4 ff ff ff	call -92
   14043:	85 10 00 00 ff ff ff ff	call -1
   14044:	bf 81 00 00 00 00 00 00	mov64 r1, r8
   14045:	b7 02 00 00 01 00 00 00	mov64 r2, 1
   14046:	85 10 00 00 74 df ff ff	call -8332
   14047:	bf 81 00 00 00 00 00 00	mov64 r1, r8
   14048:	55 00 0a 00 00 00 00 00	jne r0, 0, +10 <custom_panic+0x102e0>
   14049:	b7 01 00 00 01 00 00 00	mov64 r1, 1
   14050:	bf 82 00 00 00 00 00 00	mov64 r2, r8
   14051:	85 10 00 00 ac ff ff ff	call -84
   14052:	85 10 00 00 ff ff ff ff	call -1
   14053:	b7 08 00 00 00 00 00 00	mov64 r8, 0
   14054:	79 71 18 00 00 00 00 00	ldxdw r1, [r7 + 24]
   14055:	15 01 01 00 00 00 00 00	jeq r1, 0, +1 <custom_panic+0x102d0>
   14056:	05 00 ec ff 00 00 00 00	ja -20 <custom_panic+0x10230>
   14057:	b7 00 00 00 01 00 00 00	mov64 r0, 1
   14058:	b7 01 00 00 00 00 00 00	mov64 r1, 0
   14059:	b7 02 00 00 00 00 00 00	mov64 r2, 0
   14060:	7b 2a b8 ff 00 00 00 00	stxdw [r10 - 72], r2
   14061:	7b 1a b0 ff 00 00 00 00	stxdw [r10 - 80], r1
   14062:	7b 0a a8 ff 00 00 00 00	stxdw [r10 - 88], r0
   14063:	bf a1 00 00 00 00 00 00	mov64 r1, r10
   14064:	07 01 00 00 a8 ff ff ff	add64 r1, -88
   14065:	7b 1a c0 ff 00 00 00 00	stxdw [r10 - 64], r1
   14066:	bf a8 00 00 00 00 00 00	mov64 r8, r10
   14067:	07 08 00 00 c8 ff ff ff	add64 r8, -56
   14068:	bf 81 00 00 00 00 00 00	mov64 r1, r8
   14069:	bf 72 00 00 00 00 00 00	mov64 r2, r7
   14070:	b7 03 00 00 30 00 00 00	mov64 r3, 48
   14071:	85 10 00 00 a2 10 00 00	call 4258
   14072:	bf a1 00 00 00 00 00 00	mov64 r1, r10
   14073:	07 01 00 00 c0 ff ff ff	add64 r1, -64
   14074:	18 02 00 00 38 88 02 00 00 00 00 00 00 00 00 00	lddw r2, 165944
   14076:	bf 83 00 00 00 00 00 00	mov64 r3, r8
   14077:	85 10 00 00 31 05 00 00	call 1329
   14078:	55 00 07 00 00 00 00 00	jne r0, 0, +7 <custom_panic+0x103b8>
   14079:	79 a1 b8 ff 00 00 00 00	ldxdw r1, [r10 - 72]
   14080:	7b 16 10 00 00 00 00 00	stxdw [r6 + 16], r1
   14081:	79 a1 b0 ff 00 00 00 00	ldxdw r1, [r10 - 80]
   14082:	7b 16 08 00 00 00 00 00	stxdw [r6 + 8], r1
   14083:	79 a1 a8 ff 00 00 00 00	ldxdw r1, [r10 - 88]
   14084:	7b 16 00 00 00 00 00 00	stxdw [r6 + 0], r1
   14085:	95 00 00 00 00 00 00 00	exit
   14086:	bf a3 00 00 00 00 00 00	mov64 r3, r10
   14087:	07 03 00 00 f8 ff ff ff	add64 r3, -8
   14088:	18 01 00 00 9d 6b 02 00 00 00 00 00 00 00 00 00	lddw r1, 158621
   14090:	b7 02 00 00 33 00 00 00	mov64 r2, 51
   14091:	18 04 00 00 90 88 02 00 00 00 00 00 00 00 00 00	lddw r4, 166032
   14093:	18 05 00 00 b0 88 02 00 00 00 00 00 00 00 00 00	lddw r5, 166064
   14095:	85 10 00 00 85 02 00 00	call 645
   14096:	85 10 00 00 ff ff ff ff	call -1
   14097:	bf 27 00 00 00 00 00 00	mov64 r7, r2
   14098:	bf 16 00 00 00 00 00 00	mov64 r6, r1
   14099:	bf 71 00 00 00 00 00 00	mov64 r1, r7
   14100:	67 01 00 00 20 00 00 00	lsh64 r1, 32
   14101:	77 01 00 00 20 00 00 00	rsh64 r1, 32
   14102:	b7 02 00 00 80 00 00 00	mov64 r2, 128
   14103:	2d 12 18 00 00 00 00 00	jgt r2, r1, +24 <custom_panic+0x10508>
   14104:	b7 02 00 00 00 00 00 00	mov64 r2, 0
   14105:	63 2a fc ff 00 00 00 00	stxw [r10 - 4], r2
   14106:	b7 02 00 00 00 08 00 00	mov64 r2, 2048
   14107:	2d 12 20 00 00 00 00 00	jgt r2, r1, +32 <custom_panic+0x10568>
   14108:	bf 71 00 00 00 00 00 00	mov64 r1, r7
   14109:	67 01 00 00 20 00 00 00	lsh64 r1, 32
   14110:	77 01 00 00 20 00 00 00	rsh64 r1, 32
   14111:	b7 02 00 00 00 00 01 00	mov64 r2, 65536
   14112:	2d 12 01 00 00 00 00 00	jgt r2, r1, +1 <custom_panic+0x10498>
   14113:	05 00 23 00 00 00 00 00	ja +35 <custom_panic+0x105b0>
   14114:	bf 71 00 00 00 00 00 00	mov64 r1, r7
   14115:	57 01 00 00 3f 00 00 00	and64 r1, 63
   14116:	47 01 00 00 80 00 00 00	or64 r1, 128
   14117:	73 1a fe ff 00 00 00 00	stxb [r10 - 2], r1
   14118:	bf 71 00 00 00 00 00 00	mov64 r1, r7
   14119:	77 01 00 00 0c 00 00 00	rsh64 r1, 12
   14120:	47 01 00 00 e0 00 00 00	or64 r1, 224
   14121:	73 1a fc ff 00 00 00 00	stxb [r10 - 4], r1
   14122:	77 07 00 00 06 00 00 00	rsh64 r7, 6
   14123:	57 07 00 00 3f 00 00 00	and64 r7, 63
   14124:	47 07 00 00 80 00 00 00	or64 r7, 128
   14125:	73 7a fd ff 00 00 00 00	stxb [r10 - 3], r7
   14126:	b7 07 00 00 03 00 00 00	mov64 r7, 3
   14127:	05 00 28 00 00 00 00 00	ja +40 <custom_panic+0x10648>
   14128:	79 62 10 00 00 00 00 00	ldxdw r2, [r6 + 16]
   14129:	79 61 08 00 00 00 00 00	ldxdw r1, [r6 + 8]
   14130:	5d 12 03 00 00 00 00 00	jne r2, r1, +3 <custom_panic+0x10538>
   14131:	bf 61 00 00 00 00 00 00	mov64 r1, r6
   14132:	85 10 00 00 ee fe ff ff	call -274
   14133:	79 62 10 00 00 00 00 00	ldxdw r2, [r6 + 16]
   14134:	79 61 00 00 00 00 00 00	ldxdw r1, [r6 + 0]
   14135:	0f 21 00 00 00 00 00 00	add64 r1, r2
   14136:	73 71 00 00 00 00 00 00	stxb [r1 + 0], r7
   14137:	07 02 00 00 01 00 00 00	add64 r2, 1
   14138:	7b 26 10 00 00 00 00 00	stxdw [r6 + 16], r2
   14139:	05 00 2d 00 00 00 00 00	ja +45 <custom_panic+0x106d0>
   14140:	bf 71 00 00 00 00 00 00	mov64 r1, r7
   14141:	57 01 00 00 3f 00 00 00	and64 r1, 63
   14142:	47 01 00 00 80 00 00 00	or64 r1, 128
   14143:	73 1a fd ff 00 00 00 00	stxb [r10 - 3], r1
   14144:	77 07 00 00 06 00 00 00	rsh64 r7, 6
   14145:	47 07 00 00 c0 00 00 00	or64 r7, 192
   14146:	73 7a fc ff 00 00 00 00	stxb [r10 - 4], r7
   14147:	b7 07 00 00 02 00 00 00	mov64 r7, 2
   14148:	05 00 13 00 00 00 00 00	ja +19 <custom_panic+0x10648>
   14149:	bf 71 00 00 00 00 00 00	mov64 r1, r7
   14150:	57 01 00 00 3f 00 00 00	and64 r1, 63
   14151:	47 01 00 00 80 00 00 00	or64 r1, 128
   14152:	73 1a ff ff 00 00 00 00	stxb [r10 - 1], r1
   14153:	bf 71 00 00 00 00 00 00	mov64 r1, r7
   14154:	77 01 00 00 06 00 00 00	rsh64 r1, 6
   14155:	57 01 00 00 3f 00 00 00	and64 r1, 63
   14156:	47 01 00 00 80 00 00 00	or64 r1, 128
   14157:	73 1a fe ff 00 00 00 00	stxb [r10 - 2], r1
   14158:	bf 71 00 00 00 00 00 00	mov64 r1, r7
   14159:	77 01 00 00 0c 00 00 00	rsh64 r1, 12
   14160:	57 01 00 00 3f 00 00 00	and64 r1, 63
   14161:	47 01 00 00 80 00 00 00	or64 r1, 128
   14162:	73 1a fd ff 00 00 00 00	stxb [r10 - 3], r1
   14163:	77 07 00 00 12 00 00 00	rsh64 r7, 18
   14164:	57 07 00 00 07 00 00 00	and64 r7, 7
   14165:	47 07 00 00 f0 00 00 00	or64 r7, 240
   14166:	73 7a fc ff 00 00 00 00	stxb [r10 - 4], r7
   14167:	b7 07 00 00 04 00 00 00	mov64 r7, 4
   14168:	79 68 10 00 00 00 00 00	ldxdw r8, [r6 + 16]
   14169:	79 61 08 00 00 00 00 00	ldxdw r1, [r6 + 8]
   14170:	1f 81 00 00 00 00 00 00	sub64 r1, r8
   14171:	3d 71 05 00 00 00 00 00	jge r1, r7, +5 <custom_panic+0x10690>
   14172:	bf 61 00 00 00 00 00 00	mov64 r1, r6
   14173:	bf 82 00 00 00 00 00 00	mov64 r2, r8
   14174:	bf 73 00 00 00 00 00 00	mov64 r3, r7
   14175:	85 10 00 00 93 fe ff ff	call -365
   14176:	79 68 10 00 00 00 00 00	ldxdw r8, [r6 + 16]
   14177:	79 61 00 00 00 00 00 00	ldxdw r1, [r6 + 0]
   14178:	0f 81 00 00 00 00 00 00	add64 r1, r8
   14179:	bf a2 00 00 00 00 00 00	mov64 r2, r10
   14180:	07 02 00 00 fc ff ff ff	add64 r2, -4
   14181:	bf 73 00 00 00 00 00 00	mov64 r3, r7
   14182:	85 10 00 00 33 10 00 00	call 4147
   14183:	0f 78 00 00 00 00 00 00	add64 r8, r7
   14184:	7b 86 10 00 00 00 00 00	stxdw [r6 + 16], r8
   14185:	95 00 00 00 00 00 00 00	exit
   14186:	07 01 00 00 18 00 00 00	add64 r1, 24
   14187:	85 10 00 00 c5 0a 00 00	call 2757
   14188:	95 00 00 00 00 00 00 00	exit
   14189:	bf 17 00 00 00 00 00 00	mov64 r7, r1
   14190:	b7 09 00 00 01 00 00 00	mov64 r9, 1
   14191:	79 28 00 00 00 00 00 00	ldxdw r8, [r2 + 0]
   14192:	79 26 10 00 00 00 00 00	ldxdw r6, [r2 + 16]
   14193:	15 06 0c 00 00 00 00 00	jeq r6, 0, +12 <custom_panic+0x10778>
   14194:	65 06 02 00 ff ff ff ff	jsgt r6, -1, +2 <custom_panic+0x10730>
   14195:	85 10 00 00 0b ff ff ff	call -245
   14196:	85 10 00 00 ff ff ff ff	call -1
   14197:	bf 61 00 00 00 00 00 00	mov64 r1, r6
   14198:	b7 02 00 00 01 00 00 00	mov64 r2, 1
   14199:	85 10 00 00 db de ff ff	call -8485
   14200:	bf 09 00 00 00 00 00 00	mov64 r9, r0
   14201:	55 09 04 00 00 00 00 00	jne r9, 0, +4 <custom_panic+0x10778>
   14202:	b7 01 00 00 01 00 00 00	mov64 r1, 1
   14203:	bf 62 00 00 00 00 00 00	mov64 r2, r6
   14204:	85 10 00 00 13 ff ff ff	call -237
   14205:	85 10 00 00 ff ff ff ff	call -1
   14206:	bf 91 00 00 00 00 00 00	mov64 r1, r9
   14207:	bf 82 00 00 00 00 00 00	mov64 r2, r8
   14208:	bf 63 00 00 00 00 00 00	mov64 r3, r6
   14209:	85 10 00 00 18 10 00 00	call 4120
   14210:	7b 67 10 00 00 00 00 00	stxdw [r7 + 16], r6
   14211:	7b 67 08 00 00 00 00 00	stxdw [r7 + 8], r6
   14212:	7b 97 00 00 00 00 00 00	stxdw [r7 + 0], r9
   14213:	95 00 00 00 00 00 00 00	exit
   14214:	79 11 00 00 00 00 00 00	ldxdw r1, [r1 + 0]
   14215:	05 00 ff ff 00 00 00 00	ja -1 <custom_panic+0x107c0>
   14216:	95 00 00 00 00 00 00 00	exit
   14217:	95 00 00 00 00 00 00 00	exit
   14218:	bf 26 00 00 00 00 00 00	mov64 r6, r2
   14219:	bf 17 00 00 00 00 00 00	mov64 r7, r1
   14220:	85 10 00 00 34 0e 00 00	call 3636
   14221:	b7 08 00 00 01 00 00 00	mov64 r8, 1
   14222:	55 00 15 00 00 00 00 00	jne r0, 0, +21 <custom_panic+0x108a8>
   14223:	79 62 28 00 00 00 00 00	ldxdw r2, [r6 + 40]
   14224:	79 61 20 00 00 00 00 00	ldxdw r1, [r6 + 32]
   14225:	18 03 00 00 e8 6b 02 00 00 00 00 00 00 00 00 00	lddw r3, 158696
   14227:	7b 3a e0 ff 00 00 00 00	stxdw [r10 - 32], r3
   14228:	18 03 00 00 c8 88 02 00 00 00 00 00 00 00 00 00	lddw r3, 166088
   14230:	7b 3a d0 ff 00 00 00 00	stxdw [r10 - 48], r3
   14231:	b7 03 00 00 00 00 00 00	mov64 r3, 0
   14232:	7b 3a e8 ff 00 00 00 00	stxdw [r10 - 24], r3
   14233:	7b 3a f0 ff 00 00 00 00	stxdw [r10 - 16], r3
   14234:	7b 8a d8 ff 00 00 00 00	stxdw [r10 - 40], r8
   14235:	bf a3 00 00 00 00 00 00	mov64 r3, r10
   14236:	07 03 00 00 d0 ff ff ff	add64 r3, -48
   14237:	85 10 00 00 91 04 00 00	call 1169
   14238:	55 00 05 00 00 00 00 00	jne r0, 0, +5 <custom_panic+0x108a8>
   14239:	07 07 00 00 08 00 00 00	add64 r7, 8
   14240:	bf 71 00 00 00 00 00 00	mov64 r1, r7
   14241:	bf 62 00 00 00 00 00 00	mov64 r2, r6
   14242:	85 10 00 00 1e 0e 00 00	call 3614
   14243:	bf 08 00 00 00 00 00 00	mov64 r8, r0
   14244:	bf 80 00 00 00 00 00 00	mov64 r0, r8
   14245:	95 00 00 00 00 00 00 00	exit
   14246:	18 02 00 00 b2 c3 62 91 00 00 00 00 e7 2d 15 a4	lddw r2, -6623337204378582094
   14248:	7b 21 08 00 00 00 00 00	stxdw [r1 + 8], r2
   14249:	18 02 00 00 44 33 80 78 00 00 00 00 d3 a5 22 e7	lddw r2, -1791687374061685948
   14251:	7b 21 00 00 00 00 00 00	stxdw [r1 + 0], r2
   14252:	95 00 00 00 00 00 00 00	exit
   14253:	79 21 20 00 00 00 00 00	ldxdw r1, [r2 + 32]
   14254:	79 22 28 00 00 00 00 00	ldxdw r2, [r2 + 40]
   14255:	79 24 18 00 00 00 00 00	ldxdw r4, [r2 + 24]
   14256:	18 02 00 00 31 6c 02 00 00 00 00 00 00 00 00 00	lddw r2, 158769
   14258:	b7 03 00 00 0b 00 00 00	mov64 r3, 11
   14259:	8d 00 00 00 04 00 00 00	callx r4
   14260:	95 00 00 00 00 00 00 00	exit
   14261:	bf 27 00 00 00 00 00 00	mov64 r7, r2
   14262:	bf 16 00 00 00 00 00 00	mov64 r6, r1
   14263:	bf 71 00 00 00 00 00 00	mov64 r1, r7
   14264:	67 01 00 00 20 00 00 00	lsh64 r1, 32
   14265:	77 01 00 00 20 00 00 00	rsh64 r1, 32
   14266:	65 01 0a 00 0c 00 00 00	jsgt r1, 12, +10 <custom_panic+0x109b0>
   14267:	15 01 16 00 00 00 00 00	jeq r1, 0, +22 <custom_panic+0x10a18>
   14268:	15 01 1b 00 09 00 00 00	jeq r1, 9, +27 <custom_panic+0x10a48>
   14269:	15 01 01 00 0a 00 00 00	jeq r1, 10, +1 <custom_panic+0x10980>
   14270:	05 00 27 00 00 00 00 00	ja +39 <custom_panic+0x10ab8>
   14271:	b7 01 00 00 00 02 00 00	mov64 r1, 512
   14272:	6b 16 0a 00 00 00 00 00	stxh [r6 + 10], r1
   14273:	b7 01 00 00 00 00 00 00	mov64 r1, 0
   14274:	7b 16 02 00 00 00 00 00	stxdw [r6 + 2], r1
   14275:	b7 01 00 00 5c 6e 00 00	mov64 r1, 28252
   14276:	05 00 3c 00 00 00 00 00	ja +60 <custom_panic+0x10b90>
   14277:	65 01 1e 00 26 00 00 00	jsgt r1, 38, +30 <custom_panic+0x10aa8>
   14278:	15 01 17 00 0d 00 00 00	jeq r1, 13, +23 <custom_panic+0x10a78>
   14279:	15 01 01 00 22 00 00 00	jeq r1, 34, +1 <custom_panic+0x109d0>
   14280:	05 00 1d 00 00 00 00 00	ja +29 <custom_panic+0x10ab8>
   14281:	bf 31 00 00 00 00 00 00	mov64 r1, r3
   14282:	57 01 00 00 00 00 01 00	and64 r1, 65536
   14283:	15 01 1a 00 00 00 00 00	jeq r1, 0, +26 <custom_panic+0x10ab8>
   14284:	b7 01 00 00 00 02 00 00	mov64 r1, 512
   14285:	6b 16 0a 00 00 00 00 00	stxh [r6 + 10], r1
   14286:	b7 01 00 00 00 00 00 00	mov64 r1, 0
   14287:	7b 16 02 00 00 00 00 00	stxdw [r6 + 2], r1
   14288:	b7 01 00 00 5c 22 00 00	mov64 r1, 8796
   14289:	05 00 2f 00 00 00 00 00	ja +47 <custom_panic+0x10b90>
   14290:	b7 01 00 00 00 02 00 00	mov64 r1, 512
   14291:	6b 16 0a 00 00 00 00 00	stxh [r6 + 10], r1
   14292:	b7 01 00 00 00 00 00 00	mov64 r1, 0
   14293:	7b 16 02 00 00 00 00 00	stxdw [r6 + 2], r1
   14294:	b7 01 00 00 5c 30 00 00	mov64 r1, 12380
   14295:	05 00 29 00 00 00 00 00	ja +41 <custom_panic+0x10b90>
   14296:	b7 01 00 00 00 02 00 00	mov64 r1, 512
   14297:	6b 16 0a 00 00 00 00 00	stxh [r6 + 10], r1
   14298:	b7 01 00 00 00 00 00 00	mov64 r1, 0
   14299:	7b 16 02 00 00 00 00 00	stxdw [r6 + 2], r1
   14300:	b7 01 00 00 5c 74 00 00	mov64 r1, 29788
   14301:	05 00 23 00 00 00 00 00	ja +35 <custom_panic+0x10b90>
   14302:	b7 01 00 00 00 02 00 00	mov64 r1, 512
   14303:	6b 16 0a 00 00 00 00 00	stxh [r6 + 10], r1
   14304:	b7 01 00 00 00 00 00 00	mov64 r1, 0
   14305:	7b 16 02 00 00 00 00 00	stxdw [r6 + 2], r1
   14306:	b7 01 00 00 5c 72 00 00	mov64 r1, 29276
   14307:	05 00 1d 00 00 00 00 00	ja +29 <custom_panic+0x10b90>
   14308:	15 01 0e 00 27 00 00 00	jeq r1, 39, +14 <custom_panic+0x10b20>
   14309:	15 01 16 00 5c 00 00 00	jeq r1, 92, +22 <custom_panic+0x10b68>
   14310:	57 03 00 00 01 00 00 00	and64 r3, 1
   14311:	15 03 03 00 00 00 00 00	jeq r3, 0, +3 <custom_panic+0x10ae0>
   14312:	bf 71 00 00 00 00 00 00	mov64 r1, r7
   14313:	85 10 00 00 4a 0f 00 00	call 3914
   14314:	55 00 80 00 00 00 00 00	jne r0, 0, +128 <custom_panic+0x10ee0>
   14315:	bf 71 00 00 00 00 00 00	mov64 r1, r7
   14316:	85 10 00 00 f1 0b 00 00	call 3057
   14317:	55 00 01 00 00 00 00 00	jne r0, 0, +1 <custom_panic+0x10b00>
   14318:	05 00 14 00 00 00 00 00	ja +20 <custom_panic+0x10ba0>
   14319:	63 76 04 00 00 00 00 00	stxw [r6 + 4], r7
   14320:	b7 01 00 00 80 00 00 00	mov64 r1, 128
   14321:	73 16 00 00 00 00 00 00	stxb [r6 + 0], r1
   14322:	05 00 0f 00 00 00 00 00	ja +15 <custom_panic+0x10b98>
   14323:	bf 31 00 00 00 00 00 00	mov64 r1, r3
   14324:	57 01 00 00 00 01 00 00	and64 r1, 256
   14325:	15 01 f0 ff 00 00 00 00	jeq r1, 0, -16 <custom_panic+0x10ab8>
   14326:	b7 01 00 00 00 02 00 00	mov64 r1, 512
   14327:	6b 16 0a 00 00 00 00 00	stxh [r6 + 10], r1
   14328:	b7 01 00 00 00 00 00 00	mov64 r1, 0
   14329:	7b 16 02 00 00 00 00 00	stxdw [r6 + 2], r1
   14330:	b7 01 00 00 5c 27 00 00	mov64 r1, 10076
   14331:	05 00 05 00 00 00 00 00	ja +5 <custom_panic+0x10b90>
   14332:	b7 01 00 00 00 02 00 00	mov64 r1, 512
   14333:	6b 16 0a 00 00 00 00 00	stxh [r6 + 10], r1
   14334:	b7 01 00 00 00 00 00 00	mov64 r1, 0
   14335:	7b 16 02 00 00 00 00 00	stxdw [r6 + 2], r1
   14336:	b7 01 00 00 5c 5c 00 00	mov64 r1, 23644
   14337:	6b 16 00 00 00 00 00 00	stxh [r6 + 0], r1
   14338:	95 00 00 00 00 00 00 00	exit
   14339:	18 01 00 00 fc ff ff ff 00 00 00 00 00 00 00 00	lddw r1, 4294967292
   14341:	bf 72 00 00 00 00 00 00	mov64 r2, r7
   14342:	5f 12 00 00 00 00 00 00	and64 r2, r1
   14343:	77 02 00 00 01 00 00 00	rsh64 r2, 1
   14344:	bf 71 00 00 00 00 00 00	mov64 r1, r7
   14345:	4f 21 00 00 00 00 00 00	or64 r1, r2
   14346:	18 02 00 00 f8 ff ff ff 00 00 00 00 00 00 00 00	lddw r2, 4294967288
   14348:	bf 13 00 00 00 00 00 00	mov64 r3, r1
   14349:	5f 23 00 00 00 00 00 00	and64 r3, r2
   14350:	77 03 00 00 02 00 00 00	rsh64 r3, 2
   14351:	4f 31 00 00 00 00 00 00	or64 r1, r3
   14352:	b7 02 00 00 00 00 00 00	mov64 r2, 0
   14353:	73 2a f8 ff 00 00 00 00	stxb [r10 - 8], r2
   14354:	6b 2a f6 ff 00 00 00 00	stxh [r10 - 10], r2
   14355:	18 02 00 00 e0 ff ff ff 00 00 00 00 00 00 00 00	lddw r2, 4294967264
   14357:	bf 13 00 00 00 00 00 00	mov64 r3, r1
   14358:	5f 23 00 00 00 00 00 00	and64 r3, r2
   14359:	77 03 00 00 04 00 00 00	rsh64 r3, 4
   14360:	4f 31 00 00 00 00 00 00	or64 r1, r3
   14361:	bf 72 00 00 00 00 00 00	mov64 r2, r7
   14362:	77 02 00 00 04 00 00 00	rsh64 r2, 4
   14363:	57 02 00 00 0f 00 00 00	and64 r2, 15
   14364:	bf 74 00 00 00 00 00 00	mov64 r4, r7
   14365:	77 04 00 00 08 00 00 00	rsh64 r4, 8
   14366:	57 04 00 00 0f 00 00 00	and64 r4, 15
   14367:	bf 70 00 00 00 00 00 00	mov64 r0, r7
   14368:	77 00 00 00 0c 00 00 00	rsh64 r0, 12
   14369:	57 00 00 00 0f 00 00 00	and64 r0, 15
   14370:	bf 78 00 00 00 00 00 00	mov64 r8, r7
   14371:	77 08 00 00 10 00 00 00	rsh64 r8, 16
   14372:	57 08 00 00 0f 00 00 00	and64 r8, 15
   14373:	bf 75 00 00 00 00 00 00	mov64 r5, r7
   14374:	77 05 00 00 14 00 00 00	rsh64 r5, 20
   14375:	57 05 00 00 0f 00 00 00	and64 r5, 15
   14376:	18 09 00 00 47 54 02 00 00 00 00 00 00 00 00 00	lddw r9, 152647
   14378:	18 03 00 00 47 54 02 00 00 00 00 00 00 00 00 00	lddw r3, 152647
   14380:	0f 53 00 00 00 00 00 00	add64 r3, r5
   14381:	18 05 00 00 47 54 02 00 00 00 00 00 00 00 00 00	lddw r5, 152647
   14383:	0f 85 00 00 00 00 00 00	add64 r5, r8
   14384:	18 08 00 00 47 54 02 00 00 00 00 00 00 00 00 00	lddw r8, 152647
   14386:	0f 08 00 00 00 00 00 00	add64 r8, r0
   14387:	18 00 00 00 47 54 02 00 00 00 00 00 00 00 00 00	lddw r0, 152647
   14389:	0f 40 00 00 00 00 00 00	add64 r0, r4
   14390:	18 04 00 00 47 54 02 00 00 00 00 00 00 00 00 00	lddw r4, 152647
   14392:	0f 24 00 00 00 00 00 00	add64 r4, r2
   14393:	57 07 00 00 0f 00 00 00	and64 r7, 15
   14394:	0f 79 00 00 00 00 00 00	add64 r9, r7
   14395:	b7 02 00 00 7d 00 00 00	mov64 r2, 125
   14396:	73 2a ff ff 00 00 00 00	stxb [r10 - 1], r2
   14397:	71 92 00 00 00 00 00 00	ldxb r2, [r9 + 0]
   14398:	73 2a fe ff 00 00 00 00	stxb [r10 - 2], r2
   14399:	71 42 00 00 00 00 00 00	ldxb r2, [r4 + 0]
   14400:	73 2a fd ff 00 00 00 00	stxb [r10 - 3], r2
   14401:	71 02 00 00 00 00 00 00	ldxb r2, [r0 + 0]
   14402:	73 2a fc ff 00 00 00 00	stxb [r10 - 4], r2
   14403:	71 82 00 00 00 00 00 00	ldxb r2, [r8 + 0]
   14404:	73 2a fb ff 00 00 00 00	stxb [r10 - 5], r2
   14405:	71 52 00 00 00 00 00 00	ldxb r2, [r5 + 0]
   14406:	73 2a fa ff 00 00 00 00	stxb [r10 - 6], r2
   14407:	71 32 00 00 00 00 00 00	ldxb r2, [r3 + 0]
   14408:	73 2a f9 ff 00 00 00 00	stxb [r10 - 7], r2
   14409:	18 02 00 00 00 fe ff ff 00 00 00 00 00 00 00 00	lddw r2, 4294966784
   14411:	bf 13 00 00 00 00 00 00	mov64 r3, r1
   14412:	5f 23 00 00 00 00 00 00	and64 r3, r2
   14413:	77 03 00 00 08 00 00 00	rsh64 r3, 8
   14414:	4f 31 00 00 00 00 00 00	or64 r1, r3
   14415:	18 02 00 00 00 00 fe ff 00 00 00 00 00 00 00 00	lddw r2, 4294836224
   14417:	bf 13 00 00 00 00 00 00	mov64 r3, r1
   14418:	5f 23 00 00 00 00 00 00	and64 r3, r2
   14419:	77 03 00 00 10 00 00 00	rsh64 r3, 16
   14420:	4f 31 00 00 00 00 00 00	or64 r1, r3
   14421:	a7 01 00 00 ff ff ff ff	xor64 r1, -1
   14422:	bf 12 00 00 00 00 00 00	mov64 r2, r1
   14423:	57 02 00 00 fe ff ff ff	and64 r2, -2
   14424:	77 01 00 00 01 00 00 00	rsh64 r1, 1
   14425:	57 01 00 00 55 55 55 55	and64 r1, 1431655765
   14426:	1f 12 00 00 00 00 00 00	sub64 r2, r1
   14427:	bf 21 00 00 00 00 00 00	mov64 r1, r2
   14428:	57 01 00 00 33 33 33 33	and64 r1, 858993459
   14429:	77 02 00 00 02 00 00 00	rsh64 r2, 2
   14430:	57 02 00 00 33 33 33 33	and64 r2, 858993459
   14431:	0f 21 00 00 00 00 00 00	add64 r1, r2
   14432:	bf 12 00 00 00 00 00 00	mov64 r2, r1
   14433:	77 02 00 00 04 00 00 00	rsh64 r2, 4
   14434:	0f 21 00 00 00 00 00 00	add64 r1, r2
   14435:	57 01 00 00 0f 0f 0f 0f	and64 r1, 252645135
   14436:	27 01 00 00 01 01 01 01	mul64 r1, 16843009
   14437:	77 01 00 00 1a 00 00 00	rsh64 r1, 26
   14438:	57 01 00 00 3f 00 00 00	and64 r1, 63
   14439:	07 01 00 00 fe ff ff ff	add64 r1, -2
   14440:	b7 02 00 00 0b 00 00 00	mov64 r2, 11
   14441:	2d 12 6d 00 00 00 00 00	jgt r2, r1, +109 <custom_panic+0x11240>
   14442:	05 00 67 00 00 00 00 00	ja +103 <custom_panic+0x11218>
   14443:	18 01 00 00 fc ff ff ff 00 00 00 00 00 00 00 00	lddw r1, 4294967292
   14445:	bf 72 00 00 00 00 00 00	mov64 r2, r7
   14446:	5f 12 00 00 00 00 00 00	and64 r2, r1
   14447:	77 02 00 00 01 00 00 00	rsh64 r2, 1
   14448:	bf 71 00 00 00 00 00 00	mov64 r1, r7
   14449:	4f 21 00 00 00 00 00 00	or64 r1, r2
   14450:	18 02 00 00 f8 ff ff ff 00 00 00 00 00 00 00 00	lddw r2, 4294967288
   14452:	bf 13 00 00 00 00 00 00	mov64 r3, r1
   14453:	5f 23 00 00 00 00 00 00	and64 r3, r2
   14454:	77 03 00 00 02 00 00 00	rsh64 r3, 2
   14455:	4f 31 00 00 00 00 00 00	or64 r1, r3
   14456:	b7 02 00 00 00 00 00 00	mov64 r2, 0
   14457:	73 2a f8 ff 00 00 00 00	stxb [r10 - 8], r2
   14458:	6b 2a f6 ff 00 00 00 00	stxh [r10 - 10], r2
   14459:	18 02 00 00 e0 ff ff ff 00 00 00 00 00 00 00 00	lddw r2, 4294967264
   14461:	bf 13 00 00 00 00 00 00	mov64 r3, r1
   14462:	5f 23 00 00 00 00 00 00	and64 r3, r2
   14463:	77 03 00 00 04 00 00 00	rsh64 r3, 4
   14464:	4f 31 00 00 00 00 00 00	or64 r1, r3
   14465:	bf 72 00 00 00 00 00 00	mov64 r2, r7
   14466:	77 02 00 00 04 00 00 00	rsh64 r2, 4
   14467:	57 02 00 00 0f 00 00 00	and64 r2, 15
   14468:	bf 74 00 00 00 00 00 00	mov64 r4, r7
   14469:	77 04 00 00 08 00 00 00	rsh64 r4, 8
   14470:	57 04 00 00 0f 00 00 00	and64 r4, 15
   14471:	bf 70 00 00 00 00 00 00	mov64 r0, r7
   14472:	77 00 00 00 0c 00 00 00	rsh64 r0, 12
   14473:	57 00 00 00 0f 00 00 00	and64 r0, 15
   14474:	bf 78 00 00 00 00 00 00	mov64 r8, r7
   14475:	77 08 00 00 10 00 00 00	rsh64 r8, 16
   14476:	57 08 00 00 0f 00 00 00	and64 r8, 15
   14477:	bf 75 00 00 00 00 00 00	mov64 r5, r7
   14478:	77 05 00 00 14 00 00 00	rsh64 r5, 20
   14479:	57 05 00 00 0f 00 00 00	and64 r5, 15
   14480:	18 09 00 00 47 54 02 00 00 00 00 00 00 00 00 00	lddw r9, 152647
   14482:	18 03 00 00 47 54 02 00 00 00 00 00 00 00 00 00	lddw r3, 152647
   14484:	0f 53 00 00 00 00 00 00	add64 r3, r5
   14485:	18 05 00 00 47 54 02 00 00 00 00 00 00 00 00 00	lddw r5, 152647
   14487:	0f 85 00 00 00 00 00 00	add64 r5, r8
   14488:	18 08 00 00 47 54 02 00 00 00 00 00 00 00 00 00	lddw r8, 152647
   14490:	0f 08 00 00 00 00 00 00	add64 r8, r0
   14491:	18 00 00 00 47 54 02 00 00 00 00 00 00 00 00 00	lddw r0, 152647
   14493:	0f 40 00 00 00 00 00 00	add64 r0, r4
   14494:	18 04 00 00 47 54 02 00 00 00 00 00 00 00 00 00	lddw r4, 152647
   14496:	0f 24 00 00 00 00 00 00	add64 r4, r2
   14497:	57 07 00 00 0f 00 00 00	and64 r7, 15
   14498:	0f 79 00 00 00 00 00 00	add64 r9, r7
   14499:	b7 02 00 00 7d 00 00 00	mov64 r2, 125
   14500:	73 2a ff ff 00 00 00 00	stxb [r10 - 1], r2
   14501:	71 92 00 00 00 00 00 00	ldxb r2, [r9 + 0]
   14502:	73 2a fe ff 00 00 00 00	stxb [r10 - 2], r2
   14503:	71 42 00 00 00 00 00 00	ldxb r2, [r4 + 0]
   14504:	73 2a fd ff 00 00 00 00	stxb [r10 - 3], r2
   14505:	71 02 00 00 00 00 00 00	ldxb r2, [r0 + 0]
   14506:	73 2a fc ff 00 00 00 00	stxb [r10 - 4], r2
   14507:	71 82 00 00 00 00 00 00	ldxb r2, [r8 + 0]
   14508:	73 2a fb ff 00 00 00 00	stxb [r10 - 5], r2
   14509:	71 52 00 00 00 00 00 00	ldxb r2, [r5 + 0]
   14510:	73 2a fa ff 00 00 00 00	stxb [r10 - 6], r2
   14511:	71 32 00 00 00 00 00 00	ldxb r2, [r3 + 0]
   14512:	73 2a f9 ff 00 00 00 00	stxb [r10 - 7], r2
   14513:	18 02 00 00 00 fe ff ff 00 00 00 00 00 00 00 00	lddw r2, 4294966784
   14515:	bf 13 00 00 00 00 00 00	mov64 r3, r1
   14516:	5f 23 00 00 00 00 00 00	and64 r3, r2
   14517:	77 03 00 00 08 00 00 00	rsh64 r3, 8
   14518:	4f 31 00 00 00 00 00 00	or64 r1, r3
   14519:	18 02 00 00 00 00 fe ff 00 00 00 00 00 00 00 00	lddw r2, 4294836224
   14521:	bf 13 00 00 00 00 00 00	mov64 r3, r1
   14522:	5f 23 00 00 00 00 00 00	and64 r3, r2
   14523:	77 03 00 00 10 00 00 00	rsh64 r3, 16
   14524:	4f 31 00 00 00 00 00 00	or64 r1, r3
   14525:	a7 01 00 00 ff ff ff ff	xor64 r1, -1
   14526:	bf 12 00 00 00 00 00 00	mov64 r2, r1
   14527:	57 02 00 00 fe ff ff ff	and64 r2, -2
   14528:	77 01 00 00 01 00 00 00	rsh64 r1, 1
   14529:	57 01 00 00 55 55 55 55	and64 r1, 1431655765
   14530:	1f 12 00 00 00 00 00 00	sub64 r2, r1
   14531:	bf 21 00 00 00 00 00 00	mov64 r1, r2
   14532:	57 01 00 00 33 33 33 33	and64 r1, 858993459
   14533:	77 02 00 00 02 00 00 00	rsh64 r2, 2
   14534:	57 02 00 00 33 33 33 33	and64 r2, 858993459
   14535:	0f 21 00 00 00 00 00 00	add64 r1, r2
   14536:	bf 12 00 00 00 00 00 00	mov64 r2, r1
   14537:	77 02 00 00 04 00 00 00	rsh64 r2, 4
   14538:	0f 21 00 00 00 00 00 00	add64 r1, r2
   14539:	57 01 00 00 0f 0f 0f 0f	and64 r1, 252645135
   14540:	27 01 00 00 01 01 01 01	mul64 r1, 16843009
   14541:	77 01 00 00 1a 00 00 00	rsh64 r1, 26
   14542:	57 01 00 00 3f 00 00 00	and64 r1, 63
   14543:	07 01 00 00 fe ff ff ff	add64 r1, -2
   14544:	b7 02 00 00 0b 00 00 00	mov64 r2, 11
   14545:	2d 12 05 00 00 00 00 00	jgt r2, r1, +5 <custom_panic+0x11240>
   14546:	b7 02 00 00 0a 00 00 00	mov64 r2, 10
   14547:	18 03 00 00 a8 8c 02 00 00 00 00 00 00 00 00 00	lddw r3, 167080
   14549:	85 10 00 00 5e 07 00 00	call 1886
   14550:	85 10 00 00 ff ff ff ff	call -1
   14551:	bf a2 00 00 00 00 00 00	mov64 r2, r10
   14552:	07 02 00 00 f6 ff ff ff	add64 r2, -10
   14553:	0f 12 00 00 00 00 00 00	add64 r2, r1
   14554:	b7 03 00 00 7b 00 00 00	mov64 r3, 123
   14555:	73 32 02 00 00 00 00 00	stxb [r2 + 2], r3
   14556:	b7 03 00 00 5c 75 00 00	mov64 r3, 30044
   14557:	6b 32 00 00 00 00 00 00	stxh [r2 + 0], r3
   14558:	69 a2 fe ff 00 00 00 00	ldxh r2, [r10 - 2]
   14559:	6b 26 08 00 00 00 00 00	stxh [r6 + 8], r2
   14560:	79 a2 f6 ff 00 00 00 00	ldxdw r2, [r10 - 10]
   14561:	7b 26 00 00 00 00 00 00	stxdw [r6 + 0], r2
   14562:	b7 02 00 00 0a 00 00 00	mov64 r2, 10
   14563:	73 26 0b 00 00 00 00 00	stxb [r6 + 11], r2
   14564:	73 16 0a 00 00 00 00 00	stxb [r6 + 10], r1
   14565:	05 00 1c ff 00 00 00 00	ja -228 <custom_panic+0x10b98>
   14566:	bf 18 00 00 00 00 00 00	mov64 r8, r1
   14567:	79 26 20 00 00 00 00 00	ldxdw r6, [r2 + 32]
   14568:	79 27 28 00 00 00 00 00	ldxdw r7, [r2 + 40]
   14569:	79 74 18 00 00 00 00 00	ldxdw r4, [r7 + 24]
   14570:	bf 61 00 00 00 00 00 00	mov64 r1, r6
   14571:	18 02 00 00 3d 6c 02 00 00 00 00 00 00 00 00 00	lddw r2, 158781
   14573:	b7 03 00 00 0c 00 00 00	mov64 r3, 12
   14574:	8d 00 00 00 04 00 00 00	callx r4
   14575:	b7 09 00 00 01 00 00 00	mov64 r9, 1
   14576:	55 00 4c 00 00 00 00 00	jne r0, 0, +76 <custom_panic+0x11570>
   14577:	79 81 18 00 00 00 00 00	ldxdw r1, [r8 + 24]
   14578:	15 01 19 00 00 00 00 00	jeq r1, 0, +25 <custom_panic+0x113e8>
   14579:	7b 1a 98 ff 00 00 00 00	stxdw [r10 - 104], r1
   14580:	18 01 00 00 70 37 02 00 00 00 00 00 00 00 00 00	lddw r1, 145264
   14582:	7b 1a a8 ff 00 00 00 00	stxdw [r10 - 88], r1
   14583:	bf a1 00 00 00 00 00 00	mov64 r1, r10
   14584:	07 01 00 00 98 ff ff ff	add64 r1, -104
   14585:	7b 1a a0 ff 00 00 00 00	stxdw [r10 - 96], r1
   14586:	b7 01 00 00 00 00 00 00	mov64 r1, 0
   14587:	7b 1a f0 ff 00 00 00 00	stxdw [r10 - 16], r1
   14588:	bf a1 00 00 00 00 00 00	mov64 r1, r10
   14589:	07 01 00 00 a0 ff ff ff	add64 r1, -96
   14590:	7b 1a e0 ff 00 00 00 00	stxdw [r10 - 32], r1
   14591:	b7 01 00 00 02 00 00 00	mov64 r1, 2
   14592:	7b 1a d8 ff 00 00 00 00	stxdw [r10 - 40], r1
   14593:	18 01 00 00 08 89 02 00 00 00 00 00 00 00 00 00	lddw r1, 166152
   14595:	7b 1a d0 ff 00 00 00 00	stxdw [r10 - 48], r1
   14596:	7b 9a e8 ff 00 00 00 00	stxdw [r10 - 24], r9
   14597:	bf a3 00 00 00 00 00 00	mov64 r3, r10
   14598:	07 03 00 00 d0 ff ff ff	add64 r3, -48
   14599:	bf 61 00 00 00 00 00 00	mov64 r1, r6
   14600:	bf 72 00 00 00 00 00 00	mov64 r2, r7
   14601:	85 10 00 00 25 03 00 00	call 805
   14602:	55 00 32 00 00 00 00 00	jne r0, 0, +50 <custom_panic+0x11570>
   14603:	05 00 11 00 00 00 00 00	ja +17 <custom_panic+0x11470>
   14604:	79 89 00 00 00 00 00 00	ldxdw r9, [r8 + 0]
   14605:	79 81 08 00 00 00 00 00	ldxdw r1, [r8 + 8]
   14606:	79 13 18 00 00 00 00 00	ldxdw r3, [r1 + 24]
   14607:	bf a1 00 00 00 00 00 00	mov64 r1, r10
   14608:	07 01 00 00 88 ff ff ff	add64 r1, -120
   14609:	bf 92 00 00 00 00 00 00	mov64 r2, r9
   14610:	8d 00 00 00 03 00 00 00	callx r3
   14611:	18 01 00 00 64 ef b1 00 00 00 00 00 81 16 bc fd	lddw r1, -163230743173927068
   14613:	79 a2 90 ff 00 00 00 00	ldxdw r2, [r10 - 112]
   14614:	af 12 00 00 00 00 00 00	xor64 r2, r1
   14615:	18 01 00 00 c1 7b 1e cd 00 00 00 00 9c c8 a2 c1	lddw r1, -4493808902380553279
   14617:	79 a3 88 ff 00 00 00 00	ldxdw r3, [r10 - 120]
   14618:	af 13 00 00 00 00 00 00	xor64 r3, r1
   14619:	4f 23 00 00 00 00 00 00	or64 r3, r2
   14620:	15 03 22 00 00 00 00 00	jeq r3, 0, +34 <custom_panic+0x11580>
   14621:	79 81 10 00 00 00 00 00	ldxdw r1, [r8 + 16]
   14622:	bf 12 00 00 00 00 00 00	mov64 r2, r1
   14623:	07 02 00 00 14 00 00 00	add64 r2, 20
   14624:	7b 2a c0 ff 00 00 00 00	stxdw [r10 - 64], r2
   14625:	18 02 00 00 00 34 02 00 00 00 00 00 00 00 00 00	lddw r2, 144384
   14627:	7b 2a c8 ff 00 00 00 00	stxdw [r10 - 56], r2
   14628:	7b 2a b8 ff 00 00 00 00	stxdw [r10 - 72], r2
   14629:	bf 12 00 00 00 00 00 00	mov64 r2, r1
   14630:	07 02 00 00 10 00 00 00	add64 r2, 16
   14631:	7b 2a b0 ff 00 00 00 00	stxdw [r10 - 80], r2
   14632:	18 02 00 00 40 37 02 00 00 00 00 00 00 00 00 00	lddw r2, 145216
   14634:	7b 2a a8 ff 00 00 00 00	stxdw [r10 - 88], r2
   14635:	7b 1a a0 ff 00 00 00 00	stxdw [r10 - 96], r1
   14636:	b7 01 00 00 00 00 00 00	mov64 r1, 0
   14637:	7b 1a f0 ff 00 00 00 00	stxdw [r10 - 16], r1
   14638:	bf a1 00 00 00 00 00 00	mov64 r1, r10
   14639:	07 01 00 00 a0 ff ff ff	add64 r1, -96
   14640:	7b 1a e0 ff 00 00 00 00	stxdw [r10 - 32], r1
   14641:	b7 01 00 00 03 00 00 00	mov64 r1, 3
   14642:	7b 1a e8 ff 00 00 00 00	stxdw [r10 - 24], r1
   14643:	7b 1a d8 ff 00 00 00 00	stxdw [r10 - 40], r1
   14644:	18 01 00 00 d8 88 02 00 00 00 00 00 00 00 00 00	lddw r1, 166104
   14646:	7b 1a d0 ff 00 00 00 00	stxdw [r10 - 48], r1
   14647:	bf a3 00 00 00 00 00 00	mov64 r3, r10
   14648:	07 03 00 00 d0 ff ff ff	add64 r3, -48
   14649:	bf 61 00 00 00 00 00 00	mov64 r1, r6
   14650:	bf 72 00 00 00 00 00 00	mov64 r2, r7
   14651:	85 10 00 00 f3 02 00 00	call 755
   14652:	bf 09 00 00 00 00 00 00	mov64 r9, r0
   14653:	bf 90 00 00 00 00 00 00	mov64 r0, r9
   14654:	95 00 00 00 00 00 00 00	exit
   14655:	7b 9a 98 ff 00 00 00 00	stxdw [r10 - 104], r9
   14656:	18 01 00 00 08 37 02 00 00 00 00 00 00 00 00 00	lddw r1, 145160
   14658:	7b 1a a8 ff 00 00 00 00	stxdw [r10 - 88], r1
   14659:	bf a1 00 00 00 00 00 00	mov64 r1, r10
   14660:	07 01 00 00 98 ff ff ff	add64 r1, -104
   14661:	7b 1a a0 ff 00 00 00 00	stxdw [r10 - 96], r1
   14662:	b7 01 00 00 00 00 00 00	mov64 r1, 0
   14663:	7b 1a f0 ff 00 00 00 00	stxdw [r10 - 16], r1
   14664:	bf a1 00 00 00 00 00 00	mov64 r1, r10
   14665:	07 01 00 00 a0 ff ff ff	add64 r1, -96
   14666:	7b 1a e0 ff 00 00 00 00	stxdw [r10 - 32], r1
   14667:	b7 01 00 00 02 00 00 00	mov64 r1, 2
   14668:	7b 1a d8 ff 00 00 00 00	stxdw [r10 - 40], r1
   14669:	18 01 00 00 08 89 02 00 00 00 00 00 00 00 00 00	lddw r1, 166152
   14671:	7b 1a d0 ff 00 00 00 00	stxdw [r10 - 48], r1
   14672:	b7 09 00 00 01 00 00 00	mov64 r9, 1
   14673:	7b 9a e8 ff 00 00 00 00	stxdw [r10 - 24], r9
   14674:	bf a3 00 00 00 00 00 00	mov64 r3, r10
   14675:	07 03 00 00 d0 ff ff ff	add64 r3, -48
   14676:	bf 61 00 00 00 00 00 00	mov64 r1, r6
   14677:	bf 72 00 00 00 00 00 00	mov64 r2, r7
   14678:	85 10 00 00 d8 02 00 00	call 728
   14679:	55 00 e5 ff 00 00 00 00	jne r0, 0, -27 <custom_panic+0x11570>
   14680:	05 00 c4 ff 00 00 00 00	ja -60 <custom_panic+0x11470>
   14681:	7b 1a f0 ff 00 00 00 00	stxdw [r10 - 16], r1
   14682:	18 01 00 00 28 89 02 00 00 00 00 00 00 00 00 00	lddw r1, 166184
   14684:	7b 1a e0 ff 00 00 00 00	stxdw [r10 - 32], r1
   14685:	18 01 00 00 e8 6b 02 00 00 00 00 00 00 00 00 00	lddw r1, 158696
   14687:	7b 1a d8 ff 00 00 00 00	stxdw [r10 - 40], r1
   14688:	b7 01 00 00 01 00 00 00	mov64 r1, 1
   14689:	73 1a f8 ff 00 00 00 00	stxb [r10 - 8], r1
   14690:	7b 2a e8 ff 00 00 00 00	stxdw [r10 - 24], r2
   14691:	bf a1 00 00 00 00 00 00	mov64 r1, r10
   14692:	07 01 00 00 d8 ff ff ff	add64 r1, -40
   14693:	85 10 00 00 85 fb ff ff	call -1147
   14694:	85 10 00 00 ff ff ff ff	call -1
   14695:	b7 04 00 00 01 00 00 00	mov64 r4, 1
   14696:	7b 4a c8 ff 00 00 00 00	stxdw [r10 - 56], r4
   14697:	bf a4 00 00 00 00 00 00	mov64 r4, r10
   14698:	07 04 00 00 f0 ff ff ff	add64 r4, -16
   14699:	7b 4a c0 ff 00 00 00 00	stxdw [r10 - 64], r4
   14700:	b7 04 00 00 00 00 00 00	mov64 r4, 0
   14701:	7b 4a e0 ff 00 00 00 00	stxdw [r10 - 32], r4
   14702:	7b 4a d8 ff 00 00 00 00	stxdw [r10 - 40], r4
   14703:	18 04 00 00 e8 6b 02 00 00 00 00 00 00 00 00 00	lddw r4, 158696
   14705:	7b 4a d0 ff 00 00 00 00	stxdw [r10 - 48], r4
   14706:	7b 2a f8 ff 00 00 00 00	stxdw [r10 - 8], r2
   14707:	7b 1a f0 ff 00 00 00 00	stxdw [r10 - 16], r1
   14708:	bf a1 00 00 00 00 00 00	mov64 r1, r10
   14709:	07 01 00 00 c0 ff ff ff	add64 r1, -64
   14710:	bf 32 00 00 00 00 00 00	mov64 r2, r3
   14711:	85 10 00 00 e1 ff ff ff	call -31
   14712:	85 10 00 00 ff ff ff ff	call -1
   14713:	7b 2a a8 ff 00 00 00 00	stxdw [r10 - 88], r2
   14714:	7b 1a a0 ff 00 00 00 00	stxdw [r10 - 96], r1
   14715:	b7 01 00 00 00 00 00 00	mov64 r1, 0
   14716:	7b 1a d0 ff 00 00 00 00	stxdw [r10 - 48], r1
   14717:	18 01 00 00 48 89 02 00 00 00 00 00 00 00 00 00	lddw r1, 166216
   14719:	7b 1a b0 ff 00 00 00 00	stxdw [r10 - 80], r1
   14720:	b7 01 00 00 02 00 00 00	mov64 r1, 2
   14721:	7b 1a b8 ff 00 00 00 00	stxdw [r10 - 72], r1
   14722:	7b 1a c8 ff 00 00 00 00	stxdw [r10 - 56], r1
   14723:	bf a1 00 00 00 00 00 00	mov64 r1, r10
   14724:	07 01 00 00 e0 ff ff ff	add64 r1, -32
   14725:	7b 1a c0 ff 00 00 00 00	stxdw [r10 - 64], r1
   14726:	bf a1 00 00 00 00 00 00	mov64 r1, r10
   14727:	07 01 00 00 a0 ff ff ff	add64 r1, -96
   14728:	7b 1a f0 ff 00 00 00 00	stxdw [r10 - 16], r1
   14729:	18 01 00 00 28 34 02 00 00 00 00 00 00 00 00 00	lddw r1, 144424
   14731:	7b 1a f8 ff 00 00 00 00	stxdw [r10 - 8], r1
   14732:	7b 1a e8 ff 00 00 00 00	stxdw [r10 - 24], r1
   14733:	bf a1 00 00 00 00 00 00	mov64 r1, r10
   14734:	07 01 00 00 a8 ff ff ff	add64 r1, -88
   14735:	7b 1a e0 ff 00 00 00 00	stxdw [r10 - 32], r1
   14736:	bf a1 00 00 00 00 00 00	mov64 r1, r10
   14737:	07 01 00 00 b0 ff ff ff	add64 r1, -80
   14738:	bf 32 00 00 00 00 00 00	mov64 r2, r3
   14739:	85 10 00 00 c5 ff ff ff	call -59
   14740:	85 10 00 00 ff ff ff ff	call -1
   14741:	7b 2a 98 ff 00 00 00 00	stxdw [r10 - 104], r2
   14742:	7b 1a 90 ff 00 00 00 00	stxdw [r10 - 112], r1
   14743:	7b 4a a8 ff 00 00 00 00	stxdw [r10 - 88], r4
   14744:	7b 3a a0 ff 00 00 00 00	stxdw [r10 - 96], r3
   14745:	b7 01 00 00 00 00 00 00	mov64 r1, 0
   14746:	7b 1a d0 ff 00 00 00 00	stxdw [r10 - 48], r1
   14747:	18 01 00 00 68 89 02 00 00 00 00 00 00 00 00 00	lddw r1, 166248
   14749:	7b 1a b0 ff 00 00 00 00	stxdw [r10 - 80], r1
   14750:	b7 01 00 00 02 00 00 00	mov64 r1, 2
   14751:	7b 1a b8 ff 00 00 00 00	stxdw [r10 - 72], r1
   14752:	7b 1a c8 ff 00 00 00 00	stxdw [r10 - 56], r1
   14753:	bf a1 00 00 00 00 00 00	mov64 r1, r10
   14754:	07 01 00 00 e0 ff ff ff	add64 r1, -32
   14755:	7b 1a c0 ff 00 00 00 00	stxdw [r10 - 64], r1
   14756:	18 01 00 00 d8 36 02 00 00 00 00 00 00 00 00 00	lddw r1, 145112
   14758:	7b 1a f8 ff 00 00 00 00	stxdw [r10 - 8], r1
   14759:	bf a1 00 00 00 00 00 00	mov64 r1, r10
   14760:	07 01 00 00 a0 ff ff ff	add64 r1, -96
   14761:	7b 1a f0 ff 00 00 00 00	stxdw [r10 - 16], r1
   14762:	18 01 00 00 40 37 02 00 00 00 00 00 00 00 00 00	lddw r1, 145216
   14764:	7b 1a e8 ff 00 00 00 00	stxdw [r10 - 24], r1
   14765:	bf a1 00 00 00 00 00 00	mov64 r1, r10
   14766:	07 01 00 00 90 ff ff ff	add64 r1, -112
   14767:	7b 1a e0 ff 00 00 00 00	stxdw [r10 - 32], r1
   14768:	bf a1 00 00 00 00 00 00	mov64 r1, r10
   14769:	07 01 00 00 b0 ff ff ff	add64 r1, -80
   14770:	bf 52 00 00 00 00 00 00	mov64 r2, r5
   14771:	85 10 00 00 a5 ff ff ff	call -91
   14772:	85 10 00 00 ff ff ff ff	call -1
   14773:	bf 39 00 00 00 00 00 00	mov64 r9, r3
   14774:	7b 2a f0 ff 00 00 00 00	stxdw [r10 - 16], r2
   14775:	b7 06 00 00 00 00 00 00	mov64 r6, 0
   14776:	79 12 08 00 00 00 00 00	ldxdw r2, [r1 + 8]
   14777:	7b 2a d8 ff 00 00 00 00	stxdw [r10 - 40], r2
   14778:	79 12 00 00 00 00 00 00	ldxdw r2, [r1 + 0]
   14779:	7b 2a d0 ff 00 00 00 00	stxdw [r10 - 48], r2
   14780:	79 11 10 00 00 00 00 00	ldxdw r1, [r1 + 16]
   14781:	7b 1a e0 ff 00 00 00 00	stxdw [r10 - 32], r1
   14782:	b7 01 00 00 00 00 00 00	mov64 r1, 0
   14783:	7b 1a f8 ff 00 00 00 00	stxdw [r10 - 8], r1
   14784:	b7 07 00 00 00 00 00 00	mov64 r7, 0
   14785:	05 00 0c 00 00 00 00 00	ja +12 <custom_panic+0x119f8>
   14786:	57 01 00 00 01 00 00 00	and64 r1, 1
   14787:	79 a4 e0 ff 00 00 00 00	ldxdw r4, [r10 - 32]
   14788:	73 14 00 00 00 00 00 00	stxb [r4 + 0], r1
   14789:	79 a1 d8 ff 00 00 00 00	ldxdw r1, [r10 - 40]
   14790:	79 14 18 00 00 00 00 00	ldxdw r4, [r1 + 24]
   14791:	79 a1 d0 ff 00 00 00 00	ldxdw r1, [r10 - 48]
   14792:	8d 00 00 00 04 00 00 00	callx r4
   14793:	bf 01 00 00 00 00 00 00	mov64 r1, r0
   14794:	b7 00 00 00 01 00 00 00	mov64 r0, 1
   14795:	79 a2 e8 ff 00 00 00 00	ldxdw r2, [r10 - 24]
   14796:	7b 2a f8 ff 00 00 00 00	stxdw [r10 - 8], r2
   14797:	55 01 8a 00 00 00 00 00	jne r1, 0, +138 <custom_panic+0x11e48>
   14798:	57 07 00 00 ff 00 00 00	and64 r7, 255
   14799:	b7 00 00 00 00 00 00 00	mov64 r0, 0
   14800:	55 07 87 00 00 00 00 00	jne r7, 0, +135 <custom_panic+0x11e48>
   14801:	2d 96 65 00 00 00 00 00	jgt r6, r9, +101 <custom_panic+0x11d40>
   14802:	bf 61 00 00 00 00 00 00	mov64 r1, r6
   14803:	79 a2 f0 ff 00 00 00 00	ldxdw r2, [r10 - 16]
   14804:	0f 12 00 00 00 00 00 00	add64 r2, r1
   14805:	bf 93 00 00 00 00 00 00	mov64 r3, r9
   14806:	1f 13 00 00 00 00 00 00	sub64 r3, r1
   14807:	b7 04 00 00 10 00 00 00	mov64 r4, 16
   14808:	2d 34 42 00 00 00 00 00	jgt r4, r3, +66 <custom_panic+0x11c60>
   14809:	bf 26 00 00 00 00 00 00	mov64 r6, r2
   14810:	07 06 00 00 07 00 00 00	add64 r6, 7
   14811:	57 06 00 00 f8 ff ff ff	and64 r6, -8
   14812:	bf 64 00 00 00 00 00 00	mov64 r4, r6
   14813:	1f 24 00 00 00 00 00 00	sub64 r4, r2
   14814:	15 04 07 00 00 00 00 00	jeq r4, 0, +7 <custom_panic+0x11ab8>
   14815:	b7 05 00 00 00 00 00 00	mov64 r5, 0
   14816:	bf 20 00 00 00 00 00 00	mov64 r0, r2
   14817:	0f 50 00 00 00 00 00 00	add64 r0, r5
   14818:	71 00 00 00 00 00 00 00	ldxb r0, [r0 + 0]
   14819:	15 00 44 00 0a 00 00 00	jeq r0, 10, +68 <custom_panic+0x11cc8>
   14820:	07 05 00 00 01 00 00 00	add64 r5, 1
   14821:	2d 54 fa ff 00 00 00 00	jgt r4, r5, -6 <custom_panic+0x11a88>
   14822:	bf 35 00 00 00 00 00 00	mov64 r5, r3
   14823:	07 05 00 00 f0 ff ff ff	add64 r5, -16
   14824:	18 08 00 00 0a 0a 0a 0a 00 00 00 00 0a 0a 0a 0a	lddw r8, 723401728380766730
   14826:	2d 54 23 00 00 00 00 00	jgt r4, r5, +35 <custom_panic+0x11bf8>
   14827:	b7 00 00 00 08 00 00 00	mov64 r0, 8
   14828:	0f 60 00 00 00 00 00 00	add64 r0, r6
   14829:	05 00 11 00 00 00 00 00	ja +17 <custom_panic+0x11b80>
   14830:	79 06 00 00 00 00 00 00	ldxdw r6, [r0 + 0]
   14831:	bf 67 00 00 00 00 00 00	mov64 r7, r6
   14832:	af 87 00 00 00 00 00 00	xor64 r7, r8
   14833:	18 08 00 00 ff fe fe fe 00 00 00 00 fe fe fe fe	lddw r8, -72340172838076673
   14835:	0f 87 00 00 00 00 00 00	add64 r7, r8
   14836:	18 08 00 00 0a 0a 0a 0a 00 00 00 00 0a 0a 0a 0a	lddw r8, 723401728380766730
   14838:	a7 06 00 00 ff ff ff ff	xor64 r6, -1
   14839:	5f 76 00 00 00 00 00 00	and64 r6, r7
   14840:	18 07 00 00 80 80 80 80 00 00 00 00 80 80 80 80	lddw r7, -9187201950435737472
   14842:	5f 76 00 00 00 00 00 00	and64 r6, r7
   14843:	55 06 12 00 00 00 00 00	jne r6, 0, +18 <custom_panic+0x11bf8>
   14844:	07 00 00 00 10 00 00 00	add64 r0, 16
   14845:	07 04 00 00 10 00 00 00	add64 r4, 16
   14846:	2d 54 0f 00 00 00 00 00	jgt r4, r5, +15 <custom_panic+0x11bf8>
   14847:	79 06 f8 ff 00 00 00 00	ldxdw r6, [r0 - 8]
   14848:	bf 67 00 00 00 00 00 00	mov64 r7, r6
   14849:	af 87 00 00 00 00 00 00	xor64 r7, r8
   14850:	18 08 00 00 ff fe fe fe 00 00 00 00 fe fe fe fe	lddw r8, -72340172838076673
   14852:	0f 87 00 00 00 00 00 00	add64 r7, r8
   14853:	18 08 00 00 0a 0a 0a 0a 00 00 00 00 0a 0a 0a 0a	lddw r8, 723401728380766730
   14855:	a7 06 00 00 ff ff ff ff	xor64 r6, -1
   14856:	5f 76 00 00 00 00 00 00	and64 r6, r7
   14857:	18 07 00 00 80 80 80 80 00 00 00 00 80 80 80 80	lddw r7, -9187201950435737472
   14859:	5f 76 00 00 00 00 00 00	and64 r6, r7
   14860:	55 06 01 00 00 00 00 00	jne r6, 0, +1 <custom_panic+0x11bf8>
   14861:	05 00 e0 ff 00 00 00 00	ja -32 <custom_panic+0x11af8>
   14862:	bf 96 00 00 00 00 00 00	mov64 r6, r9
   14863:	1d 43 27 00 00 00 00 00	jeq r3, r4, +39 <custom_panic+0x11d40>
   14864:	1f 43 00 00 00 00 00 00	sub64 r3, r4
   14865:	0f 42 00 00 00 00 00 00	add64 r2, r4
   14866:	b7 05 00 00 00 00 00 00	mov64 r5, 0
   14867:	bf 20 00 00 00 00 00 00	mov64 r0, r2
   14868:	0f 50 00 00 00 00 00 00	add64 r0, r5
   14869:	71 00 00 00 00 00 00 00	ldxb r0, [r0 + 0]
   14870:	15 00 0f 00 0a 00 00 00	jeq r0, 10, +15 <custom_panic+0x11cb8>
   14871:	07 05 00 00 01 00 00 00	add64 r5, 1
   14872:	bf 96 00 00 00 00 00 00	mov64 r6, r9
   14873:	2d 53 f9 ff 00 00 00 00	jgt r3, r5, -7 <custom_panic+0x11c20>
   14874:	05 00 1c 00 00 00 00 00	ja +28 <custom_panic+0x11d40>
   14875:	bf 96 00 00 00 00 00 00	mov64 r6, r9
   14876:	1d 91 1a 00 00 00 00 00	jeq r1, r9, +26 <custom_panic+0x11d40>
   14877:	b7 05 00 00 00 00 00 00	mov64 r5, 0
   14878:	bf 24 00 00 00 00 00 00	mov64 r4, r2
   14879:	0f 54 00 00 00 00 00 00	add64 r4, r5
   14880:	71 44 00 00 00 00 00 00	ldxb r4, [r4 + 0]
   14881:	15 04 06 00 0a 00 00 00	jeq r4, 10, +6 <custom_panic+0x11cc8>
   14882:	07 05 00 00 01 00 00 00	add64 r5, 1
   14883:	bf 96 00 00 00 00 00 00	mov64 r6, r9
   14884:	2d 53 f9 ff 00 00 00 00	jgt r3, r5, -7 <custom_panic+0x11c78>
   14885:	05 00 11 00 00 00 00 00	ja +17 <custom_panic+0x11d40>
   14886:	0f 54 00 00 00 00 00 00	add64 r4, r5
   14887:	bf 45 00 00 00 00 00 00	mov64 r5, r4
   14888:	0f 51 00 00 00 00 00 00	add64 r1, r5
   14889:	bf 16 00 00 00 00 00 00	mov64 r6, r1
   14890:	07 06 00 00 01 00 00 00	add64 r6, 1
   14891:	2d 19 03 00 00 00 00 00	jgt r9, r1, +3 <custom_panic+0x11d00>
   14892:	bf 61 00 00 00 00 00 00	mov64 r1, r6
   14893:	2d 96 09 00 00 00 00 00	jgt r6, r9, +9 <custom_panic+0x11d40>
   14894:	05 00 a4 ff 00 00 00 00	ja -92 <custom_panic+0x11a20>
   14895:	79 a2 f0 ff 00 00 00 00	ldxdw r2, [r10 - 16]
   14896:	0f 12 00 00 00 00 00 00	add64 r2, r1
   14897:	b7 07 00 00 00 00 00 00	mov64 r7, 0
   14898:	71 21 00 00 00 00 00 00	ldxb r1, [r2 + 0]
   14899:	7b 6a e8 ff 00 00 00 00	stxdw [r10 - 24], r6
   14900:	bf 68 00 00 00 00 00 00	mov64 r8, r6
   14901:	15 01 07 00 0a 00 00 00	jeq r1, 10, +7 <custom_panic+0x11d70>
   14902:	05 00 f5 ff 00 00 00 00	ja -11 <custom_panic+0x11ce8>
   14903:	b7 07 00 00 01 00 00 00	mov64 r7, 1
   14904:	79 a1 f8 ff 00 00 00 00	ldxdw r1, [r10 - 8]
   14905:	7b 1a e8 ff 00 00 00 00	stxdw [r10 - 24], r1
   14906:	bf 98 00 00 00 00 00 00	mov64 r8, r9
   14907:	b7 00 00 00 00 00 00 00	mov64 r0, 0
   14908:	1d 91 1b 00 00 00 00 00	jeq r1, r9, +27 <custom_panic+0x11e48>
   14909:	79 a1 e0 ff 00 00 00 00	ldxdw r1, [r10 - 32]
   14910:	71 11 00 00 00 00 00 00	ldxb r1, [r1 + 0]
   14911:	15 01 0a 00 00 00 00 00	jeq r1, 0, +10 <custom_panic+0x11dd8>
   14912:	79 a1 d8 ff 00 00 00 00	ldxdw r1, [r10 - 40]
   14913:	79 14 18 00 00 00 00 00	ldxdw r4, [r1 + 24]
   14914:	79 a1 d0 ff 00 00 00 00	ldxdw r1, [r10 - 48]
   14915:	18 02 00 00 b5 54 02 00 00 00 00 00 00 00 00 00	lddw r2, 152757
   14917:	b7 03 00 00 04 00 00 00	mov64 r3, 4
   14918:	8d 00 00 00 04 00 00 00	callx r4
   14919:	bf 01 00 00 00 00 00 00	mov64 r1, r0
   14920:	b7 00 00 00 01 00 00 00	mov64 r0, 1
   14921:	55 01 0e 00 00 00 00 00	jne r1, 0, +14 <custom_panic+0x11e48>
   14922:	79 a2 f0 ff 00 00 00 00	ldxdw r2, [r10 - 16]
   14923:	79 a4 f8 ff 00 00 00 00	ldxdw r4, [r10 - 8]
   14924:	0f 42 00 00 00 00 00 00	add64 r2, r4
   14925:	bf 83 00 00 00 00 00 00	mov64 r3, r8
   14926:	1f 43 00 00 00 00 00 00	sub64 r3, r4
   14927:	b7 01 00 00 00 00 00 00	mov64 r1, 0
   14928:	1d 48 71 ff 00 00 00 00	jeq r8, r4, -143 <custom_panic+0x11998>
   14929:	bf 31 00 00 00 00 00 00	mov64 r1, r3
   14930:	0f 21 00 00 00 00 00 00	add64 r1, r2
   14931:	71 14 ff ff 00 00 00 00	ldxb r4, [r1 - 1]
   14932:	b7 01 00 00 01 00 00 00	mov64 r1, 1
   14933:	15 04 6c ff 0a 00 00 00	jeq r4, 10, -148 <custom_panic+0x11998>
   14934:	b7 01 00 00 00 00 00 00	mov64 r1, 0
   14935:	05 00 6a ff 00 00 00 00	ja -150 <custom_panic+0x11998>
   14936:	95 00 00 00 00 00 00 00	exit
   14937:	bf 28 00 00 00 00 00 00	mov64 r8, r2
   14938:	bf 16 00 00 00 00 00 00	mov64 r6, r1
   14939:	b7 02 00 00 01 00 00 00	mov64 r2, 1
   14940:	71 61 08 00 00 00 00 00	ldxb r1, [r6 + 8]
   14941:	b7 07 00 00 01 00 00 00	mov64 r7, 1
   14942:	55 01 73 00 00 00 00 00	jne r1, 0, +115 <custom_panic+0x12218>
   14943:	7b 3a 98 ff 00 00 00 00	stxdw [r10 - 104], r3
   14944:	71 62 09 00 00 00 00 00	ldxb r2, [r6 + 9]
   14945:	79 69 00 00 00 00 00 00	ldxdw r9, [r6 + 0]
   14946:	61 91 34 00 00 00 00 00	ldxw r1, [r9 + 52]
   14947:	bf 13 00 00 00 00 00 00	mov64 r3, r1
   14948:	57 03 00 00 04 00 00 00	and64 r3, 4
   14949:	7b 4a 90 ff 00 00 00 00	stxdw [r10 - 112], r4
   14950:	7b 5a 88 ff 00 00 00 00	stxdw [r10 - 120], r5
   14951:	55 03 28 00 00 00 00 00	jne r3, 0, +40 <custom_panic+0x12008>
   14952:	bf 21 00 00 00 00 00 00	mov64 r1, r2
   14953:	18 02 00 00 62 6c 02 00 00 00 00 00 00 00 00 00	lddw r2, 158818
   14955:	15 01 02 00 00 00 00 00	jeq r1, 0, +2 <custom_panic+0x11ef8>
   14956:	18 02 00 00 65 6c 02 00 00 00 00 00 00 00 00 00	lddw r2, 158821
   14958:	b7 03 00 00 03 00 00 00	mov64 r3, 3
   14959:	15 01 01 00 00 00 00 00	jeq r1, 0, +1 <custom_panic+0x11f10>
   14960:	b7 03 00 00 02 00 00 00	mov64 r3, 2
   14961:	79 91 20 00 00 00 00 00	ldxdw r1, [r9 + 32]
   14962:	79 94 28 00 00 00 00 00	ldxdw r4, [r9 + 40]
   14963:	79 44 18 00 00 00 00 00	ldxdw r4, [r4 + 24]
   14964:	8d 00 00 00 04 00 00 00	callx r4
   14965:	b7 02 00 00 01 00 00 00	mov64 r2, 1
   14966:	79 a3 98 ff 00 00 00 00	ldxdw r3, [r10 - 104]
   14967:	55 00 5a 00 00 00 00 00	jne r0, 0, +90 <custom_panic+0x12218>
   14968:	79 91 20 00 00 00 00 00	ldxdw r1, [r9 + 32]
   14969:	79 92 28 00 00 00 00 00	ldxdw r2, [r9 + 40]
   14970:	79 24 18 00 00 00 00 00	ldxdw r4, [r2 + 24]
   14971:	bf 82 00 00 00 00 00 00	mov64 r2, r8
   14972:	8d 00 00 00 04 00 00 00	callx r4
   14973:	b7 02 00 00 01 00 00 00	mov64 r2, 1
   14974:	55 00 53 00 00 00 00 00	jne r0, 0, +83 <custom_panic+0x12218>
   14975:	79 91 20 00 00 00 00 00	ldxdw r1, [r9 + 32]
   14976:	79 92 28 00 00 00 00 00	ldxdw r2, [r9 + 40]
   14977:	79 24 18 00 00 00 00 00	ldxdw r4, [r2 + 24]
   14978:	18 02 00 00 60 6c 02 00 00 00 00 00 00 00 00 00	lddw r2, 158816
   14980:	b7 03 00 00 02 00 00 00	mov64 r3, 2
   14981:	8d 00 00 00 04 00 00 00	callx r4
   14982:	79 a3 88 ff 00 00 00 00	ldxdw r3, [r10 - 120]
   14983:	79 a1 90 ff 00 00 00 00	ldxdw r1, [r10 - 112]
   14984:	b7 02 00 00 01 00 00 00	mov64 r2, 1
   14985:	55 00 48 00 00 00 00 00	jne r0, 0, +72 <custom_panic+0x12218>
   14986:	79 33 18 00 00 00 00 00	ldxdw r3, [r3 + 24]
   14987:	bf 92 00 00 00 00 00 00	mov64 r2, r9
   14988:	8d 00 00 00 03 00 00 00	callx r3
   14989:	b7 02 00 00 01 00 00 00	mov64 r2, 1
   14990:	bf 07 00 00 00 00 00 00	mov64 r7, r0
   14991:	05 00 42 00 00 00 00 00	ja +66 <custom_panic+0x12218>
   14992:	15 02 01 00 00 00 00 00	jeq r2, 0, +1 <custom_panic+0x12018>
   14993:	05 00 0a 00 00 00 00 00	ja +10 <custom_panic+0x12068>
   14994:	79 91 20 00 00 00 00 00	ldxdw r1, [r9 + 32]
   14995:	79 92 28 00 00 00 00 00	ldxdw r2, [r9 + 40]
   14996:	79 24 18 00 00 00 00 00	ldxdw r4, [r2 + 24]
   14997:	18 02 00 00 67 6c 02 00 00 00 00 00 00 00 00 00	lddw r2, 158823
   14999:	b7 03 00 00 03 00 00 00	mov64 r3, 3
   15000:	8d 00 00 00 04 00 00 00	callx r4
   15001:	b7 02 00 00 01 00 00 00	mov64 r2, 1
   15002:	55 00 37 00 00 00 00 00	jne r0, 0, +55 <custom_panic+0x12218>
   15003:	61 91 34 00 00 00 00 00	ldxw r1, [r9 + 52]
   15004:	73 7a bf ff 00 00 00 00	stxb [r10 - 65], r7
   15005:	79 92 20 00 00 00 00 00	ldxdw r2, [r9 + 32]
   15006:	79 93 28 00 00 00 00 00	ldxdw r3, [r9 + 40]
   15007:	bf a4 00 00 00 00 00 00	mov64 r4, r10
   15008:	07 04 00 00 bf ff ff ff	add64 r4, -65
   15009:	7b 4a b0 ff 00 00 00 00	stxdw [r10 - 80], r4
   15010:	7b 3a a8 ff 00 00 00 00	stxdw [r10 - 88], r3
   15011:	7b 2a a0 ff 00 00 00 00	stxdw [r10 - 96], r2
   15012:	79 92 00 00 00 00 00 00	ldxdw r2, [r9 + 0]
   15013:	79 93 08 00 00 00 00 00	ldxdw r3, [r9 + 8]
   15014:	79 94 10 00 00 00 00 00	ldxdw r4, [r9 + 16]
   15015:	79 95 18 00 00 00 00 00	ldxdw r5, [r9 + 24]
   15016:	61 90 30 00 00 00 00 00	ldxw r0, [r9 + 48]
   15017:	71 99 38 00 00 00 00 00	ldxb r9, [r9 + 56]
   15018:	73 9a f8 ff 00 00 00 00	stxb [r10 - 8], r9
   15019:	63 0a f0 ff 00 00 00 00	stxw [r10 - 16], r0
   15020:	63 1a f4 ff 00 00 00 00	stxw [r10 - 12], r1
   15021:	18 01 00 00 88 89 02 00 00 00 00 00 00 00 00 00	lddw r1, 166280
   15023:	7b 1a e8 ff 00 00 00 00	stxdw [r10 - 24], r1
   15024:	7b 5a d8 ff 00 00 00 00	stxdw [r10 - 40], r5
   15025:	7b 4a d0 ff 00 00 00 00	stxdw [r10 - 48], r4
   15026:	7b 3a c8 ff 00 00 00 00	stxdw [r10 - 56], r3
   15027:	7b 2a c0 ff 00 00 00 00	stxdw [r10 - 64], r2
   15028:	bf a1 00 00 00 00 00 00	mov64 r1, r10
   15029:	07 01 00 00 a0 ff ff ff	add64 r1, -96
   15030:	7b 1a e0 ff 00 00 00 00	stxdw [r10 - 32], r1
   15031:	bf 82 00 00 00 00 00 00	mov64 r2, r8
   15032:	79 a3 98 ff 00 00 00 00	ldxdw r3, [r10 - 104]
   15033:	85 10 00 00 fb fe ff ff	call -261
   15034:	55 00 16 00 00 00 00 00	jne r0, 0, +22 <custom_panic+0x12210>
   15035:	bf a1 00 00 00 00 00 00	mov64 r1, r10
   15036:	07 01 00 00 a0 ff ff ff	add64 r1, -96
   15037:	18 02 00 00 60 6c 02 00 00 00 00 00 00 00 00 00	lddw r2, 158816
   15039:	b7 03 00 00 02 00 00 00	mov64 r3, 2
   15040:	85 10 00 00 f4 fe ff ff	call -268
   15041:	55 00 0f 00 00 00 00 00	jne r0, 0, +15 <custom_panic+0x12210>
   15042:	79 a1 88 ff 00 00 00 00	ldxdw r1, [r10 - 120]
   15043:	79 13 18 00 00 00 00 00	ldxdw r3, [r1 + 24]
   15044:	bf a2 00 00 00 00 00 00	mov64 r2, r10
   15045:	07 02 00 00 c0 ff ff ff	add64 r2, -64
   15046:	79 a1 90 ff 00 00 00 00	ldxdw r1, [r10 - 112]
   15047:	8d 00 00 00 03 00 00 00	callx r3
   15048:	55 00 08 00 00 00 00 00	jne r0, 0, +8 <custom_panic+0x12210>
   15049:	79 a1 e8 ff 00 00 00 00	ldxdw r1, [r10 - 24]
   15050:	79 14 18 00 00 00 00 00	ldxdw r4, [r1 + 24]
   15051:	79 a1 e0 ff 00 00 00 00	ldxdw r1, [r10 - 32]
   15052:	18 02 00 00 6a 6c 02 00 00 00 00 00 00 00 00 00	lddw r2, 158826
   15054:	b7 03 00 00 02 00 00 00	mov64 r3, 2
   15055:	8d 00 00 00 04 00 00 00	callx r4
   15056:	bf 07 00 00 00 00 00 00	mov64 r7, r0
   15057:	b7 02 00 00 01 00 00 00	mov64 r2, 1
   15058:	73 26 09 00 00 00 00 00	stxb [r6 + 9], r2
   15059:	73 76 08 00 00 00 00 00	stxb [r6 + 8], r7
   15060:	bf 60 00 00 00 00 00 00	mov64 r0, r6
   15061:	95 00 00 00 00 00 00 00	exit
   15062:	bf 16 00 00 00 00 00 00	mov64 r6, r1
   15063:	71 61 08 00 00 00 00 00	ldxb r1, [r6 + 8]
   15064:	71 62 09 00 00 00 00 00	ldxb r2, [r6 + 9]
   15065:	55 02 04 00 00 00 00 00	jne r2, 0, +4 <custom_panic+0x12278>
   15066:	b7 00 00 00 01 00 00 00	mov64 r0, 1
   15067:	55 01 17 00 00 00 00 00	jne r1, 0, +23 <custom_panic+0x12320>
   15068:	b7 00 00 00 00 00 00 00	mov64 r0, 0
   15069:	05 00 15 00 00 00 00 00	ja +21 <custom_panic+0x12320>
   15070:	b7 00 00 00 01 00 00 00	mov64 r0, 1
   15071:	55 01 12 00 00 00 00 00	jne r1, 0, +18 <custom_panic+0x12318>
   15072:	79 62 00 00 00 00 00 00	ldxdw r2, [r6 + 0]
   15073:	61 21 34 00 00 00 00 00	ldxw r1, [r2 + 52]
   15074:	57 01 00 00 04 00 00 00	and64 r1, 4
   15075:	55 01 07 00 00 00 00 00	jne r1, 0, +7 <custom_panic+0x122e0>
   15076:	79 21 20 00 00 00 00 00	ldxdw r1, [r2 + 32]
   15077:	79 22 28 00 00 00 00 00	ldxdw r2, [r2 + 40]
   15078:	79 24 18 00 00 00 00 00	ldxdw r4, [r2 + 24]
   15079:	18 02 00 00 6d 6c 02 00 00 00 00 00 00 00 00 00	lddw r2, 158829
   15081:	b7 03 00 00 02 00 00 00	mov64 r3, 2
   15082:	05 00 06 00 00 00 00 00	ja +6 <custom_panic+0x12310>
   15083:	79 21 20 00 00 00 00 00	ldxdw r1, [r2 + 32]
   15084:	79 22 28 00 00 00 00 00	ldxdw r2, [r2 + 40]
   15085:	79 24 18 00 00 00 00 00	ldxdw r4, [r2 + 24]
   15086:	18 02 00 00 6c 6c 02 00 00 00 00 00 00 00 00 00	lddw r2, 158828
   15088:	b7 03 00 00 01 00 00 00	mov64 r3, 1
   15089:	8d 00 00 00 04 00 00 00	callx r4
   15090:	73 06 08 00 00 00 00 00	stxb [r6 + 8], r0
   15091:	57 00 00 00 01 00 00 00	and64 r0, 1
   15092:	95 00 00 00 00 00 00 00	exit
   15093:	bf 28 00 00 00 00 00 00	mov64 r8, r2
   15094:	bf 16 00 00 00 00 00 00	mov64 r6, r1
   15095:	71 61 10 00 00 00 00 00	ldxb r1, [r6 + 16]
   15096:	15 01 07 00 00 00 00 00	jeq r1, 0, +7 <custom_panic+0x12388>
   15097:	b7 09 00 00 01 00 00 00	mov64 r9, 1
   15098:	79 61 00 00 00 00 00 00	ldxdw r1, [r6 + 0]
   15099:	73 96 10 00 00 00 00 00	stxb [r6 + 16], r9
   15100:	07 01 00 00 01 00 00 00	add64 r1, 1
   15101:	7b 16 00 00 00 00 00 00	stxdw [r6 + 0], r1
   15102:	bf 60 00 00 00 00 00 00	mov64 r0, r6
   15103:	95 00 00 00 00 00 00 00	exit
   15104:	79 64 00 00 00 00 00 00	ldxdw r4, [r6 + 0]
   15105:	79 67 08 00 00 00 00 00	ldxdw r7, [r6 + 8]
   15106:	61 71 34 00 00 00 00 00	ldxw r1, [r7 + 52]
   15107:	bf 12 00 00 00 00 00 00	mov64 r2, r1
   15108:	57 02 00 00 04 00 00 00	and64 r2, 4
   15109:	7b 3a 98 ff 00 00 00 00	stxdw [r10 - 104], r3
   15110:	55 02 19 00 00 00 00 00	jne r2, 0, +25 <custom_panic+0x12488>
   15111:	7b 8a 90 ff 00 00 00 00	stxdw [r10 - 112], r8
   15112:	18 02 00 00 6f 6c 02 00 00 00 00 00 00 00 00 00	lddw r2, 158831
   15114:	15 04 02 00 00 00 00 00	jeq r4, 0, +2 <custom_panic+0x123f0>
   15115:	18 02 00 00 65 6c 02 00 00 00 00 00 00 00 00 00	lddw r2, 158821
   15117:	b7 09 00 00 01 00 00 00	mov64 r9, 1
   15118:	b7 03 00 00 01 00 00 00	mov64 r3, 1
   15119:	bf 48 00 00 00 00 00 00	mov64 r8, r4
   15120:	15 04 01 00 00 00 00 00	jeq r4, 0, +1 <custom_panic+0x12418>
   15121:	b7 03 00 00 02 00 00 00	mov64 r3, 2
   15122:	79 71 20 00 00 00 00 00	ldxdw r1, [r7 + 32]
   15123:	79 74 28 00 00 00 00 00	ldxdw r4, [r7 + 40]
   15124:	79 44 18 00 00 00 00 00	ldxdw r4, [r4 + 24]
   15125:	8d 00 00 00 04 00 00 00	callx r4
   15126:	bf 81 00 00 00 00 00 00	mov64 r1, r8
   15127:	55 00 e3 ff 00 00 00 00	jne r0, 0, -29 <custom_panic+0x12360>
   15128:	79 a1 98 ff 00 00 00 00	ldxdw r1, [r10 - 104]
   15129:	79 13 18 00 00 00 00 00	ldxdw r3, [r1 + 24]
   15130:	79 a1 90 ff 00 00 00 00	ldxdw r1, [r10 - 112]
   15131:	bf 72 00 00 00 00 00 00	mov64 r2, r7
   15132:	8d 00 00 00 03 00 00 00	callx r3
   15133:	bf 09 00 00 00 00 00 00	mov64 r9, r0
   15134:	bf 81 00 00 00 00 00 00	mov64 r1, r8
   15135:	05 00 db ff 00 00 00 00	ja -37 <custom_panic+0x12360>
   15136:	7b 4a 90 ff 00 00 00 00	stxdw [r10 - 112], r4
   15137:	15 04 01 00 00 00 00 00	jeq r4, 0, +1 <custom_panic+0x124a0>
   15138:	05 00 0b 00 00 00 00 00	ja +11 <custom_panic+0x124f8>
   15139:	79 71 20 00 00 00 00 00	ldxdw r1, [r7 + 32]
   15140:	79 72 28 00 00 00 00 00	ldxdw r2, [r7 + 40]
   15141:	79 24 18 00 00 00 00 00	ldxdw r4, [r2 + 24]
   15142:	18 02 00 00 70 6c 02 00 00 00 00 00 00 00 00 00	lddw r2, 158832
   15144:	b7 03 00 00 02 00 00 00	mov64 r3, 2
   15145:	8d 00 00 00 04 00 00 00	callx r4
   15146:	b7 09 00 00 01 00 00 00	mov64 r9, 1
   15147:	b7 01 00 00 00 00 00 00	mov64 r1, 0
   15148:	55 00 ce ff 00 00 00 00	jne r0, 0, -50 <custom_panic+0x12360>
   15149:	61 71 34 00 00 00 00 00	ldxw r1, [r7 + 52]
   15150:	b7 09 00 00 01 00 00 00	mov64 r9, 1
   15151:	73 9a bf ff 00 00 00 00	stxb [r10 - 65], r9
   15152:	79 72 20 00 00 00 00 00	ldxdw r2, [r7 + 32]
   15153:	79 73 28 00 00 00 00 00	ldxdw r3, [r7 + 40]
   15154:	bf a4 00 00 00 00 00 00	mov64 r4, r10
   15155:	07 04 00 00 bf ff ff ff	add64 r4, -65
   15156:	7b 4a b0 ff 00 00 00 00	stxdw [r10 - 80], r4
   15157:	7b 3a a8 ff 00 00 00 00	stxdw [r10 - 88], r3
   15158:	7b 2a a0 ff 00 00 00 00	stxdw [r10 - 96], r2
   15159:	79 72 00 00 00 00 00 00	ldxdw r2, [r7 + 0]
   15160:	79 73 08 00 00 00 00 00	ldxdw r3, [r7 + 8]
   15161:	79 74 10 00 00 00 00 00	ldxdw r4, [r7 + 16]
   15162:	79 75 18 00 00 00 00 00	ldxdw r5, [r7 + 24]
   15163:	61 70 30 00 00 00 00 00	ldxw r0, [r7 + 48]
   15164:	71 77 38 00 00 00 00 00	ldxb r7, [r7 + 56]
   15165:	73 7a f8 ff 00 00 00 00	stxb [r10 - 8], r7
   15166:	63 0a f0 ff 00 00 00 00	stxw [r10 - 16], r0
   15167:	63 1a f4 ff 00 00 00 00	stxw [r10 - 12], r1
   15168:	18 01 00 00 88 89 02 00 00 00 00 00 00 00 00 00	lddw r1, 166280
   15170:	7b 1a e8 ff 00 00 00 00	stxdw [r10 - 24], r1
   15171:	bf a1 00 00 00 00 00 00	mov64 r1, r10
   15172:	07 01 00 00 a0 ff ff ff	add64 r1, -96
   15173:	7b 1a e0 ff 00 00 00 00	stxdw [r10 - 32], r1
   15174:	7b 5a d8 ff 00 00 00 00	stxdw [r10 - 40], r5
   15175:	7b 4a d0 ff 00 00 00 00	stxdw [r10 - 48], r4
   15176:	7b 3a c8 ff 00 00 00 00	stxdw [r10 - 56], r3
   15177:	7b 2a c0 ff 00 00 00 00	stxdw [r10 - 64], r2
   15178:	79 a1 98 ff 00 00 00 00	ldxdw r1, [r10 - 104]
   15179:	79 13 18 00 00 00 00 00	ldxdw r3, [r1 + 24]
   15180:	bf a2 00 00 00 00 00 00	mov64 r2, r10
   15181:	07 02 00 00 c0 ff ff ff	add64 r2, -64
   15182:	bf 81 00 00 00 00 00 00	mov64 r1, r8
   15183:	8d 00 00 00 03 00 00 00	callx r3
   15184:	55 00 08 00 00 00 00 00	jne r0, 0, +8 <custom_panic+0x12650>
   15185:	79 a1 e8 ff 00 00 00 00	ldxdw r1, [r10 - 24]
   15186:	79 14 18 00 00 00 00 00	ldxdw r4, [r1 + 24]
   15187:	79 a1 e0 ff 00 00 00 00	ldxdw r1, [r10 - 32]
   15188:	18 02 00 00 6a 6c 02 00 00 00 00 00 00 00 00 00	lddw r2, 158826
   15190:	b7 03 00 00 02 00 00 00	mov64 r3, 2
   15191:	8d 00 00 00 04 00 00 00	callx r4
   15192:	bf 09 00 00 00 00 00 00	mov64 r9, r0
   15193:	79 a1 90 ff 00 00 00 00	ldxdw r1, [r10 - 112]
   15194:	05 00 a0 ff 00 00 00 00	ja -96 <custom_panic+0x12360>
   15195:	bf 16 00 00 00 00 00 00	mov64 r6, r1
   15196:	71 62 10 00 00 00 00 00	ldxb r2, [r6 + 16]
   15197:	79 61 00 00 00 00 00 00	ldxdw r1, [r6 + 0]
   15198:	55 01 05 00 00 00 00 00	jne r1, 0, +5 <custom_panic+0x126a8>
   15199:	bf 21 00 00 00 00 00 00	mov64 r1, r2
   15200:	b7 07 00 00 01 00 00 00	mov64 r7, 1
   15201:	55 01 09 00 00 00 00 00	jne r1, 0, +9 <custom_panic+0x126e0>
   15202:	b7 07 00 00 00 00 00 00	mov64 r7, 0
   15203:	05 00 07 00 00 00 00 00	ja +7 <custom_panic+0x126e0>
   15204:	b7 07 00 00 01 00 00 00	mov64 r7, 1
   15205:	55 02 1e 00 00 00 00 00	jne r2, 0, +30 <custom_panic+0x127a8>
   15206:	55 01 02 00 01 00 00 00	jne r1, 1, +2 <custom_panic+0x126d0>
   15207:	71 61 11 00 00 00 00 00	ldxb r1, [r6 + 17]
   15208:	55 01 05 00 00 00 00 00	jne r1, 0, +5 <custom_panic+0x126f8>
   15209:	79 68 08 00 00 00 00 00	ldxdw r8, [r6 + 8]
   15210:	05 00 07 00 00 00 00 00	ja +7 <custom_panic+0x12718>
   15211:	57 07 00 00 01 00 00 00	and64 r7, 1
   15212:	bf 70 00 00 00 00 00 00	mov64 r0, r7
   15213:	95 00 00 00 00 00 00 00	exit
   15214:	79 68 08 00 00 00 00 00	ldxdw r8, [r6 + 8]
   15215:	61 81 34 00 00 00 00 00	ldxw r1, [r8 + 52]
   15216:	57 01 00 00 04 00 00 00	and64 r1, 4
   15217:	15 01 0a 00 00 00 00 00	jeq r1, 0, +10 <custom_panic+0x12768>
   15218:	79 81 20 00 00 00 00 00	ldxdw r1, [r8 + 32]
   15219:	79 82 28 00 00 00 00 00	ldxdw r2, [r8 + 40]
   15220:	79 24 18 00 00 00 00 00	ldxdw r4, [r2 + 24]
   15221:	18 02 00 00 13 6c 02 00 00 00 00 00 00 00 00 00	lddw r2, 158739
   15223:	b7 03 00 00 01 00 00 00	mov64 r3, 1
   15224:	8d 00 00 00 04 00 00 00	callx r4
   15225:	bf 07 00 00 00 00 00 00	mov64 r7, r0
   15226:	73 76 10 00 00 00 00 00	stxb [r6 + 16], r7
   15227:	05 00 ef ff 00 00 00 00	ja -17 <custom_panic+0x126e0>
   15228:	79 81 20 00 00 00 00 00	ldxdw r1, [r8 + 32]
   15229:	79 82 28 00 00 00 00 00	ldxdw r2, [r8 + 40]
   15230:	79 24 18 00 00 00 00 00	ldxdw r4, [r2 + 24]
   15231:	18 02 00 00 72 6c 02 00 00 00 00 00 00 00 00 00	lddw r2, 158834
   15233:	b7 03 00 00 01 00 00 00	mov64 r3, 1
   15234:	8d 00 00 00 04 00 00 00	callx r4
   15235:	15 00 ee ff 00 00 00 00	jeq r0, 0, -18 <custom_panic+0x12718>
   15236:	73 76 10 00 00 00 00 00	stxb [r6 + 16], r7
   15237:	05 00 e5 ff 00 00 00 00	ja -27 <custom_panic+0x126e0>
   15238:	b7 03 00 00 00 00 00 00	mov64 r3, 0
   15239:	63 3a fc ff 00 00 00 00	stxw [r10 - 4], r3
   15240:	bf 23 00 00 00 00 00 00	mov64 r3, r2
   15241:	67 03 00 00 20 00 00 00	lsh64 r3, 32
   15242:	77 03 00 00 20 00 00 00	rsh64 r3, 32
   15243:	b7 04 00 00 80 00 00 00	mov64 r4, 128
   15244:	2d 34 16 00 00 00 00 00	jgt r4, r3, +22 <custom_panic+0x128a0>
   15245:	b7 04 00 00 00 08 00 00	mov64 r4, 2048
   15246:	2d 34 17 00 00 00 00 00	jgt r4, r3, +23 <custom_panic+0x128b8>
   15247:	bf 23 00 00 00 00 00 00	mov64 r3, r2
   15248:	67 03 00 00 20 00 00 00	lsh64 r3, 32
   15249:	77 03 00 00 20 00 00 00	rsh64 r3, 32
   15250:	b7 04 00 00 00 00 01 00	mov64 r4, 65536
   15251:	2d 34 01 00 00 00 00 00	jgt r4, r3, +1 <custom_panic+0x12830>
   15252:	05 00 1a 00 00 00 00 00	ja +26 <custom_panic+0x12900>
   15253:	bf 23 00 00 00 00 00 00	mov64 r3, r2
   15254:	57 03 00 00 3f 00 00 00	and64 r3, 63
   15255:	47 03 00 00 80 00 00 00	or64 r3, 128
   15256:	73 3a fe ff 00 00 00 00	stxb [r10 - 2], r3
   15257:	bf 23 00 00 00 00 00 00	mov64 r3, r2
   15258:	77 03 00 00 0c 00 00 00	rsh64 r3, 12
   15259:	47 03 00 00 e0 00 00 00	or64 r3, 224
   15260:	73 3a fc ff 00 00 00 00	stxb [r10 - 4], r3
   15261:	77 02 00 00 06 00 00 00	rsh64 r2, 6
   15262:	57 02 00 00 3f 00 00 00	and64 r2, 63
   15263:	47 02 00 00 80 00 00 00	or64 r2, 128
   15264:	73 2a fd ff 00 00 00 00	stxb [r10 - 3], r2
   15265:	b7 03 00 00 03 00 00 00	mov64 r3, 3
   15266:	05 00 1f 00 00 00 00 00	ja +31 <custom_panic+0x12998>
   15267:	73 2a fc ff 00 00 00 00	stxb [r10 - 4], r2
   15268:	b7 03 00 00 01 00 00 00	mov64 r3, 1
   15269:	05 00 1c 00 00 00 00 00	ja +28 <custom_panic+0x12998>
   15270:	bf 23 00 00 00 00 00 00	mov64 r3, r2
   15271:	57 03 00 00 3f 00 00 00	and64 r3, 63
   15272:	47 03 00 00 80 00 00 00	or64 r3, 128
   15273:	73 3a fd ff 00 00 00 00	stxb [r10 - 3], r3
   15274:	77 02 00 00 06 00 00 00	rsh64 r2, 6
   15275:	47 02 00 00 c0 00 00 00	or64 r2, 192
   15276:	73 2a fc ff 00 00 00 00	stxb [r10 - 4], r2
   15277:	b7 03 00 00 02 00 00 00	mov64 r3, 2
   15278:	05 00 13 00 00 00 00 00	ja +19 <custom_panic+0x12998>
   15279:	bf 23 00 00 00 00 00 00	mov64 r3, r2
   15280:	57 03 00 00 3f 00 00 00	and64 r3, 63
   15281:	47 03 00 00 80 00 00 00	or64 r3, 128
   15282:	73 3a ff ff 00 00 00 00	stxb [r10 - 1], r3
   15283:	bf 23 00 00 00 00 00 00	mov64 r3, r2
   15284:	77 03 00 00 06 00 00 00	rsh64 r3, 6
   15285:	57 03 00 00 3f 00 00 00	and64 r3, 63
   15286:	47 03 00 00 80 00 00 00	or64 r3, 128
   15287:	73 3a fe ff 00 00 00 00	stxb [r10 - 2], r3
   15288:	bf 23 00 00 00 00 00 00	mov64 r3, r2
   15289:	77 03 00 00 0c 00 00 00	rsh64 r3, 12
   15290:	57 03 00 00 3f 00 00 00	and64 r3, 63
   15291:	47 03 00 00 80 00 00 00	or64 r3, 128
   15292:	73 3a fd ff 00 00 00 00	stxb [r10 - 3], r3
   15293:	77 02 00 00 12 00 00 00	rsh64 r2, 18
   15294:	57 02 00 00 07 00 00 00	and64 r2, 7
   15295:	47 02 00 00 f0 00 00 00	or64 r2, 240
   15296:	73 2a fc ff 00 00 00 00	stxb [r10 - 4], r2
   15297:	b7 03 00 00 04 00 00 00	mov64 r3, 4
   15298:	bf a2 00 00 00 00 00 00	mov64 r2, r10
   15299:	07 02 00 00 fc ff ff ff	add64 r2, -4
   15300:	85 10 00 00 f0 fd ff ff	call -528
   15301:	95 00 00 00 00 00 00 00	exit
   15302:	7b 1a c8 ff 00 00 00 00	stxdw [r10 - 56], r1
   15303:	bf a6 00 00 00 00 00 00	mov64 r6, r10
   15304:	07 06 00 00 d0 ff ff ff	add64 r6, -48
   15305:	bf 61 00 00 00 00 00 00	mov64 r1, r6
   15306:	b7 03 00 00 30 00 00 00	mov64 r3, 48
   15307:	85 10 00 00 ce 0b 00 00	call 3022
   15308:	bf a1 00 00 00 00 00 00	mov64 r1, r10
   15309:	07 01 00 00 c8 ff ff ff	add64 r1, -56
   15310:	18 02 00 00 f0 89 02 00 00 00 00 00 00 00 00 00	lddw r2, 166384
   15312:	bf 63 00 00 00 00 00 00	mov64 r3, r6
   15313:	85 10 00 00 5d 00 00 00	call 93
   15314:	95 00 00 00 00 00 00 00	exit
   15315:	79 11 00 00 00 00 00 00	ldxdw r1, [r1 + 0]
   15316:	85 10 00 00 e0 fd ff ff	call -544
   15317:	95 00 00 00 00 00 00 00	exit
   15318:	79 11 00 00 00 00 00 00	ldxdw r1, [r1 + 0]
   15319:	b7 03 00 00 00 00 00 00	mov64 r3, 0
   15320:	63 3a fc ff 00 00 00 00	stxw [r10 - 4], r3
   15321:	bf 23 00 00 00 00 00 00	mov64 r3, r2
   15322:	67 03 00 00 20 00 00 00	lsh64 r3, 32
   15323:	77 03 00 00 20 00 00 00	rsh64 r3, 32
   15324:	b7 04 00 00 80 00 00 00	mov64 r4, 128
   15325:	2d 34 16 00 00 00 00 00	jgt r4, r3, +22 <custom_panic+0x12b28>
   15326:	b7 04 00 00 00 08 00 00	mov64 r4, 2048
   15327:	2d 34 17 00 00 00 00 00	jgt r4, r3, +23 <custom_panic+0x12b40>
   15328:	bf 23 00 00 00 00 00 00	mov64 r3, r2
   15329:	67 03 00 00 20 00 00 00	lsh64 r3, 32
   15330:	77 03 00 00 20 00 00 00	rsh64 r3, 32
   15331:	b7 04 00 00 00 00 01 00	mov64 r4, 65536
   15332:	2d 34 01 00 00 00 00 00	jgt r4, r3, +1 <custom_panic+0x12ab8>
   15333:	05 00 1a 00 00 00 00 00	ja +26 <custom_panic+0x12b88>
   15334:	bf 23 00 00 00 00 00 00	mov64 r3, r2
   15335:	57 03 00 00 3f 00 00 00	and64 r3, 63
   15336:	47 03 00 00 80 00 00 00	or64 r3, 128
   15337:	73 3a fe ff 00 00 00 00	stxb [r10 - 2], r3
   15338:	bf 23 00 00 00 00 00 00	mov64 r3, r2
   15339:	77 03 00 00 0c 00 00 00	rsh64 r3, 12
   15340:	47 03 00 00 e0 00 00 00	or64 r3, 224
   15341:	73 3a fc ff 00 00 00 00	stxb [r10 - 4], r3
   15342:	77 02 00 00 06 00 00 00	rsh64 r2, 6
   15343:	57 02 00 00 3f 00 00 00	and64 r2, 63
   15344:	47 02 00 00 80 00 00 00	or64 r2, 128
   15345:	73 2a fd ff 00 00 00 00	stxb [r10 - 3], r2
   15346:	b7 03 00 00 03 00 00 00	mov64 r3, 3
   15347:	05 00 1f 00 00 00 00 00	ja +31 <custom_panic+0x12c20>
   15348:	73 2a fc ff 00 00 00 00	stxb [r10 - 4], r2
   15349:	b7 03 00 00 01 00 00 00	mov64 r3, 1
   15350:	05 00 1c 00 00 00 00 00	ja +28 <custom_panic+0x12c20>
   15351:	bf 23 00 00 00 00 00 00	mov64 r3, r2
   15352:	57 03 00 00 3f 00 00 00	and64 r3, 63
   15353:	47 03 00 00 80 00 00 00	or64 r3, 128
   15354:	73 3a fd ff 00 00 00 00	stxb [r10 - 3], r3
   15355:	77 02 00 00 06 00 00 00	rsh64 r2, 6
   15356:	47 02 00 00 c0 00 00 00	or64 r2, 192
   15357:	73 2a fc ff 00 00 00 00	stxb [r10 - 4], r2
   15358:	b7 03 00 00 02 00 00 00	mov64 r3, 2
   15359:	05 00 13 00 00 00 00 00	ja +19 <custom_panic+0x12c20>
   15360:	bf 23 00 00 00 00 00 00	mov64 r3, r2
   15361:	57 03 00 00 3f 00 00 00	and64 r3, 63
   15362:	47 03 00 00 80 00 00 00	or64 r3, 128
   15363:	73 3a ff ff 00 00 00 00	stxb [r10 - 1], r3
   15364:	bf 23 00 00 00 00 00 00	mov64 r3, r2
   15365:	77 03 00 00 06 00 00 00	rsh64 r3, 6
   15366:	57 03 00 00 3f 00 00 00	and64 r3, 63
   15367:	47 03 00 00 80 00 00 00	or64 r3, 128
   15368:	73 3a fe ff 00 00 00 00	stxb [r10 - 2], r3
   15369:	bf 23 00 00 00 00 00 00	mov64 r3, r2
   15370:	77 03 00 00 0c 00 00 00	rsh64 r3, 12
   15371:	57 03 00 00 3f 00 00 00	and64 r3, 63
   15372:	47 03 00 00 80 00 00 00	or64 r3, 128
   15373:	73 3a fd ff 00 00 00 00	stxb [r10 - 3], r3
   15374:	77 02 00 00 12 00 00 00	rsh64 r2, 18
   15375:	57 02 00 00 07 00 00 00	and64 r2, 7
   15376:	47 02 00 00 f0 00 00 00	or64 r2, 240
   15377:	73 2a fc ff 00 00 00 00	stxb [r10 - 4], r2
   15378:	b7 03 00 00 04 00 00 00	mov64 r3, 4
   15379:	bf a2 00 00 00 00 00 00	mov64 r2, r10
   15380:	07 02 00 00 fc ff ff ff	add64 r2, -4
   15381:	85 10 00 00 9f fd ff ff	call -609
   15382:	95 00 00 00 00 00 00 00	exit
   15383:	79 17 00 00 00 00 00 00	ldxdw r7, [r1 + 0]
   15384:	bf a6 00 00 00 00 00 00	mov64 r6, r10
   15385:	07 06 00 00 d0 ff ff ff	add64 r6, -48
   15386:	bf 61 00 00 00 00 00 00	mov64 r1, r6
   15387:	b7 03 00 00 30 00 00 00	mov64 r3, 48
   15388:	85 10 00 00 7d 0b 00 00	call 2941
   15389:	7b 7a c8 ff 00 00 00 00	stxdw [r10 - 56], r7
   15390:	bf a1 00 00 00 00 00 00	mov64 r1, r10
   15391:	07 01 00 00 c8 ff ff ff	add64 r1, -56
   15392:	18 02 00 00 f0 89 02 00 00 00 00 00 00 00 00 00	lddw r2, 166384
   15394:	bf 63 00 00 00 00 00 00	mov64 r3, r6
   15395:	85 10 00 00 0b 00 00 00	call 11
   15396:	95 00 00 00 00 00 00 00	exit
   15397:	b7 04 00 00 03 00 00 00	mov64 r4, 3
   15398:	73 41 38 00 00 00 00 00	stxb [r1 + 56], r4
   15399:	b7 04 00 00 20 00 00 00	mov64 r4, 32
   15400:	7b 41 30 00 00 00 00 00	stxdw [r1 + 48], r4
   15401:	7b 31 28 00 00 00 00 00	stxdw [r1 + 40], r3
   15402:	7b 21 20 00 00 00 00 00	stxdw [r1 + 32], r2
   15403:	b7 02 00 00 00 00 00 00	mov64 r2, 0
   15404:	7b 21 10 00 00 00 00 00	stxdw [r1 + 16], r2
   15405:	7b 21 00 00 00 00 00 00	stxdw [r1 + 0], r2
   15406:	95 00 00 00 00 00 00 00	exit
   15407:	b7 04 00 00 03 00 00 00	mov64 r4, 3
   15408:	73 4a f8 ff 00 00 00 00	stxb [r10 - 8], r4
   15409:	b7 04 00 00 20 00 00 00	mov64 r4, 32
   15410:	7b 4a f0 ff 00 00 00 00	stxdw [r10 - 16], r4
   15411:	7b 2a e8 ff 00 00 00 00	stxdw [r10 - 24], r2
   15412:	7b 1a e0 ff 00 00 00 00	stxdw [r10 - 32], r1
   15413:	b7 07 00 00 00 00 00 00	mov64 r7, 0
   15414:	7b 7a d0 ff 00 00 00 00	stxdw [r10 - 48], r7
   15415:	7b 7a c0 ff 00 00 00 00	stxdw [r10 - 64], r7
   15416:	79 38 20 00 00 00 00 00	ldxdw r8, [r3 + 32]
   15417:	7b 3a b8 ff 00 00 00 00	stxdw [r10 - 72], r3
   15418:	55 08 1c 00 00 00 00 00	jne r8, 0, +28 <custom_panic+0x12e40>
   15419:	79 36 18 00 00 00 00 00	ldxdw r6, [r3 + 24]
   15420:	15 06 68 00 00 00 00 00	jeq r6, 0, +104 <custom_panic+0x130b0>
   15421:	79 a1 b8 ff 00 00 00 00	ldxdw r1, [r10 - 72]
   15422:	79 18 10 00 00 00 00 00	ldxdw r8, [r1 + 16]
   15423:	07 08 00 00 08 00 00 00	add64 r8, 8
   15424:	67 06 00 00 04 00 00 00	lsh64 r6, 4
   15425:	79 19 00 00 00 00 00 00	ldxdw r9, [r1 + 0]
   15426:	07 09 00 00 08 00 00 00	add64 r9, 8
   15427:	79 93 00 00 00 00 00 00	ldxdw r3, [r9 + 0]
   15428:	15 03 06 00 00 00 00 00	jeq r3, 0, +6 <custom_panic+0x12de0>
   15429:	79 a1 e8 ff 00 00 00 00	ldxdw r1, [r10 - 24]
   15430:	79 14 18 00 00 00 00 00	ldxdw r4, [r1 + 24]
   15431:	79 92 f8 ff 00 00 00 00	ldxdw r2, [r9 - 8]
   15432:	79 a1 e0 ff 00 00 00 00	ldxdw r1, [r10 - 32]
   15433:	8d 00 00 00 04 00 00 00	callx r4
   15434:	55 00 6b 00 00 00 00 00	jne r0, 0, +107 <custom_panic+0x13138>
   15435:	79 81 f8 ff 00 00 00 00	ldxdw r1, [r8 - 8]
   15436:	79 83 00 00 00 00 00 00	ldxdw r3, [r8 + 0]
   15437:	bf a2 00 00 00 00 00 00	mov64 r2, r10
   15438:	07 02 00 00 c0 ff ff ff	add64 r2, -64
   15439:	8d 00 00 00 03 00 00 00	callx r3
   15440:	55 00 65 00 00 00 00 00	jne r0, 0, +101 <custom_panic+0x13138>
   15441:	07 07 00 00 01 00 00 00	add64 r7, 1
   15442:	07 08 00 00 10 00 00 00	add64 r8, 16
   15443:	07 09 00 00 10 00 00 00	add64 r9, 16
   15444:	07 06 00 00 f0 ff ff ff	add64 r6, -16
   15445:	15 06 4f 00 00 00 00 00	jeq r6, 0, +79 <custom_panic+0x130b0>
   15446:	05 00 ec ff 00 00 00 00	ja -20 <custom_panic+0x12da0>
   15447:	79 39 28 00 00 00 00 00	ldxdw r9, [r3 + 40]
   15448:	15 09 4c 00 00 00 00 00	jeq r9, 0, +76 <custom_panic+0x130b0>
   15449:	07 08 00 00 18 00 00 00	add64 r8, 24
   15450:	27 09 00 00 38 00 00 00	mul64 r9, 56
   15451:	79 a1 b8 ff 00 00 00 00	ldxdw r1, [r10 - 72]
   15452:	79 16 00 00 00 00 00 00	ldxdw r6, [r1 + 0]
   15453:	07 06 00 00 08 00 00 00	add64 r6, 8
   15454:	79 63 00 00 00 00 00 00	ldxdw r3, [r6 + 0]
   15455:	15 03 06 00 00 00 00 00	jeq r3, 0, +6 <custom_panic+0x12eb8>
   15456:	79 a1 e8 ff 00 00 00 00	ldxdw r1, [r10 - 24]
   15457:	79 14 18 00 00 00 00 00	ldxdw r4, [r1 + 24]
   15458:	79 62 f8 ff 00 00 00 00	ldxdw r2, [r6 - 8]
   15459:	79 a1 e0 ff 00 00 00 00	ldxdw r1, [r10 - 32]
   15460:	8d 00 00 00 04 00 00 00	callx r4
   15461:	55 00 50 00 00 00 00 00	jne r0, 0, +80 <custom_panic+0x13138>
   15462:	79 a1 b8 ff 00 00 00 00	ldxdw r1, [r10 - 72]
   15463:	79 12 10 00 00 00 00 00	ldxdw r2, [r1 + 16]
   15464:	61 81 10 00 00 00 00 00	ldxw r1, [r8 + 16]
   15465:	63 1a f0 ff 00 00 00 00	stxw [r10 - 16], r1
   15466:	71 81 18 00 00 00 00 00	ldxb r1, [r8 + 24]
   15467:	73 1a f8 ff 00 00 00 00	stxb [r10 - 8], r1
   15468:	61 81 14 00 00 00 00 00	ldxw r1, [r8 + 20]
   15469:	63 1a f4 ff 00 00 00 00	stxw [r10 - 12], r1
   15470:	79 81 00 00 00 00 00 00	ldxdw r1, [r8 + 0]
   15471:	79 84 f8 ff 00 00 00 00	ldxdw r4, [r8 - 8]
   15472:	15 04 03 00 00 00 00 00	jeq r4, 0, +3 <custom_panic+0x12f28>
   15473:	b7 03 00 00 00 00 00 00	mov64 r3, 0
   15474:	15 04 03 00 01 00 00 00	jeq r4, 1, +3 <custom_panic+0x12f38>
   15475:	05 00 0c 00 00 00 00 00	ja +12 <custom_panic+0x12f88>
   15476:	b7 03 00 00 01 00 00 00	mov64 r3, 1
   15477:	05 00 0a 00 00 00 00 00	ja +10 <custom_panic+0x12f88>
   15478:	67 01 00 00 04 00 00 00	lsh64 r1, 4
   15479:	bf 24 00 00 00 00 00 00	mov64 r4, r2
   15480:	0f 14 00 00 00 00 00 00	add64 r4, r1
   15481:	79 45 08 00 00 00 00 00	ldxdw r5, [r4 + 8]
   15482:	18 00 00 00 30 bc 01 00 00 00 00 00 00 00 00 00	lddw r0, 113712
   15484:	5d 05 03 00 00 00 00 00	jne r5, r0, +3 <custom_panic+0x12f88>
   15485:	b7 03 00 00 01 00 00 00	mov64 r3, 1
   15486:	79 41 00 00 00 00 00 00	ldxdw r1, [r4 + 0]
   15487:	79 11 00 00 00 00 00 00	ldxdw r1, [r1 + 0]
   15488:	7b 1a c8 ff 00 00 00 00	stxdw [r10 - 56], r1
   15489:	7b 3a c0 ff 00 00 00 00	stxdw [r10 - 64], r3
   15490:	79 81 f0 ff 00 00 00 00	ldxdw r1, [r8 - 16]
   15491:	79 84 e8 ff 00 00 00 00	ldxdw r4, [r8 - 24]
   15492:	15 04 03 00 00 00 00 00	jeq r4, 0, +3 <custom_panic+0x12fc8>
   15493:	b7 03 00 00 00 00 00 00	mov64 r3, 0
   15494:	15 04 03 00 01 00 00 00	jeq r4, 1, +3 <custom_panic+0x12fd8>
   15495:	05 00 0c 00 00 00 00 00	ja +12 <custom_panic+0x13028>
   15496:	b7 03 00 00 01 00 00 00	mov64 r3, 1
   15497:	05 00 0a 00 00 00 00 00	ja +10 <custom_panic+0x13028>
   15498:	67 01 00 00 04 00 00 00	lsh64 r1, 4
   15499:	bf 24 00 00 00 00 00 00	mov64 r4, r2
   15500:	0f 14 00 00 00 00 00 00	add64 r4, r1
   15501:	79 45 08 00 00 00 00 00	ldxdw r5, [r4 + 8]
   15502:	18 00 00 00 30 bc 01 00 00 00 00 00 00 00 00 00	lddw r0, 113712
   15504:	5d 05 03 00 00 00 00 00	jne r5, r0, +3 <custom_panic+0x13028>
   15505:	b7 03 00 00 01 00 00 00	mov64 r3, 1
   15506:	79 41 00 00 00 00 00 00	ldxdw r1, [r4 + 0]
   15507:	79 11 00 00 00 00 00 00	ldxdw r1, [r1 + 0]
   15508:	7b 1a d8 ff 00 00 00 00	stxdw [r10 - 40], r1
   15509:	7b 3a d0 ff 00 00 00 00	stxdw [r10 - 48], r3
   15510:	79 81 08 00 00 00 00 00	ldxdw r1, [r8 + 8]
   15511:	67 01 00 00 04 00 00 00	lsh64 r1, 4
   15512:	0f 12 00 00 00 00 00 00	add64 r2, r1
   15513:	79 21 00 00 00 00 00 00	ldxdw r1, [r2 + 0]
   15514:	79 23 08 00 00 00 00 00	ldxdw r3, [r2 + 8]
   15515:	bf a2 00 00 00 00 00 00	mov64 r2, r10
   15516:	07 02 00 00 c0 ff ff ff	add64 r2, -64
   15517:	8d 00 00 00 03 00 00 00	callx r3
   15518:	55 00 17 00 00 00 00 00	jne r0, 0, +23 <custom_panic+0x13138>
   15519:	07 07 00 00 01 00 00 00	add64 r7, 1
   15520:	07 08 00 00 38 00 00 00	add64 r8, 56
   15521:	07 06 00 00 10 00 00 00	add64 r6, 16
   15522:	07 09 00 00 c8 ff ff ff	add64 r9, -56
   15523:	15 09 01 00 00 00 00 00	jeq r9, 0, +1 <custom_panic+0x130b0>
   15524:	05 00 b9 ff 00 00 00 00	ja -71 <custom_panic+0x12e78>
   15525:	79 a1 b8 ff 00 00 00 00	ldxdw r1, [r10 - 72]
   15526:	79 11 08 00 00 00 00 00	ldxdw r1, [r1 + 8]
   15527:	2d 71 01 00 00 00 00 00	jgt r1, r7, +1 <custom_panic+0x130d0>
   15528:	05 00 0b 00 00 00 00 00	ja +11 <custom_panic+0x13128>
   15529:	67 07 00 00 04 00 00 00	lsh64 r7, 4
   15530:	79 a1 b8 ff 00 00 00 00	ldxdw r1, [r10 - 72]
   15531:	79 11 00 00 00 00 00 00	ldxdw r1, [r1 + 0]
   15532:	0f 71 00 00 00 00 00 00	add64 r1, r7
   15533:	79 13 08 00 00 00 00 00	ldxdw r3, [r1 + 8]
   15534:	79 12 00 00 00 00 00 00	ldxdw r2, [r1 + 0]
   15535:	79 a1 e8 ff 00 00 00 00	ldxdw r1, [r10 - 24]
   15536:	79 14 18 00 00 00 00 00	ldxdw r4, [r1 + 24]
   15537:	79 a1 e0 ff 00 00 00 00	ldxdw r1, [r10 - 32]
   15538:	8d 00 00 00 04 00 00 00	callx r4
   15539:	55 00 02 00 00 00 00 00	jne r0, 0, +2 <custom_panic+0x13138>
   15540:	b7 00 00 00 00 00 00 00	mov64 r0, 0
   15541:	05 00 01 00 00 00 00 00	ja +1 <custom_panic+0x13140>
   15542:	b7 00 00 00 01 00 00 00	mov64 r0, 1
   15543:	95 00 00 00 00 00 00 00	exit
   15544:	bf 48 00 00 00 00 00 00	mov64 r8, r4
   15545:	bf 10 00 00 00 00 00 00	mov64 r0, r1
   15546:	79 59 08 f0 00 00 00 00	ldxdw r9, [r5 - 4088]
   15547:	15 02 0a 00 00 00 00 00	jeq r2, 0, +10 <custom_panic+0x131b8>
   15548:	b7 01 00 00 00 00 11 00	mov64 r1, 1114112
   15549:	7b 1a f0 ff 00 00 00 00	stxdw [r10 - 16], r1
   15550:	61 07 34 00 00 00 00 00	ldxw r7, [r0 + 52]
   15551:	bf 71 00 00 00 00 00 00	mov64 r1, r7
   15552:	57 01 00 00 01 00 00 00	and64 r1, 1
   15553:	bf 96 00 00 00 00 00 00	mov64 r6, r9
   15554:	15 01 08 00 00 00 00 00	jeq r1, 0, +8 <custom_panic+0x131e0>
   15555:	b7 01 00 00 2b 00 00 00	mov64 r1, 43
   15556:	7b 1a f0 ff 00 00 00 00	stxdw [r10 - 16], r1
   15557:	05 00 03 00 00 00 00 00	ja +3 <custom_panic+0x131d0>
   15558:	b7 01 00 00 2d 00 00 00	mov64 r1, 45
   15559:	7b 1a f0 ff 00 00 00 00	stxdw [r10 - 16], r1
   15560:	61 07 34 00 00 00 00 00	ldxw r7, [r0 + 52]
   15561:	bf 96 00 00 00 00 00 00	mov64 r6, r9
   15562:	07 06 00 00 01 00 00 00	add64 r6, 1
   15563:	79 51 00 f0 00 00 00 00	ldxdw r1, [r5 - 4096]
   15564:	7b 1a e0 ff 00 00 00 00	stxdw [r10 - 32], r1
   15565:	b7 04 00 00 00 00 00 00	mov64 r4, 0
   15566:	bf 71 00 00 00 00 00 00	mov64 r1, r7
   15567:	57 01 00 00 04 00 00 00	and64 r1, 4
   15568:	bf 85 00 00 00 00 00 00	mov64 r5, r8
   15569:	15 01 21 00 00 00 00 00	jeq r1, 0, +33 <custom_panic+0x13320>
   15570:	b7 01 00 00 20 00 00 00	mov64 r1, 32
   15571:	7b 0a d8 ff 00 00 00 00	stxdw [r10 - 40], r0
   15572:	7b 3a f8 ff 00 00 00 00	stxdw [r10 - 8], r3
   15573:	2d 51 05 00 00 00 00 00	jgt r1, r5, +5 <custom_panic+0x13260>
   15574:	bf 31 00 00 00 00 00 00	mov64 r1, r3
   15575:	bf 58 00 00 00 00 00 00	mov64 r8, r5
   15576:	bf 52 00 00 00 00 00 00	mov64 r2, r5
   15577:	85 10 00 00 9a 04 00 00	call 1178
   15578:	05 00 0b 00 00 00 00 00	ja +11 <custom_panic+0x132b8>
   15579:	bf 51 00 00 00 00 00 00	mov64 r1, r5
   15580:	b7 00 00 00 00 00 00 00	mov64 r0, 0
   15581:	bf 18 00 00 00 00 00 00	mov64 r8, r1
   15582:	15 01 07 00 00 00 00 00	jeq r1, 0, +7 <custom_panic+0x132b8>
   15583:	79 a1 f8 ff 00 00 00 00	ldxdw r1, [r10 - 8]
   15584:	bf 82 00 00 00 00 00 00	mov64 r2, r8
   15585:	05 00 0a 00 00 00 00 00	ja +10 <custom_panic+0x132e8>
   15586:	0f 30 00 00 00 00 00 00	add64 r0, r3
   15587:	07 01 00 00 01 00 00 00	add64 r1, 1
   15588:	07 02 00 00 ff ff ff ff	add64 r2, -1
   15589:	55 02 06 00 00 00 00 00	jne r2, 0, +6 <custom_panic+0x132e8>
   15590:	0f 60 00 00 00 00 00 00	add64 r0, r6
   15591:	79 a4 f8 ff 00 00 00 00	ldxdw r4, [r10 - 8]
   15592:	bf 06 00 00 00 00 00 00	mov64 r6, r0
   15593:	bf 85 00 00 00 00 00 00	mov64 r5, r8
   15594:	79 a0 d8 ff 00 00 00 00	ldxdw r0, [r10 - 40]
   15595:	05 00 07 00 00 00 00 00	ja +7 <custom_panic+0x13320>
   15596:	71 14 00 00 00 00 00 00	ldxb r4, [r1 + 0]
   15597:	67 04 00 00 38 00 00 00	lsh64 r4, 56
   15598:	c7 04 00 00 38 00 00 00	arsh64 r4, 56
   15599:	b7 03 00 00 01 00 00 00	mov64 r3, 1
   15600:	65 04 f1 ff bf ff ff ff	jsgt r4, -65, -15 <custom_panic+0x13298>
   15601:	b7 03 00 00 00 00 00 00	mov64 r3, 0
   15602:	05 00 ef ff 00 00 00 00	ja -17 <custom_panic+0x13298>
   15603:	7b 9a e8 ff 00 00 00 00	stxdw [r10 - 24], r9
   15604:	79 01 00 00 00 00 00 00	ldxdw r1, [r0 + 0]
   15605:	55 01 09 00 00 00 00 00	jne r1, 0, +9 <custom_panic+0x13380>
   15606:	79 08 28 00 00 00 00 00	ldxdw r8, [r0 + 40]
   15607:	79 06 20 00 00 00 00 00	ldxdw r6, [r0 + 32]
   15608:	bf 61 00 00 00 00 00 00	mov64 r1, r6
   15609:	bf 82 00 00 00 00 00 00	mov64 r2, r8
   15610:	79 a3 f0 ff 00 00 00 00	ldxdw r3, [r10 - 16]
   15611:	85 10 00 00 81 00 00 00	call 129
   15612:	b7 07 00 00 01 00 00 00	mov64 r7, 1
   15613:	55 00 20 00 00 00 00 00	jne r0, 0, +32 <custom_panic+0x13478>
   15614:	05 00 19 00 00 00 00 00	ja +25 <custom_panic+0x13448>
   15615:	79 09 08 00 00 00 00 00	ldxdw r9, [r0 + 8]
   15616:	2d 69 01 00 00 00 00 00	jgt r9, r6, +1 <custom_panic+0x13398>
   15617:	05 00 0e 00 00 00 00 00	ja +14 <custom_panic+0x13408>
   15618:	57 07 00 00 08 00 00 00	and64 r7, 8
   15619:	15 07 01 00 00 00 00 00	jeq r7, 0, +1 <custom_panic+0x133b0>
   15620:	05 00 1c 00 00 00 00 00	ja +28 <custom_panic+0x13490>
   15621:	1f 69 00 00 00 00 00 00	sub64 r9, r6
   15622:	71 08 38 00 00 00 00 00	ldxb r8, [r0 + 56]
   15623:	7b 5a c8 ff 00 00 00 00	stxdw [r10 - 56], r5
   15624:	7b 4a c0 ff 00 00 00 00	stxdw [r10 - 64], r4
   15625:	65 08 31 00 01 00 00 00	jsgt r8, 1, +49 <custom_panic+0x13560>
   15626:	7b 9a d0 ff 00 00 00 00	stxdw [r10 - 48], r9
   15627:	15 08 43 00 00 00 00 00	jeq r8, 0, +67 <custom_panic+0x13600>
   15628:	b7 01 00 00 00 00 00 00	mov64 r1, 0
   15629:	7b 1a d0 ff 00 00 00 00	stxdw [r10 - 48], r1
   15630:	bf 98 00 00 00 00 00 00	mov64 r8, r9
   15631:	05 00 3f 00 00 00 00 00	ja +63 <custom_panic+0x13600>
   15632:	79 08 28 00 00 00 00 00	ldxdw r8, [r0 + 40]
   15633:	79 06 20 00 00 00 00 00	ldxdw r6, [r0 + 32]
   15634:	bf 61 00 00 00 00 00 00	mov64 r1, r6
   15635:	bf 82 00 00 00 00 00 00	mov64 r2, r8
   15636:	79 a3 f0 ff 00 00 00 00	ldxdw r3, [r10 - 16]
   15637:	85 10 00 00 67 00 00 00	call 103
   15638:	b7 07 00 00 01 00 00 00	mov64 r7, 1
   15639:	55 00 06 00 00 00 00 00	jne r0, 0, +6 <custom_panic+0x13478>
   15640:	79 84 18 00 00 00 00 00	ldxdw r4, [r8 + 24]
   15641:	bf 61 00 00 00 00 00 00	mov64 r1, r6
   15642:	79 a2 e0 ff 00 00 00 00	ldxdw r2, [r10 - 32]
   15643:	79 a3 e8 ff 00 00 00 00	ldxdw r3, [r10 - 24]
   15644:	8d 00 00 00 04 00 00 00	callx r4
   15645:	bf 07 00 00 00 00 00 00	mov64 r7, r0
   15646:	57 07 00 00 01 00 00 00	and64 r7, 1
   15647:	bf 70 00 00 00 00 00 00	mov64 r0, r7
   15648:	95 00 00 00 00 00 00 00	exit
   15649:	61 01 30 00 00 00 00 00	ldxw r1, [r0 + 48]
   15650:	7b 1a d0 ff 00 00 00 00	stxdw [r10 - 48], r1
   15651:	b7 01 00 00 30 00 00 00	mov64 r1, 48
   15652:	63 10 30 00 00 00 00 00	stxw [r0 + 48], r1
   15653:	71 01 38 00 00 00 00 00	ldxb r1, [r0 + 56]
   15654:	7b 1a b8 ff 00 00 00 00	stxdw [r10 - 72], r1
   15655:	b7 07 00 00 01 00 00 00	mov64 r7, 1
   15656:	73 70 38 00 00 00 00 00	stxb [r0 + 56], r7
   15657:	79 01 20 00 00 00 00 00	ldxdw r1, [r0 + 32]
   15658:	7b 0a d8 ff 00 00 00 00	stxdw [r10 - 40], r0
   15659:	79 02 28 00 00 00 00 00	ldxdw r2, [r0 + 40]
   15660:	7b 1a f8 ff 00 00 00 00	stxdw [r10 - 8], r1
   15661:	bf 28 00 00 00 00 00 00	mov64 r8, r2
   15662:	79 a3 f0 ff 00 00 00 00	ldxdw r3, [r10 - 16]
   15663:	85 10 00 00 4d 00 00 00	call 77
   15664:	55 00 ed ff 00 00 00 00	jne r0, 0, -19 <custom_panic+0x13478>
   15665:	1f 69 00 00 00 00 00 00	sub64 r9, r6
   15666:	07 09 00 00 01 00 00 00	add64 r9, 1
   15667:	07 09 00 00 ff ff ff ff	add64 r9, -1
   15668:	15 09 08 00 00 00 00 00	jeq r9, 0, +8 <custom_panic+0x13570>
   15669:	79 83 20 00 00 00 00 00	ldxdw r3, [r8 + 32]
   15670:	79 a1 f8 ff 00 00 00 00	ldxdw r1, [r10 - 8]
   15671:	b7 02 00 00 30 00 00 00	mov64 r2, 48
   15672:	8d 00 00 00 03 00 00 00	callx r3
   15673:	55 00 e4 ff 00 00 00 00	jne r0, 0, -28 <custom_panic+0x13478>
   15674:	05 00 f8 ff 00 00 00 00	ja -8 <custom_panic+0x13520>
   15675:	15 08 0e 00 02 00 00 00	jeq r8, 2, +14 <custom_panic+0x135d8>
   15676:	05 00 cf ff 00 00 00 00	ja -49 <custom_panic+0x133e8>
   15677:	79 84 18 00 00 00 00 00	ldxdw r4, [r8 + 24]
   15678:	79 a1 f8 ff 00 00 00 00	ldxdw r1, [r10 - 8]
   15679:	79 a2 e0 ff 00 00 00 00	ldxdw r2, [r10 - 32]
   15680:	79 a3 e8 ff 00 00 00 00	ldxdw r3, [r10 - 24]
   15681:	8d 00 00 00 04 00 00 00	callx r4
   15682:	55 00 db ff 00 00 00 00	jne r0, 0, -37 <custom_panic+0x13478>
   15683:	79 a8 d8 ff 00 00 00 00	ldxdw r8, [r10 - 40]
   15684:	79 a1 b8 ff 00 00 00 00	ldxdw r1, [r10 - 72]
   15685:	73 18 38 00 00 00 00 00	stxb [r8 + 56], r1
   15686:	79 a1 d0 ff 00 00 00 00	ldxdw r1, [r10 - 48]
   15687:	63 18 30 00 00 00 00 00	stxw [r8 + 48], r1
   15688:	b7 07 00 00 00 00 00 00	mov64 r7, 0
   15689:	05 00 d4 ff 00 00 00 00	ja -44 <custom_panic+0x13478>
   15690:	bf 98 00 00 00 00 00 00	mov64 r8, r9
   15691:	77 08 00 00 01 00 00 00	rsh64 r8, 1
   15692:	07 09 00 00 01 00 00 00	add64 r9, 1
   15693:	77 09 00 00 01 00 00 00	rsh64 r9, 1
   15694:	7b 9a d0 ff 00 00 00 00	stxdw [r10 - 48], r9
   15695:	07 08 00 00 01 00 00 00	add64 r8, 1
   15696:	61 01 30 00 00 00 00 00	ldxw r1, [r0 + 48]
   15697:	7b 1a f8 ff 00 00 00 00	stxdw [r10 - 8], r1
   15698:	79 06 28 00 00 00 00 00	ldxdw r6, [r0 + 40]
   15699:	79 09 20 00 00 00 00 00	ldxdw r9, [r0 + 32]
   15700:	b7 07 00 00 01 00 00 00	mov64 r7, 1
   15701:	07 08 00 00 ff ff ff ff	add64 r8, -1
   15702:	15 08 06 00 00 00 00 00	jeq r8, 0, +6 <custom_panic+0x13670>
   15703:	79 63 20 00 00 00 00 00	ldxdw r3, [r6 + 32]
   15704:	bf 91 00 00 00 00 00 00	mov64 r1, r9
   15705:	79 a2 f8 ff 00 00 00 00	ldxdw r2, [r10 - 8]
   15706:	8d 00 00 00 03 00 00 00	callx r3
   15707:	55 00 c2 ff 00 00 00 00	jne r0, 0, -62 <custom_panic+0x13478>
   15708:	05 00 f8 ff 00 00 00 00	ja -8 <custom_panic+0x13630>
   15709:	b7 07 00 00 01 00 00 00	mov64 r7, 1
   15710:	79 a1 f8 ff 00 00 00 00	ldxdw r1, [r10 - 8]
   15711:	15 01 be ff 00 00 11 00	jeq r1, 1114112, -66 <custom_panic+0x13478>
   15712:	bf 91 00 00 00 00 00 00	mov64 r1, r9
   15713:	bf 62 00 00 00 00 00 00	mov64 r2, r6
   15714:	79 a3 f0 ff 00 00 00 00	ldxdw r3, [r10 - 16]
   15715:	79 a4 c0 ff 00 00 00 00	ldxdw r4, [r10 - 64]
   15716:	79 a5 c8 ff 00 00 00 00	ldxdw r5, [r10 - 56]
   15717:	85 10 00 00 17 00 00 00	call 23
   15718:	55 00 b7 ff 00 00 00 00	jne r0, 0, -73 <custom_panic+0x13478>
   15719:	79 64 18 00 00 00 00 00	ldxdw r4, [r6 + 24]
   15720:	bf 91 00 00 00 00 00 00	mov64 r1, r9
   15721:	79 a2 e0 ff 00 00 00 00	ldxdw r2, [r10 - 32]
   15722:	79 a3 e8 ff 00 00 00 00	ldxdw r3, [r10 - 24]
   15723:	8d 00 00 00 04 00 00 00	callx r4
   15724:	55 00 b1 ff 00 00 00 00	jne r0, 0, -79 <custom_panic+0x13478>
   15725:	b7 07 00 00 00 00 00 00	mov64 r7, 0
   15726:	79 a8 d0 ff 00 00 00 00	ldxdw r8, [r10 - 48]
   15727:	bf 81 00 00 00 00 00 00	mov64 r1, r8
   15728:	1d 78 08 00 00 00 00 00	jeq r8, r7, +8 <custom_panic+0x13750>
   15729:	79 63 20 00 00 00 00 00	ldxdw r3, [r6 + 32]
   15730:	bf 91 00 00 00 00 00 00	mov64 r1, r9
   15731:	79 a2 f8 ff 00 00 00 00	ldxdw r2, [r10 - 8]
   15732:	8d 00 00 00 03 00 00 00	callx r3
   15733:	07 07 00 00 01 00 00 00	add64 r7, 1
   15734:	15 00 f8 ff 00 00 00 00	jeq r0, 0, -8 <custom_panic+0x13700>
   15735:	07 07 00 00 ff ff ff ff	add64 r7, -1
   15736:	bf 71 00 00 00 00 00 00	mov64 r1, r7
   15737:	b7 07 00 00 01 00 00 00	mov64 r7, 1
   15738:	2d 18 a3 ff 00 00 00 00	jgt r8, r1, -93 <custom_panic+0x13478>
   15739:	b7 07 00 00 00 00 00 00	mov64 r7, 0
   15740:	05 00 a1 ff 00 00 00 00	ja -95 <custom_panic+0x13478>
   15741:	bf 56 00 00 00 00 00 00	mov64 r6, r5
   15742:	bf 47 00 00 00 00 00 00	mov64 r7, r4
   15743:	bf 29 00 00 00 00 00 00	mov64 r9, r2
   15744:	bf 18 00 00 00 00 00 00	mov64 r8, r1
   15745:	bf 31 00 00 00 00 00 00	mov64 r1, r3
   15746:	67 01 00 00 20 00 00 00	lsh64 r1, 32
   15747:	77 01 00 00 20 00 00 00	rsh64 r1, 32
   15748:	15 01 07 00 00 00 11 00	jeq r1, 1114112, +7 <custom_panic+0x137e8>
   15749:	79 94 20 00 00 00 00 00	ldxdw r4, [r9 + 32]
   15750:	bf 81 00 00 00 00 00 00	mov64 r1, r8
   15751:	bf 32 00 00 00 00 00 00	mov64 r2, r3
   15752:	8d 00 00 00 04 00 00 00	callx r4
   15753:	bf 01 00 00 00 00 00 00	mov64 r1, r0
   15754:	b7 00 00 00 01 00 00 00	mov64 r0, 1
   15755:	55 01 02 00 00 00 00 00	jne r1, 0, +2 <custom_panic+0x137f8>
   15756:	b7 00 00 00 00 00 00 00	mov64 r0, 0
   15757:	55 07 01 00 00 00 00 00	jne r7, 0, +1 <custom_panic+0x13800>
   15758:	95 00 00 00 00 00 00 00	exit
   15759:	79 94 18 00 00 00 00 00	ldxdw r4, [r9 + 24]
   15760:	bf 81 00 00 00 00 00 00	mov64 r1, r8
   15761:	bf 72 00 00 00 00 00 00	mov64 r2, r7
   15762:	bf 63 00 00 00 00 00 00	mov64 r3, r6
   15763:	8d 00 00 00 04 00 00 00	callx r4
   15764:	05 00 f9 ff 00 00 00 00	ja -7 <custom_panic+0x137f8>
   15765:	bf 18 00 00 00 00 00 00	mov64 r8, r1
   15766:	79 85 10 00 00 00 00 00	ldxdw r5, [r8 + 16]
   15767:	79 81 00 00 00 00 00 00	ldxdw r1, [r8 + 0]
   15768:	bf 14 00 00 00 00 00 00	mov64 r4, r1
   15769:	4f 54 00 00 00 00 00 00	or64 r4, r5
   15770:	15 04 33 00 00 00 00 00	jeq r4, 0, +51 <custom_panic+0x139f8>
   15771:	7b 2a f0 ff 00 00 00 00	stxdw [r10 - 16], r2
   15772:	7b 3a e8 ff 00 00 00 00	stxdw [r10 - 24], r3
   15773:	15 05 43 00 00 00 00 00	jeq r5, 0, +67 <custom_panic+0x13a90>
   15774:	79 a7 f0 ff 00 00 00 00	ldxdw r7, [r10 - 16]
   15775:	bf 73 00 00 00 00 00 00	mov64 r3, r7
   15776:	79 a2 e8 ff 00 00 00 00	ldxdw r2, [r10 - 24]
   15777:	0f 23 00 00 00 00 00 00	add64 r3, r2
   15778:	b7 02 00 00 00 00 00 00	mov64 r2, 0
   15779:	79 84 18 00 00 00 00 00	ldxdw r4, [r8 + 24]
   15780:	15 04 1a 00 00 00 00 00	jeq r4, 0, +26 <custom_panic+0x13980>
   15781:	b7 06 00 00 00 00 00 00	mov64 r6, 0
   15782:	79 a7 f0 ff 00 00 00 00	ldxdw r7, [r10 - 16]
   15783:	bf 79 00 00 00 00 00 00	mov64 r9, r7
   15784:	1d 39 38 00 00 00 00 00	jeq r9, r3, +56 <custom_panic+0x13a90>
   15785:	bf 97 00 00 00 00 00 00	mov64 r7, r9
   15786:	07 07 00 00 01 00 00 00	add64 r7, 1
   15787:	71 95 00 00 00 00 00 00	ldxb r5, [r9 + 0]
   15788:	bf 50 00 00 00 00 00 00	mov64 r0, r5
   15789:	67 00 00 00 38 00 00 00	lsh64 r0, 56
   15790:	c7 00 00 00 38 00 00 00	arsh64 r0, 56
   15791:	65 00 0b 00 ff ff ff ff	jsgt r0, -1, +11 <custom_panic+0x13960>
   15792:	bf 97 00 00 00 00 00 00	mov64 r7, r9
   15793:	07 07 00 00 02 00 00 00	add64 r7, 2
   15794:	bf 50 00 00 00 00 00 00	mov64 r0, r5
   15795:	b7 05 00 00 e0 00 00 00	mov64 r5, 224
   15796:	2d 05 06 00 00 00 00 00	jgt r5, r0, +6 <custom_panic+0x13960>
   15797:	bf 97 00 00 00 00 00 00	mov64 r7, r9
   15798:	07 07 00 00 03 00 00 00	add64 r7, 3
   15799:	b7 05 00 00 f0 00 00 00	mov64 r5, 240
   15800:	2d 05 02 00 00 00 00 00	jgt r5, r0, +2 <custom_panic+0x13960>
   15801:	bf 97 00 00 00 00 00 00	mov64 r7, r9
   15802:	07 07 00 00 04 00 00 00	add64 r7, 4
   15803:	07 06 00 00 01 00 00 00	add64 r6, 1
   15804:	1f 92 00 00 00 00 00 00	sub64 r2, r9
   15805:	0f 72 00 00 00 00 00 00	add64 r2, r7
   15806:	2d 64 e8 ff 00 00 00 00	jgt r4, r6, -24 <custom_panic+0x138c0>
   15807:	1d 37 21 00 00 00 00 00	jeq r7, r3, +33 <custom_panic+0x13a90>
   15808:	71 73 00 00 00 00 00 00	ldxb r3, [r7 + 0]
   15809:	bf 34 00 00 00 00 00 00	mov64 r4, r3
   15810:	67 04 00 00 38 00 00 00	lsh64 r4, 56
   15811:	c7 04 00 00 38 00 00 00	arsh64 r4, 56
   15812:	65 04 02 00 ff ff ff ff	jsgt r4, -1, +2 <custom_panic+0x139c0>
   15813:	b7 04 00 00 e0 00 00 00	mov64 r4, 224
   15814:	2d 34 00 00 00 00 00 00	jgt r4, r3, +0 <custom_panic+0x139c0>
   15815:	79 a0 e8 ff 00 00 00 00	ldxdw r0, [r10 - 24]
   15816:	79 a6 f0 ff 00 00 00 00	ldxdw r6, [r10 - 16]
   15817:	15 02 10 00 00 00 00 00	jeq r2, 0, +16 <custom_panic+0x13a58>
   15818:	2d 20 07 00 00 00 00 00	jgt r0, r2, +7 <custom_panic+0x13a18>
   15819:	b7 03 00 00 00 00 00 00	mov64 r3, 0
   15820:	1d 02 0d 00 00 00 00 00	jeq r2, r0, +13 <custom_panic+0x13a58>
   15821:	05 00 0d 00 00 00 00 00	ja +13 <custom_panic+0x13a60>
   15822:	79 81 20 00 00 00 00 00	ldxdw r1, [r8 + 32]
   15823:	79 84 28 00 00 00 00 00	ldxdw r4, [r8 + 40]
   15824:	79 44 18 00 00 00 00 00	ldxdw r4, [r4 + 24]
   15825:	05 00 3f 00 00 00 00 00	ja +63 <custom_panic+0x13c10>
   15826:	bf 64 00 00 00 00 00 00	mov64 r4, r6
   15827:	0f 24 00 00 00 00 00 00	add64 r4, r2
   15828:	b7 03 00 00 00 00 00 00	mov64 r3, 0
   15829:	71 44 00 00 00 00 00 00	ldxb r4, [r4 + 0]
   15830:	67 04 00 00 38 00 00 00	lsh64 r4, 56
   15831:	c7 04 00 00 38 00 00 00	arsh64 r4, 56
   15832:	b7 05 00 00 c0 ff ff ff	mov64 r5, -64
   15833:	6d 45 01 00 00 00 00 00	jsgt r5, r4, +1 <custom_panic+0x13a60>
   15834:	bf 63 00 00 00 00 00 00	mov64 r3, r6
   15835:	15 03 01 00 00 00 00 00	jeq r3, 0, +1 <custom_panic+0x13a70>
   15836:	bf 20 00 00 00 00 00 00	mov64 r0, r2
   15837:	7b 0a e8 ff 00 00 00 00	stxdw [r10 - 24], r0
   15838:	15 03 01 00 00 00 00 00	jeq r3, 0, +1 <custom_panic+0x13a88>
   15839:	bf 36 00 00 00 00 00 00	mov64 r6, r3
   15840:	7b 6a f0 ff 00 00 00 00	stxdw [r10 - 16], r6
   15841:	55 01 06 00 00 00 00 00	jne r1, 0, +6 <custom_panic+0x13ac8>
   15842:	79 81 20 00 00 00 00 00	ldxdw r1, [r8 + 32]
   15843:	79 82 28 00 00 00 00 00	ldxdw r2, [r8 + 40]
   15844:	79 24 18 00 00 00 00 00	ldxdw r4, [r2 + 24]
   15845:	79 a2 f0 ff 00 00 00 00	ldxdw r2, [r10 - 16]
   15846:	79 a3 e8 ff 00 00 00 00	ldxdw r3, [r10 - 24]
   15847:	05 00 29 00 00 00 00 00	ja +41 <custom_panic+0x13c10>
   15848:	79 87 08 00 00 00 00 00	ldxdw r7, [r8 + 8]
   15849:	b7 01 00 00 20 00 00 00	mov64 r1, 32
   15850:	79 a6 e8 ff 00 00 00 00	ldxdw r6, [r10 - 24]
   15851:	79 a9 f0 ff 00 00 00 00	ldxdw r9, [r10 - 16]
   15852:	2d 61 04 00 00 00 00 00	jgt r1, r6, +4 <custom_panic+0x13b10>
   15853:	bf 91 00 00 00 00 00 00	mov64 r1, r9
   15854:	bf 62 00 00 00 00 00 00	mov64 r2, r6
   15855:	85 10 00 00 84 03 00 00	call 900
   15856:	05 00 09 00 00 00 00 00	ja +9 <custom_panic+0x13b58>
   15857:	b7 00 00 00 00 00 00 00	mov64 r0, 0
   15858:	15 06 07 00 00 00 00 00	jeq r6, 0, +7 <custom_panic+0x13b58>
   15859:	bf 91 00 00 00 00 00 00	mov64 r1, r9
   15860:	bf 62 00 00 00 00 00 00	mov64 r2, r6
   15861:	05 00 0f 00 00 00 00 00	ja +15 <custom_panic+0x13bb0>
   15862:	0f 30 00 00 00 00 00 00	add64 r0, r3
   15863:	07 01 00 00 01 00 00 00	add64 r1, 1
   15864:	07 02 00 00 ff ff ff ff	add64 r2, -1
   15865:	55 02 0b 00 00 00 00 00	jne r2, 0, +11 <custom_panic+0x13bb0>
   15866:	3d 70 11 00 00 00 00 00	jge r0, r7, +17 <custom_panic+0x13be8>
   15867:	1f 07 00 00 00 00 00 00	sub64 r7, r0
   15868:	b7 06 00 00 00 00 00 00	mov64 r6, 0
   15869:	71 81 38 00 00 00 00 00	ldxb r1, [r8 + 56]
   15870:	65 01 17 00 01 00 00 00	jsgt r1, 1, +23 <custom_panic+0x13c38>
   15871:	7b 7a e0 ff 00 00 00 00	stxdw [r10 - 32], r7
   15872:	15 01 1c 00 00 00 00 00	jeq r1, 0, +28 <custom_panic+0x13c70>
   15873:	b7 01 00 00 00 00 00 00	mov64 r1, 0
   15874:	7b 1a e0 ff 00 00 00 00	stxdw [r10 - 32], r1
   15875:	bf 76 00 00 00 00 00 00	mov64 r6, r7
   15876:	05 00 18 00 00 00 00 00	ja +24 <custom_panic+0x13c70>
   15877:	71 14 00 00 00 00 00 00	ldxb r4, [r1 + 0]
   15878:	67 04 00 00 38 00 00 00	lsh64 r4, 56
   15879:	c7 04 00 00 38 00 00 00	arsh64 r4, 56
   15880:	b7 03 00 00 01 00 00 00	mov64 r3, 1
   15881:	65 04 ec ff bf ff ff ff	jsgt r4, -65, -20 <custom_panic+0x13b38>
   15882:	b7 03 00 00 00 00 00 00	mov64 r3, 0
   15883:	05 00 ea ff 00 00 00 00	ja -22 <custom_panic+0x13b38>
   15884:	79 81 20 00 00 00 00 00	ldxdw r1, [r8 + 32]
   15885:	79 82 28 00 00 00 00 00	ldxdw r2, [r8 + 40]
   15886:	79 24 18 00 00 00 00 00	ldxdw r4, [r2 + 24]
   15887:	bf 92 00 00 00 00 00 00	mov64 r2, r9
   15888:	bf 63 00 00 00 00 00 00	mov64 r3, r6
   15889:	8d 00 00 00 04 00 00 00	callx r4
   15890:	bf 07 00 00 00 00 00 00	mov64 r7, r0
   15891:	57 07 00 00 01 00 00 00	and64 r7, 1
   15892:	bf 70 00 00 00 00 00 00	mov64 r0, r7
   15893:	95 00 00 00 00 00 00 00	exit
   15894:	15 01 01 00 02 00 00 00	jeq r1, 2, +1 <custom_panic+0x13c48>
   15895:	05 00 04 00 00 00 00 00	ja +4 <custom_panic+0x13c68>
   15896:	bf 76 00 00 00 00 00 00	mov64 r6, r7
   15897:	77 06 00 00 01 00 00 00	rsh64 r6, 1
   15898:	07 07 00 00 01 00 00 00	add64 r7, 1
   15899:	77 07 00 00 01 00 00 00	rsh64 r7, 1
   15900:	7b 7a e0 ff 00 00 00 00	stxdw [r10 - 32], r7
   15901:	07 06 00 00 01 00 00 00	add64 r6, 1
   15902:	61 89 30 00 00 00 00 00	ldxw r9, [r8 + 48]
   15903:	79 81 28 00 00 00 00 00	ldxdw r1, [r8 + 40]
   15904:	7b 1a f8 ff 00 00 00 00	stxdw [r10 - 8], r1
   15905:	79 88 20 00 00 00 00 00	ldxdw r8, [r8 + 32]
   15906:	b7 07 00 00 01 00 00 00	mov64 r7, 1
   15907:	07 06 00 00 ff ff ff ff	add64 r6, -1
   15908:	15 06 07 00 00 00 00 00	jeq r6, 0, +7 <custom_panic+0x13ce8>
   15909:	79 a1 f8 ff 00 00 00 00	ldxdw r1, [r10 - 8]
   15910:	79 13 20 00 00 00 00 00	ldxdw r3, [r1 + 32]
   15911:	bf 81 00 00 00 00 00 00	mov64 r1, r8
   15912:	bf 92 00 00 00 00 00 00	mov64 r2, r9
   15913:	8d 00 00 00 03 00 00 00	callx r3
   15914:	55 00 e8 ff 00 00 00 00	jne r0, 0, -24 <custom_panic+0x13c20>
   15915:	05 00 f7 ff 00 00 00 00	ja -9 <custom_panic+0x13ca0>
   15916:	b7 07 00 00 01 00 00 00	mov64 r7, 1
   15917:	bf 91 00 00 00 00 00 00	mov64 r1, r9
   15918:	15 01 e4 ff 00 00 11 00	jeq r1, 1114112, -28 <custom_panic+0x13c20>
   15919:	79 a1 f8 ff 00 00 00 00	ldxdw r1, [r10 - 8]
   15920:	79 14 18 00 00 00 00 00	ldxdw r4, [r1 + 24]
   15921:	bf 81 00 00 00 00 00 00	mov64 r1, r8
   15922:	79 a2 f0 ff 00 00 00 00	ldxdw r2, [r10 - 16]
   15923:	79 a3 e8 ff 00 00 00 00	ldxdw r3, [r10 - 24]
   15924:	8d 00 00 00 04 00 00 00	callx r4
   15925:	55 00 dd ff 00 00 00 00	jne r0, 0, -35 <custom_panic+0x13c20>
   15926:	b7 06 00 00 00 00 00 00	mov64 r6, 0
   15927:	79 a7 e0 ff 00 00 00 00	ldxdw r7, [r10 - 32]
   15928:	bf 71 00 00 00 00 00 00	mov64 r1, r7
   15929:	1d 67 09 00 00 00 00 00	jeq r7, r6, +9 <custom_panic+0x13da0>
   15930:	79 a1 f8 ff 00 00 00 00	ldxdw r1, [r10 - 8]
   15931:	79 13 20 00 00 00 00 00	ldxdw r3, [r1 + 32]
   15932:	bf 81 00 00 00 00 00 00	mov64 r1, r8
   15933:	bf 92 00 00 00 00 00 00	mov64 r2, r9
   15934:	8d 00 00 00 03 00 00 00	callx r3
   15935:	07 06 00 00 01 00 00 00	add64 r6, 1
   15936:	15 00 f7 ff 00 00 00 00	jeq r0, 0, -9 <custom_panic+0x13d48>
   15937:	07 06 00 00 ff ff ff ff	add64 r6, -1
   15938:	bf 61 00 00 00 00 00 00	mov64 r1, r6
   15939:	bf 72 00 00 00 00 00 00	mov64 r2, r7
   15940:	b7 07 00 00 01 00 00 00	mov64 r7, 1
   15941:	2d 12 cd ff 00 00 00 00	jgt r2, r1, -51 <custom_panic+0x13c20>
   15942:	b7 07 00 00 00 00 00 00	mov64 r7, 0
   15943:	05 00 cb ff 00 00 00 00	ja -53 <custom_panic+0x13c20>
   15944:	79 14 20 00 00 00 00 00	ldxdw r4, [r1 + 32]
   15945:	79 11 28 00 00 00 00 00	ldxdw r1, [r1 + 40]
   15946:	79 15 18 00 00 00 00 00	ldxdw r5, [r1 + 24]
   15947:	bf 41 00 00 00 00 00 00	mov64 r1, r4
   15948:	8d 00 00 00 05 00 00 00	callx r5
   15949:	95 00 00 00 00 00 00 00	exit
   15950:	79 16 28 00 00 00 00 00	ldxdw r6, [r1 + 40]
   15951:	79 17 20 00 00 00 00 00	ldxdw r7, [r1 + 32]
   15952:	bf a8 00 00 00 00 00 00	mov64 r8, r10
   15953:	07 08 00 00 d0 ff ff ff	add64 r8, -48
   15954:	bf 81 00 00 00 00 00 00	mov64 r1, r8
   15955:	b7 03 00 00 30 00 00 00	mov64 r3, 48
   15956:	85 10 00 00 45 09 00 00	call 2373
   15957:	bf 71 00 00 00 00 00 00	mov64 r1, r7
   15958:	bf 62 00 00 00 00 00 00	mov64 r2, r6
   15959:	bf 83 00 00 00 00 00 00	mov64 r3, r8
   15960:	85 10 00 00 d6 fd ff ff	call -554
   15961:	95 00 00 00 00 00 00 00	exit
   15962:	61 10 34 00 00 00 00 00	ldxw r0, [r1 + 52]
   15963:	57 00 00 00 10 00 00 00	and64 r0, 16
   15964:	77 00 00 00 04 00 00 00	rsh64 r0, 4
   15965:	95 00 00 00 00 00 00 00	exit
   15966:	61 10 34 00 00 00 00 00	ldxw r0, [r1 + 52]
   15967:	57 00 00 00 20 00 00 00	and64 r0, 32
   15968:	77 00 00 00 05 00 00 00	rsh64 r0, 5
   15969:	95 00 00 00 00 00 00 00	exit
   15970:	bf 26 00 00 00 00 00 00	mov64 r6, r2
   15971:	bf 17 00 00 00 00 00 00	mov64 r7, r1
   15972:	79 61 28 00 00 00 00 00	ldxdw r1, [r6 + 40]
   15973:	79 15 18 00 00 00 00 00	ldxdw r5, [r1 + 24]
   15974:	79 61 20 00 00 00 00 00	ldxdw r1, [r6 + 32]
   15975:	bf 32 00 00 00 00 00 00	mov64 r2, r3
   15976:	bf 43 00 00 00 00 00 00	mov64 r3, r4
   15977:	8d 00 00 00 05 00 00 00	callx r5
   15978:	b7 01 00 00 00 00 00 00	mov64 r1, 0
   15979:	73 17 09 00 00 00 00 00	stxb [r7 + 9], r1
   15980:	73 07 08 00 00 00 00 00	stxb [r7 + 8], r0
   15981:	7b 67 00 00 00 00 00 00	stxdw [r7 + 0], r6
   15982:	95 00 00 00 00 00 00 00	exit
   15983:	bf 56 00 00 00 00 00 00	mov64 r6, r5
   15984:	bf 47 00 00 00 00 00 00	mov64 r7, r4
   15985:	bf 18 00 00 00 00 00 00	mov64 r8, r1
   15986:	79 81 28 00 00 00 00 00	ldxdw r1, [r8 + 40]
   15987:	79 14 18 00 00 00 00 00	ldxdw r4, [r1 + 24]
   15988:	79 81 20 00 00 00 00 00	ldxdw r1, [r8 + 32]
   15989:	8d 00 00 00 04 00 00 00	callx r4
   15990:	b7 01 00 00 00 00 00 00	mov64 r1, 0
   15991:	73 1a f9 ff 00 00 00 00	stxb [r10 - 7], r1
   15992:	73 0a f8 ff 00 00 00 00	stxb [r10 - 8], r0
   15993:	7b 8a f0 ff 00 00 00 00	stxdw [r10 - 16], r8
   15994:	79 63 00 f0 00 00 00 00	ldxdw r3, [r6 - 4096]
   15995:	79 64 08 f0 00 00 00 00	ldxdw r4, [r6 - 4088]
   15996:	79 65 10 f0 00 00 00 00	ldxdw r5, [r6 - 4080]
   15997:	bf a8 00 00 00 00 00 00	mov64 r8, r10
   15998:	07 08 00 00 f0 ff ff ff	add64 r8, -16
   15999:	bf 81 00 00 00 00 00 00	mov64 r1, r8
   16000:	bf 72 00 00 00 00 00 00	mov64 r2, r7
   16001:	85 10 00 00 d7 fb ff ff	call -1065
   16002:	79 62 18 f0 00 00 00 00	ldxdw r2, [r6 - 4072]
   16003:	79 63 20 f0 00 00 00 00	ldxdw r3, [r6 - 4064]
   16004:	79 64 28 f0 00 00 00 00	ldxdw r4, [r6 - 4056]
   16005:	79 65 30 f0 00 00 00 00	ldxdw r5, [r6 - 4048]
   16006:	bf 81 00 00 00 00 00 00	mov64 r1, r8
   16007:	85 10 00 00 d1 fb ff ff	call -1071
   16008:	71 a1 f8 ff 00 00 00 00	ldxb r1, [r10 - 8]
   16009:	71 a2 f9 ff 00 00 00 00	ldxb r2, [r10 - 7]
   16010:	55 02 04 00 00 00 00 00	jne r2, 0, +4 <custom_panic+0x14000>
   16011:	b7 00 00 00 01 00 00 00	mov64 r0, 1
   16012:	55 01 16 00 00 00 00 00	jne r1, 0, +22 <custom_panic+0x140a0>
   16013:	b7 00 00 00 00 00 00 00	mov64 r0, 0
   16014:	05 00 14 00 00 00 00 00	ja +20 <custom_panic+0x140a0>
   16015:	b7 00 00 00 01 00 00 00	mov64 r0, 1
   16016:	55 01 12 00 00 00 00 00	jne r1, 0, +18 <custom_panic+0x140a0>
   16017:	79 a2 f0 ff 00 00 00 00	ldxdw r2, [r10 - 16]
   16018:	61 21 34 00 00 00 00 00	ldxw r1, [r2 + 52]
   16019:	57 01 00 00 04 00 00 00	and64 r1, 4
   16020:	55 01 07 00 00 00 00 00	jne r1, 0, +7 <custom_panic+0x14068>
   16021:	79 21 20 00 00 00 00 00	ldxdw r1, [r2 + 32]
   16022:	79 22 28 00 00 00 00 00	ldxdw r2, [r2 + 40]
   16023:	79 24 18 00 00 00 00 00	ldxdw r4, [r2 + 24]
   16024:	18 02 00 00 6d 6c 02 00 00 00 00 00 00 00 00 00	lddw r2, 158829
   16026:	b7 03 00 00 02 00 00 00	mov64 r3, 2
   16027:	05 00 06 00 00 00 00 00	ja +6 <custom_panic+0x14098>
   16028:	79 21 20 00 00 00 00 00	ldxdw r1, [r2 + 32]
   16029:	79 22 28 00 00 00 00 00	ldxdw r2, [r2 + 40]
   16030:	79 24 18 00 00 00 00 00	ldxdw r4, [r2 + 24]
   16031:	18 02 00 00 6c 6c 02 00 00 00 00 00 00 00 00 00	lddw r2, 158828
   16033:	b7 03 00 00 01 00 00 00	mov64 r3, 1
   16034:	8d 00 00 00 04 00 00 00	callx r4
   16035:	57 00 00 00 01 00 00 00	and64 r0, 1
   16036:	95 00 00 00 00 00 00 00	exit
   16037:	bf 47 00 00 00 00 00 00	mov64 r7, r4
   16038:	bf 28 00 00 00 00 00 00	mov64 r8, r2
   16039:	bf 16 00 00 00 00 00 00	mov64 r6, r1
   16040:	79 81 28 00 00 00 00 00	ldxdw r1, [r8 + 40]
   16041:	79 14 18 00 00 00 00 00	ldxdw r4, [r1 + 24]
   16042:	79 81 20 00 00 00 00 00	ldxdw r1, [r8 + 32]
   16043:	bf 32 00 00 00 00 00 00	mov64 r2, r3
   16044:	bf 73 00 00 00 00 00 00	mov64 r3, r7
   16045:	8d 00 00 00 04 00 00 00	callx r4
   16046:	73 06 10 00 00 00 00 00	stxb [r6 + 16], r0
   16047:	7b 86 08 00 00 00 00 00	stxdw [r6 + 8], r8
   16048:	b7 01 00 00 00 00 00 00	mov64 r1, 0
   16049:	b7 02 00 00 01 00 00 00	mov64 r2, 1
   16050:	15 07 01 00 00 00 00 00	jeq r7, 0, +1 <custom_panic+0x14128>
   16051:	b7 02 00 00 00 00 00 00	mov64 r2, 0
   16052:	73 26 11 00 00 00 00 00	stxb [r6 + 17], r2
   16053:	7b 16 00 00 00 00 00 00	stxdw [r6 + 0], r1
   16054:	95 00 00 00 00 00 00 00	exit
   16055:	bf 56 00 00 00 00 00 00	mov64 r6, r5
   16056:	bf 47 00 00 00 00 00 00	mov64 r7, r4
   16057:	bf 38 00 00 00 00 00 00	mov64 r8, r3
   16058:	bf 19 00 00 00 00 00 00	mov64 r9, r1
   16059:	79 91 28 00 00 00 00 00	ldxdw r1, [r9 + 40]
   16060:	79 14 18 00 00 00 00 00	ldxdw r4, [r1 + 24]
   16061:	79 91 20 00 00 00 00 00	ldxdw r1, [r9 + 32]
   16062:	8d 00 00 00 04 00 00 00	callx r4
   16063:	73 0a f8 ff 00 00 00 00	stxb [r10 - 8], r0
   16064:	7b 9a f0 ff 00 00 00 00	stxdw [r10 - 16], r9
   16065:	b7 01 00 00 00 00 00 00	mov64 r1, 0
   16066:	b7 02 00 00 01 00 00 00	mov64 r2, 1
   16067:	15 08 01 00 00 00 00 00	jeq r8, 0, +1 <custom_panic+0x141b0>
   16068:	b7 02 00 00 00 00 00 00	mov64 r2, 0
   16069:	73 2a f9 ff 00 00 00 00	stxb [r10 - 7], r2
   16070:	7b 1a e8 ff 00 00 00 00	stxdw [r10 - 24], r1
   16071:	bf a1 00 00 00 00 00 00	mov64 r1, r10
   16072:	07 01 00 00 e8 ff ff ff	add64 r1, -24
   16073:	bf 72 00 00 00 00 00 00	mov64 r2, r7
   16074:	bf 63 00 00 00 00 00 00	mov64 r3, r6
   16075:	85 10 00 00 29 fc ff ff	call -983
   16076:	71 a2 f8 ff 00 00 00 00	ldxb r2, [r10 - 8]
   16077:	79 a1 e8 ff 00 00 00 00	ldxdw r1, [r10 - 24]
   16078:	55 01 05 00 00 00 00 00	jne r1, 0, +5 <custom_panic+0x14228>
   16079:	bf 21 00 00 00 00 00 00	mov64 r1, r2
   16080:	b7 06 00 00 01 00 00 00	mov64 r6, 1
   16081:	55 01 1c 00 00 00 00 00	jne r1, 0, +28 <custom_panic+0x142f8>
   16082:	b7 06 00 00 00 00 00 00	mov64 r6, 0
   16083:	05 00 1a 00 00 00 00 00	ja +26 <custom_panic+0x142f8>
   16084:	b7 06 00 00 01 00 00 00	mov64 r6, 1
   16085:	55 02 18 00 00 00 00 00	jne r2, 0, +24 <custom_panic+0x142f8>
   16086:	79 a7 f0 ff 00 00 00 00	ldxdw r7, [r10 - 16]
   16087:	55 01 05 00 01 00 00 00	jne r1, 1, +5 <custom_panic+0x14270>
   16088:	71 a1 f9 ff 00 00 00 00	ldxb r1, [r10 - 7]
   16089:	15 01 03 00 00 00 00 00	jeq r1, 0, +3 <custom_panic+0x14270>
   16090:	61 71 34 00 00 00 00 00	ldxw r1, [r7 + 52]
   16091:	57 01 00 00 04 00 00 00	and64 r1, 4
   16092:	15 01 09 00 00 00 00 00	jeq r1, 0, +9 <custom_panic+0x142b8>
   16093:	79 71 20 00 00 00 00 00	ldxdw r1, [r7 + 32]
   16094:	79 72 28 00 00 00 00 00	ldxdw r2, [r7 + 40]
   16095:	79 24 18 00 00 00 00 00	ldxdw r4, [r2 + 24]
   16096:	18 02 00 00 13 6c 02 00 00 00 00 00 00 00 00 00	lddw r2, 158739
   16098:	b7 03 00 00 01 00 00 00	mov64 r3, 1
   16099:	8d 00 00 00 04 00 00 00	callx r4
   16100:	bf 06 00 00 00 00 00 00	mov64 r6, r0
   16101:	05 00 08 00 00 00 00 00	ja +8 <custom_panic+0x142f8>
   16102:	79 71 20 00 00 00 00 00	ldxdw r1, [r7 + 32]
   16103:	79 72 28 00 00 00 00 00	ldxdw r2, [r7 + 40]
   16104:	79 24 18 00 00 00 00 00	ldxdw r4, [r2 + 24]
   16105:	18 02 00 00 72 6c 02 00 00 00 00 00 00 00 00 00	lddw r2, 158834
   16107:	b7 03 00 00 01 00 00 00	mov64 r3, 1
   16108:	8d 00 00 00 04 00 00 00	callx r4
   16109:	15 00 ef ff 00 00 00 00	jeq r0, 0, -17 <custom_panic+0x14270>
   16110:	57 06 00 00 01 00 00 00	and64 r6, 1
   16111:	bf 60 00 00 00 00 00 00	mov64 r0, r6
   16112:	95 00 00 00 00 00 00 00	exit
   16113:	bf 29 00 00 00 00 00 00	mov64 r9, r2
   16114:	bf 17 00 00 00 00 00 00	mov64 r7, r1
   16115:	79 36 20 00 00 00 00 00	ldxdw r6, [r3 + 32]
   16116:	79 31 28 00 00 00 00 00	ldxdw r1, [r3 + 40]
   16117:	7b 1a c0 ff 00 00 00 00	stxdw [r10 - 64], r1
   16118:	79 13 20 00 00 00 00 00	ldxdw r3, [r1 + 32]
   16119:	bf 61 00 00 00 00 00 00	mov64 r1, r6
   16120:	b7 02 00 00 22 00 00 00	mov64 r2, 34
   16121:	7b 3a d8 ff 00 00 00 00	stxdw [r10 - 40], r3
   16122:	8d 00 00 00 03 00 00 00	callx r3
   16123:	b7 08 00 00 01 00 00 00	mov64 r8, 1
   16124:	55 00 d3 00 00 00 00 00	jne r0, 0, +211 <custom_panic+0x14a08>
   16125:	b7 01 00 00 00 00 00 00	mov64 r1, 0
   16126:	b7 03 00 00 00 00 00 00	mov64 r3, 0
   16127:	15 09 c4 00 00 00 00 00	jeq r9, 0, +196 <custom_panic+0x149a8>
   16128:	bf 71 00 00 00 00 00 00	mov64 r1, r7
   16129:	7b 9a a8 ff 00 00 00 00	stxdw [r10 - 88], r9
   16130:	0f 91 00 00 00 00 00 00	add64 r1, r9
   16131:	7b 1a b0 ff 00 00 00 00	stxdw [r10 - 80], r1
   16132:	b7 09 00 00 00 00 00 00	mov64 r9, 0
   16133:	bf 73 00 00 00 00 00 00	mov64 r3, r7
   16134:	b7 08 00 00 00 00 00 00	mov64 r8, 0
   16135:	7b 7a a0 ff 00 00 00 00	stxdw [r10 - 96], r7
   16136:	05 00 07 00 00 00 00 00	ja +7 <custom_panic+0x14408>
   16137:	0f 89 00 00 00 00 00 00	add64 r9, r8
   16138:	79 a1 d0 ff 00 00 00 00	ldxdw r1, [r10 - 48]
   16139:	1f 18 00 00 00 00 00 00	sub64 r8, r1
   16140:	79 a3 c8 ff 00 00 00 00	ldxdw r3, [r10 - 56]
   16141:	0f 38 00 00 00 00 00 00	add64 r8, r3
   16142:	79 a1 b0 ff 00 00 00 00	ldxdw r1, [r10 - 80]
   16143:	1d 13 a8 00 00 00 00 00	jeq r3, r1, +168 <custom_panic+0x14948>
   16144:	71 30 00 00 00 00 00 00	ldxb r0, [r3 + 0]
   16145:	bf 01 00 00 00 00 00 00	mov64 r1, r0
   16146:	67 01 00 00 38 00 00 00	lsh64 r1, 56
   16147:	c7 01 00 00 38 00 00 00	arsh64 r1, 56
   16148:	7b 3a d0 ff 00 00 00 00	stxdw [r10 - 48], r3
   16149:	65 01 25 00 ff ff ff ff	jsgt r1, -1, +37 <custom_panic+0x14560>
   16150:	bf 31 00 00 00 00 00 00	mov64 r1, r3
   16151:	07 01 00 00 02 00 00 00	add64 r1, 2
   16152:	7b 1a c8 ff 00 00 00 00	stxdw [r10 - 56], r1
   16153:	71 31 01 00 00 00 00 00	ldxb r1, [r3 + 1]
   16154:	57 01 00 00 3f 00 00 00	and64 r1, 63
   16155:	bf 03 00 00 00 00 00 00	mov64 r3, r0
   16156:	57 03 00 00 1f 00 00 00	and64 r3, 31
   16157:	bf 32 00 00 00 00 00 00	mov64 r2, r3
   16158:	67 02 00 00 06 00 00 00	lsh64 r2, 6
   16159:	4f 12 00 00 00 00 00 00	or64 r2, r1
   16160:	25 00 01 00 df 00 00 00	jgt r0, 223, +1 <custom_panic+0x14498>
   16161:	05 00 1c 00 00 00 00 00	ja +28 <custom_panic+0x14578>
   16162:	67 01 00 00 06 00 00 00	lsh64 r1, 6
   16163:	79 a5 d0 ff 00 00 00 00	ldxdw r5, [r10 - 48]
   16164:	71 54 02 00 00 00 00 00	ldxb r4, [r5 + 2]
   16165:	57 04 00 00 3f 00 00 00	and64 r4, 63
   16166:	4f 41 00 00 00 00 00 00	or64 r1, r4
   16167:	07 05 00 00 03 00 00 00	add64 r5, 3
   16168:	7b 5a c8 ff 00 00 00 00	stxdw [r10 - 56], r5
   16169:	bf 34 00 00 00 00 00 00	mov64 r4, r3
   16170:	67 04 00 00 0c 00 00 00	lsh64 r4, 12
   16171:	bf 12 00 00 00 00 00 00	mov64 r2, r1
   16172:	4f 42 00 00 00 00 00 00	or64 r2, r4
   16173:	b7 04 00 00 f0 00 00 00	mov64 r4, 240
   16174:	2d 04 0f 00 00 00 00 00	jgt r4, r0, +15 <custom_panic+0x14578>
   16175:	67 01 00 00 06 00 00 00	lsh64 r1, 6
   16176:	79 a4 d0 ff 00 00 00 00	ldxdw r4, [r10 - 48]
   16177:	71 42 03 00 00 00 00 00	ldxb r2, [r4 + 3]
   16178:	57 02 00 00 3f 00 00 00	and64 r2, 63
   16179:	4f 21 00 00 00 00 00 00	or64 r1, r2
   16180:	67 03 00 00 12 00 00 00	lsh64 r3, 18
   16181:	57 03 00 00 00 00 1c 00	and64 r3, 1835008
   16182:	4f 31 00 00 00 00 00 00	or64 r1, r3
   16183:	07 04 00 00 04 00 00 00	add64 r4, 4
   16184:	7b 4a c8 ff 00 00 00 00	stxdw [r10 - 56], r4
   16185:	bf 12 00 00 00 00 00 00	mov64 r2, r1
   16186:	05 00 03 00 00 00 00 00	ja +3 <custom_panic+0x14578>
   16187:	07 03 00 00 01 00 00 00	add64 r3, 1
   16188:	7b 3a c8 ff 00 00 00 00	stxdw [r10 - 56], r3
   16189:	bf 02 00 00 00 00 00 00	mov64 r2, r0
   16190:	bf a1 00 00 00 00 00 00	mov64 r1, r10
   16191:	07 01 00 00 e0 ff ff ff	add64 r1, -32
   16192:	7b 2a b8 ff 00 00 00 00	stxdw [r10 - 72], r2
   16193:	b7 03 00 00 01 00 01 00	mov64 r3, 65537
   16194:	85 10 00 00 72 f8 ff ff	call -1934
   16195:	71 a1 e0 ff 00 00 00 00	ldxb r1, [r10 - 32]
   16196:	15 01 c5 ff 80 00 00 00	jeq r1, 128, -59 <custom_panic+0x143d8>
   16197:	71 a1 ea ff 00 00 00 00	ldxb r1, [r10 - 22]
   16198:	71 a2 eb ff 00 00 00 00	ldxb r2, [r10 - 21]
   16199:	1f 12 00 00 00 00 00 00	sub64 r2, r1
   16200:	57 02 00 00 ff 00 00 00	and64 r2, 255
   16201:	15 02 c0 ff 01 00 00 00	jeq r2, 1, -64 <custom_panic+0x143d8>
   16202:	79 a2 a8 ff 00 00 00 00	ldxdw r2, [r10 - 88]
   16203:	2d 89 37 00 00 00 00 00	jgt r9, r8, +55 <custom_panic+0x147a0>
   16204:	15 09 0a 00 00 00 00 00	jeq r9, 0, +10 <custom_panic+0x14640>
   16205:	2d 92 02 00 00 00 00 00	jgt r2, r9, +2 <custom_panic+0x14608>
   16206:	1d 29 08 00 00 00 00 00	jeq r9, r2, +8 <custom_panic+0x14640>
   16207:	05 00 33 00 00 00 00 00	ja +51 <custom_panic+0x147a0>
   16208:	bf 71 00 00 00 00 00 00	mov64 r1, r7
   16209:	0f 91 00 00 00 00 00 00	add64 r1, r9
   16210:	71 11 00 00 00 00 00 00	ldxb r1, [r1 + 0]
   16211:	67 01 00 00 38 00 00 00	lsh64 r1, 56
   16212:	c7 01 00 00 38 00 00 00	arsh64 r1, 56
   16213:	b7 03 00 00 c0 ff ff ff	mov64 r3, -64
   16214:	6d 13 2c 00 00 00 00 00	jsgt r3, r1, +44 <custom_panic+0x147a0>
   16215:	15 08 03 00 00 00 00 00	jeq r8, 0, +3 <custom_panic+0x14660>
   16216:	2d 82 24 00 00 00 00 00	jgt r2, r8, +36 <custom_panic+0x14770>
   16217:	1d 28 01 00 00 00 00 00	jeq r8, r2, +1 <custom_panic+0x14660>
   16218:	05 00 28 00 00 00 00 00	ja +40 <custom_panic+0x147a0>
   16219:	bf 72 00 00 00 00 00 00	mov64 r2, r7
   16220:	0f 92 00 00 00 00 00 00	add64 r2, r9
   16221:	bf 83 00 00 00 00 00 00	mov64 r3, r8
   16222:	1f 93 00 00 00 00 00 00	sub64 r3, r9
   16223:	79 a1 c0 ff 00 00 00 00	ldxdw r1, [r10 - 64]
   16224:	79 14 18 00 00 00 00 00	ldxdw r4, [r1 + 24]
   16225:	bf 61 00 00 00 00 00 00	mov64 r1, r6
   16226:	8d 00 00 00 04 00 00 00	callx r4
   16227:	55 00 52 00 00 00 00 00	jne r0, 0, +82 <custom_panic+0x14938>
   16228:	61 a1 e8 ff 00 00 00 00	ldxw r1, [r10 - 24]
   16229:	63 1a f8 ff 00 00 00 00	stxw [r10 - 8], r1
   16230:	79 a1 e0 ff 00 00 00 00	ldxdw r1, [r10 - 32]
   16231:	7b 1a f0 ff 00 00 00 00	stxdw [r10 - 16], r1
   16232:	57 01 00 00 ff 00 00 00	and64 r1, 255
   16233:	55 01 02 00 80 00 00 00	jne r1, 128, +2 <custom_panic+0x146e8>
   16234:	b7 07 00 00 80 00 00 00	mov64 r7, 128
   16235:	05 00 34 00 00 00 00 00	ja +52 <custom_panic+0x14888>
   16236:	71 a7 fb ff 00 00 00 00	ldxb r7, [r10 - 5]
   16237:	71 a1 fa ff 00 00 00 00	ldxb r1, [r10 - 6]
   16238:	3d 71 3a 00 00 00 00 00	jge r1, r7, +58 <custom_panic+0x148d0>
   16239:	bf 19 00 00 00 00 00 00	mov64 r9, r1
   16240:	07 09 00 00 01 00 00 00	add64 r9, 1
   16241:	73 9a fa ff 00 00 00 00	stxb [r10 - 6], r9
   16242:	25 01 1f 00 09 00 00 00	jgt r1, 9, +31 <custom_panic+0x14818>
   16243:	bf a2 00 00 00 00 00 00	mov64 r2, r10
   16244:	07 02 00 00 f0 ff ff ff	add64 r2, -16
   16245:	0f 12 00 00 00 00 00 00	add64 r2, r1
   16246:	71 22 00 00 00 00 00 00	ldxb r2, [r2 + 0]
   16247:	bf 61 00 00 00 00 00 00	mov64 r1, r6
   16248:	79 a3 d8 ff 00 00 00 00	ldxdw r3, [r10 - 40]
   16249:	8d 00 00 00 03 00 00 00	callx r3
   16250:	bf 91 00 00 00 00 00 00	mov64 r1, r9
   16251:	55 00 3a 00 00 00 00 00	jne r0, 0, +58 <custom_panic+0x14938>
   16252:	05 00 f1 ff 00 00 00 00	ja -15 <custom_panic+0x146f8>
   16253:	bf 71 00 00 00 00 00 00	mov64 r1, r7
   16254:	0f 81 00 00 00 00 00 00	add64 r1, r8
   16255:	71 11 00 00 00 00 00 00	ldxb r1, [r1 + 0]
   16256:	67 01 00 00 38 00 00 00	lsh64 r1, 56
   16257:	c7 01 00 00 38 00 00 00	arsh64 r1, 56
   16258:	65 01 d8 ff bf ff ff ff	jsgt r1, -65, -40 <custom_panic+0x14660>
   16259:	bf 71 00 00 00 00 00 00	mov64 r1, r7
   16260:	bf 93 00 00 00 00 00 00	mov64 r3, r9
   16261:	bf 84 00 00 00 00 00 00	mov64 r4, r8
   16262:	18 05 00 00 38 8a 02 00 00 00 00 00 00 00 00 00	lddw r5, 166456
   16264:	85 10 00 00 d9 02 00 00	call 729
   16265:	85 10 00 00 ff ff ff ff	call -1
   16266:	71 a1 fa ff 00 00 00 00	ldxb r1, [r10 - 6]
   16267:	71 a2 fb ff 00 00 00 00	ldxb r2, [r10 - 5]
   16268:	3d 21 1c 00 00 00 00 00	jge r1, r2, +28 <custom_panic+0x148d0>
   16269:	bf 12 00 00 00 00 00 00	mov64 r2, r1
   16270:	07 02 00 00 01 00 00 00	add64 r2, 1
   16271:	73 2a fa ff 00 00 00 00	stxb [r10 - 6], r2
   16272:	b7 02 00 00 0a 00 00 00	mov64 r2, 10
   16273:	2d 12 06 00 00 00 00 00	jgt r2, r1, +6 <custom_panic+0x14848>
   16274:	57 01 00 00 ff 00 00 00	and64 r1, 255
   16275:	b7 02 00 00 0a 00 00 00	mov64 r2, 10
   16276:	18 03 00 00 c0 8c 02 00 00 00 00 00 00 00 00 00	lddw r3, 167104
   16278:	85 10 00 00 e2 f9 ff ff	call -1566
   16279:	85 10 00 00 ff ff ff ff	call -1
   16280:	bf a2 00 00 00 00 00 00	mov64 r2, r10
   16281:	07 02 00 00 f0 ff ff ff	add64 r2, -16
   16282:	0f 12 00 00 00 00 00 00	add64 r2, r1
   16283:	71 22 00 00 00 00 00 00	ldxb r2, [r2 + 0]
   16284:	bf 61 00 00 00 00 00 00	mov64 r1, r6
   16285:	79 a3 d8 ff 00 00 00 00	ldxdw r3, [r10 - 40]
   16286:	8d 00 00 00 03 00 00 00	callx r3
   16287:	55 00 16 00 00 00 00 00	jne r0, 0, +22 <custom_panic+0x14938>
   16288:	bf 71 00 00 00 00 00 00	mov64 r1, r7
   16289:	57 01 00 00 ff 00 00 00	and64 r1, 255
   16290:	15 01 01 00 80 00 00 00	jeq r1, 128, +1 <custom_panic+0x148a8>
   16291:	05 00 e6 ff 00 00 00 00	ja -26 <custom_panic+0x147d8>
   16292:	b7 07 00 00 00 00 00 00	mov64 r7, 0
   16293:	63 7a f8 ff 00 00 00 00	stxw [r10 - 8], r7
   16294:	61 a2 f4 ff 00 00 00 00	ldxw r2, [r10 - 12]
   16295:	7b 7a f0 ff 00 00 00 00	stxdw [r10 - 16], r7
   16296:	05 00 f3 ff 00 00 00 00	ja -13 <custom_panic+0x14868>
   16297:	b7 09 00 00 01 00 00 00	mov64 r9, 1
   16298:	79 a7 a0 ff 00 00 00 00	ldxdw r7, [r10 - 96]
   16299:	b7 01 00 00 80 00 00 00	mov64 r1, 128
   16300:	79 a2 b8 ff 00 00 00 00	ldxdw r2, [r10 - 72]
   16301:	2d 21 5b ff 00 00 00 00	jgt r1, r2, -165 <custom_panic+0x143d0>
   16302:	b7 09 00 00 02 00 00 00	mov64 r9, 2
   16303:	b7 01 00 00 00 08 00 00	mov64 r1, 2048
   16304:	2d 21 58 ff 00 00 00 00	jgt r1, r2, -168 <custom_panic+0x143d0>
   16305:	b7 09 00 00 03 00 00 00	mov64 r9, 3
   16306:	b7 01 00 00 00 00 01 00	mov64 r1, 65536
   16307:	2d 21 55 ff 00 00 00 00	jgt r1, r2, -171 <custom_panic+0x143d0>
   16308:	b7 09 00 00 04 00 00 00	mov64 r9, 4
   16309:	05 00 53 ff 00 00 00 00	ja -173 <custom_panic+0x143d0>
   16310:	b7 08 00 00 01 00 00 00	mov64 r8, 1
   16311:	05 00 18 00 00 00 00 00	ja +24 <custom_panic+0x14a08>
   16312:	b7 01 00 00 00 00 00 00	mov64 r1, 0
   16313:	79 a2 a8 ff 00 00 00 00	ldxdw r2, [r10 - 88]
   16314:	bf 23 00 00 00 00 00 00	mov64 r3, r2
   16315:	b7 08 00 00 01 00 00 00	mov64 r8, 1
   16316:	15 09 07 00 00 00 00 00	jeq r9, 0, +7 <custom_panic+0x149a8>
   16317:	2d 92 14 00 00 00 00 00	jgt r2, r9, +20 <custom_panic+0x14a18>
   16318:	bf 23 00 00 00 00 00 00	mov64 r3, r2
   16319:	1f 93 00 00 00 00 00 00	sub64 r3, r9
   16320:	bf 91 00 00 00 00 00 00	mov64 r1, r9
   16321:	bf 24 00 00 00 00 00 00	mov64 r4, r2
   16322:	1d 94 01 00 00 00 00 00	jeq r4, r9, +1 <custom_panic+0x149a8>
   16323:	05 00 18 00 00 00 00 00	ja +24 <custom_panic+0x14a68>
   16324:	0f 17 00 00 00 00 00 00	add64 r7, r1
   16325:	79 a1 c0 ff 00 00 00 00	ldxdw r1, [r10 - 64]
   16326:	79 14 18 00 00 00 00 00	ldxdw r4, [r1 + 24]
   16327:	bf 61 00 00 00 00 00 00	mov64 r1, r6
   16328:	bf 72 00 00 00 00 00 00	mov64 r2, r7
   16329:	8d 00 00 00 04 00 00 00	callx r4
   16330:	55 00 05 00 00 00 00 00	jne r0, 0, +5 <custom_panic+0x14a08>
   16331:	bf 61 00 00 00 00 00 00	mov64 r1, r6
   16332:	b7 02 00 00 22 00 00 00	mov64 r2, 34
   16333:	79 a3 d8 ff 00 00 00 00	ldxdw r3, [r10 - 40]
   16334:	8d 00 00 00 03 00 00 00	callx r3
   16335:	bf 08 00 00 00 00 00 00	mov64 r8, r0
   16336:	bf 80 00 00 00 00 00 00	mov64 r0, r8
   16337:	95 00 00 00 00 00 00 00	exit
   16338:	bf 23 00 00 00 00 00 00	mov64 r3, r2
   16339:	1f 93 00 00 00 00 00 00	sub64 r3, r9
   16340:	bf 71 00 00 00 00 00 00	mov64 r1, r7
   16341:	0f 91 00 00 00 00 00 00	add64 r1, r9
   16342:	bf 24 00 00 00 00 00 00	mov64 r4, r2
   16343:	71 12 00 00 00 00 00 00	ldxb r2, [r1 + 0]
   16344:	67 02 00 00 38 00 00 00	lsh64 r2, 56
   16345:	c7 02 00 00 38 00 00 00	arsh64 r2, 56
   16346:	bf 91 00 00 00 00 00 00	mov64 r1, r9
   16347:	65 02 e8 ff bf ff ff ff	jsgt r2, -65, -24 <custom_panic+0x149a8>
   16348:	bf 71 00 00 00 00 00 00	mov64 r1, r7
   16349:	bf 42 00 00 00 00 00 00	mov64 r2, r4
   16350:	bf 93 00 00 00 00 00 00	mov64 r3, r9
   16351:	18 05 00 00 20 8a 02 00 00 00 00 00 00 00 00 00	lddw r5, 166432
   16353:	85 10 00 00 80 02 00 00	call 640
   16354:	85 10 00 00 ff ff ff ff	call -1
   16355:	bf 24 00 00 00 00 00 00	mov64 r4, r2
   16356:	bf 12 00 00 00 00 00 00	mov64 r2, r1
   16357:	bf 31 00 00 00 00 00 00	mov64 r1, r3
   16358:	bf 43 00 00 00 00 00 00	mov64 r3, r4
   16359:	85 10 00 00 ad fd ff ff	call -595
   16360:	95 00 00 00 00 00 00 00	exit
   16361:	bf 18 00 00 00 00 00 00	mov64 r8, r1
   16362:	79 26 20 00 00 00 00 00	ldxdw r6, [r2 + 32]
   16363:	79 21 28 00 00 00 00 00	ldxdw r1, [r2 + 40]
   16364:	79 19 20 00 00 00 00 00	ldxdw r9, [r1 + 32]
   16365:	bf 61 00 00 00 00 00 00	mov64 r1, r6
   16366:	b7 02 00 00 27 00 00 00	mov64 r2, 39
   16367:	8d 00 00 00 09 00 00 00	callx r9
   16368:	b7 01 00 00 01 00 00 00	mov64 r1, 1
   16369:	55 00 40 00 00 00 00 00	jne r0, 0, +64 <custom_panic+0x14d18>
   16370:	61 82 00 00 00 00 00 00	ldxw r2, [r8 + 0]
   16371:	bf a1 00 00 00 00 00 00	mov64 r1, r10
   16372:	07 01 00 00 f0 ff ff ff	add64 r1, -16
   16373:	b7 03 00 00 01 01 00 00	mov64 r3, 257
   16374:	85 10 00 00 be f7 ff ff	call -2114
   16375:	71 a1 f0 ff 00 00 00 00	ldxb r1, [r10 - 16]
   16376:	55 01 03 00 80 00 00 00	jne r1, 128, +3 <custom_panic+0x14b68>
   16377:	b7 07 00 00 80 00 00 00	mov64 r7, 128
   16378:	b7 08 00 00 0a 00 00 00	mov64 r8, 10
   16379:	05 00 24 00 00 00 00 00	ja +36 <custom_panic+0x14c88>
   16380:	71 a7 fb ff 00 00 00 00	ldxb r7, [r10 - 5]
   16381:	71 a1 fa ff 00 00 00 00	ldxb r1, [r10 - 6]
   16382:	3d 71 2f 00 00 00 00 00	jge r1, r7, +47 <custom_panic+0x14cf8>
   16383:	bf 18 00 00 00 00 00 00	mov64 r8, r1
   16384:	07 08 00 00 01 00 00 00	add64 r8, 1
   16385:	73 8a fa ff 00 00 00 00	stxb [r10 - 6], r8
   16386:	25 01 10 00 09 00 00 00	jgt r1, 9, +16 <custom_panic+0x14c20>
   16387:	bf a2 00 00 00 00 00 00	mov64 r2, r10
   16388:	07 02 00 00 f0 ff ff ff	add64 r2, -16
   16389:	0f 12 00 00 00 00 00 00	add64 r2, r1
   16390:	71 22 00 00 00 00 00 00	ldxb r2, [r2 + 0]
   16391:	bf 61 00 00 00 00 00 00	mov64 r1, r6
   16392:	8d 00 00 00 09 00 00 00	callx r9
   16393:	bf 81 00 00 00 00 00 00	mov64 r1, r8
   16394:	55 00 21 00 00 00 00 00	jne r0, 0, +33 <custom_panic+0x14ce8>
   16395:	05 00 f2 ff 00 00 00 00	ja -14 <custom_panic+0x14b78>
   16396:	71 a1 fa ff 00 00 00 00	ldxb r1, [r10 - 6]
   16397:	71 a2 fb ff 00 00 00 00	ldxb r2, [r10 - 5]
   16398:	3d 21 1f 00 00 00 00 00	jge r1, r2, +31 <custom_panic+0x14cf8>
   16399:	bf 12 00 00 00 00 00 00	mov64 r2, r1
   16400:	07 02 00 00 01 00 00 00	add64 r2, 1
   16401:	73 2a fa ff 00 00 00 00	stxb [r10 - 6], r2
   16402:	2d 18 06 00 00 00 00 00	jgt r8, r1, +6 <custom_panic+0x14c50>
   16403:	57 01 00 00 ff 00 00 00	and64 r1, 255
   16404:	b7 02 00 00 0a 00 00 00	mov64 r2, 10
   16405:	18 03 00 00 c0 8c 02 00 00 00 00 00 00 00 00 00	lddw r3, 167104
   16407:	85 10 00 00 61 f9 ff ff	call -1695
   16408:	85 10 00 00 ff ff ff ff	call -1
   16409:	bf a2 00 00 00 00 00 00	mov64 r2, r10
   16410:	07 02 00 00 f0 ff ff ff	add64 r2, -16
   16411:	0f 12 00 00 00 00 00 00	add64 r2, r1
   16412:	71 22 00 00 00 00 00 00	ldxb r2, [r2 + 0]
   16413:	bf 61 00 00 00 00 00 00	mov64 r1, r6
   16414:	8d 00 00 00 09 00 00 00	callx r9
   16415:	55 00 0c 00 00 00 00 00	jne r0, 0, +12 <custom_panic+0x14ce8>
   16416:	bf 71 00 00 00 00 00 00	mov64 r1, r7
   16417:	57 01 00 00 ff 00 00 00	and64 r1, 255
   16418:	15 01 01 00 80 00 00 00	jeq r1, 128, +1 <custom_panic+0x14ca8>
   16419:	05 00 e8 ff 00 00 00 00	ja -24 <custom_panic+0x14be8>
   16420:	b7 07 00 00 00 00 00 00	mov64 r7, 0
   16421:	63 7a f8 ff 00 00 00 00	stxw [r10 - 8], r7
   16422:	61 a2 f4 ff 00 00 00 00	ldxw r2, [r10 - 12]
   16423:	7b 7a f0 ff 00 00 00 00	stxdw [r10 - 16], r7
   16424:	bf 61 00 00 00 00 00 00	mov64 r1, r6
   16425:	8d 00 00 00 09 00 00 00	callx r9
   16426:	55 00 01 00 00 00 00 00	jne r0, 0, +1 <custom_panic+0x14ce8>
   16427:	05 00 f4 ff 00 00 00 00	ja -12 <custom_panic+0x14c88>
   16428:	b7 01 00 00 01 00 00 00	mov64 r1, 1
   16429:	05 00 04 00 00 00 00 00	ja +4 <custom_panic+0x14d18>
   16430:	bf 61 00 00 00 00 00 00	mov64 r1, r6
   16431:	b7 02 00 00 27 00 00 00	mov64 r2, 39
   16432:	8d 00 00 00 09 00 00 00	callx r9
   16433:	bf 01 00 00 00 00 00 00	mov64 r1, r0
   16434:	bf 10 00 00 00 00 00 00	mov64 r0, r1
   16435:	95 00 00 00 00 00 00 00	exit
   16436:	7b 1a a0 ff 00 00 00 00	stxdw [r10 - 96], r1
   16437:	7b 2a a8 ff 00 00 00 00	stxdw [r10 - 88], r2
   16438:	b7 01 00 00 00 00 00 00	mov64 r1, 0
   16439:	7b 1a d0 ff 00 00 00 00	stxdw [r10 - 48], r1
   16440:	18 01 00 00 50 8a 02 00 00 00 00 00 00 00 00 00	lddw r1, 166480
   16442:	7b 1a b0 ff 00 00 00 00	stxdw [r10 - 80], r1
   16443:	b7 01 00 00 02 00 00 00	mov64 r1, 2
   16444:	7b 1a b8 ff 00 00 00 00	stxdw [r10 - 72], r1
   16445:	7b 1a c8 ff 00 00 00 00	stxdw [r10 - 56], r1
   16446:	bf a1 00 00 00 00 00 00	mov64 r1, r10
   16447:	07 01 00 00 e0 ff ff ff	add64 r1, -32
   16448:	7b 1a c0 ff 00 00 00 00	stxdw [r10 - 64], r1
   16449:	bf a1 00 00 00 00 00 00	mov64 r1, r10
   16450:	07 01 00 00 a8 ff ff ff	add64 r1, -88
   16451:	7b 1a f0 ff 00 00 00 00	stxdw [r10 - 16], r1
   16452:	18 01 00 00 28 34 02 00 00 00 00 00 00 00 00 00	lddw r1, 144424
   16454:	7b 1a f8 ff 00 00 00 00	stxdw [r10 - 8], r1
   16455:	7b 1a e8 ff 00 00 00 00	stxdw [r10 - 24], r1
   16456:	bf a1 00 00 00 00 00 00	mov64 r1, r10
   16457:	07 01 00 00 a0 ff ff ff	add64 r1, -96
   16458:	7b 1a e0 ff 00 00 00 00	stxdw [r10 - 32], r1
   16459:	bf a1 00 00 00 00 00 00	mov64 r1, r10
   16460:	07 01 00 00 b0 ff ff ff	add64 r1, -80
   16461:	bf 32 00 00 00 00 00 00	mov64 r2, r3
   16462:	85 10 00 00 0a f9 ff ff	call -1782
   16463:	85 10 00 00 ff ff ff ff	call -1
   16464:	7b 1a a0 ff 00 00 00 00	stxdw [r10 - 96], r1
   16465:	7b 2a a8 ff 00 00 00 00	stxdw [r10 - 88], r2
   16466:	b7 01 00 00 00 00 00 00	mov64 r1, 0
   16467:	7b 1a d0 ff 00 00 00 00	stxdw [r10 - 48], r1
   16468:	18 01 00 00 70 8a 02 00 00 00 00 00 00 00 00 00	lddw r1, 166512
   16470:	7b 1a b0 ff 00 00 00 00	stxdw [r10 - 80], r1
   16471:	b7 01 00 00 02 00 00 00	mov64 r1, 2
   16472:	7b 1a b8 ff 00 00 00 00	stxdw [r10 - 72], r1
   16473:	7b 1a c8 ff 00 00 00 00	stxdw [r10 - 56], r1
   16474:	bf a1 00 00 00 00 00 00	mov64 r1, r10
   16475:	07 01 00 00 e0 ff ff ff	add64 r1, -32
   16476:	7b 1a c0 ff 00 00 00 00	stxdw [r10 - 64], r1
   16477:	bf a1 00 00 00 00 00 00	mov64 r1, r10
   16478:	07 01 00 00 a8 ff ff ff	add64 r1, -88
   16479:	7b 1a f0 ff 00 00 00 00	stxdw [r10 - 16], r1
   16480:	18 01 00 00 28 34 02 00 00 00 00 00 00 00 00 00	lddw r1, 144424
   16482:	7b 1a f8 ff 00 00 00 00	stxdw [r10 - 8], r1
   16483:	7b 1a e8 ff 00 00 00 00	stxdw [r10 - 24], r1
   16484:	bf a1 00 00 00 00 00 00	mov64 r1, r10
   16485:	07 01 00 00 a0 ff ff ff	add64 r1, -96
   16486:	7b 1a e0 ff 00 00 00 00	stxdw [r10 - 32], r1
   16487:	bf a1 00 00 00 00 00 00	mov64 r1, r10
   16488:	07 01 00 00 b0 ff ff ff	add64 r1, -80
   16489:	bf 32 00 00 00 00 00 00	mov64 r2, r3
   16490:	85 10 00 00 ee f8 ff ff	call -1810
   16491:	85 10 00 00 ff ff ff ff	call -1
   16492:	7b 1a a0 ff 00 00 00 00	stxdw [r10 - 96], r1
   16493:	7b 2a a8 ff 00 00 00 00	stxdw [r10 - 88], r2
   16494:	b7 01 00 00 00 00 00 00	mov64 r1, 0
   16495:	7b 1a d0 ff 00 00 00 00	stxdw [r10 - 48], r1
   16496:	18 01 00 00 90 8a 02 00 00 00 00 00 00 00 00 00	lddw r1, 166544
   16498:	7b 1a b0 ff 00 00 00 00	stxdw [r10 - 80], r1
   16499:	b7 01 00 00 02 00 00 00	mov64 r1, 2
   16500:	7b 1a b8 ff 00 00 00 00	stxdw [r10 - 72], r1
   16501:	7b 1a c8 ff 00 00 00 00	stxdw [r10 - 56], r1
   16502:	bf a1 00 00 00 00 00 00	mov64 r1, r10
   16503:	07 01 00 00 e0 ff ff ff	add64 r1, -32
   16504:	7b 1a c0 ff 00 00 00 00	stxdw [r10 - 64], r1
   16505:	bf a1 00 00 00 00 00 00	mov64 r1, r10
   16506:	07 01 00 00 a8 ff ff ff	add64 r1, -88
   16507:	7b 1a f0 ff 00 00 00 00	stxdw [r10 - 16], r1
   16508:	18 01 00 00 28 34 02 00 00 00 00 00 00 00 00 00	lddw r1, 144424
   16510:	7b 1a f8 ff 00 00 00 00	stxdw [r10 - 8], r1
   16511:	7b 1a e8 ff 00 00 00 00	stxdw [r10 - 24], r1
   16512:	bf a1 00 00 00 00 00 00	mov64 r1, r10
   16513:	07 01 00 00 a0 ff ff ff	add64 r1, -96
   16514:	7b 1a e0 ff 00 00 00 00	stxdw [r10 - 32], r1
   16515:	bf a1 00 00 00 00 00 00	mov64 r1, r10
   16516:	07 01 00 00 b0 ff ff ff	add64 r1, -80
   16517:	bf 32 00 00 00 00 00 00	mov64 r2, r3
   16518:	85 10 00 00 d2 f8 ff ff	call -1838
   16519:	85 10 00 00 ff ff ff ff	call -1
   16520:	7b 1a f8 ff 00 00 00 00	stxdw [r10 - 8], r1
   16521:	bf 31 00 00 00 00 00 00	mov64 r1, r3
   16522:	07 01 00 00 f1 ff ff ff	add64 r1, -15
   16523:	b7 05 00 00 00 00 00 00	mov64 r5, 0
   16524:	b7 04 00 00 01 00 00 00	mov64 r4, 1
   16525:	2d 31 01 00 00 00 00 00	jgt r1, r3, +1 <custom_panic+0x15000>
   16526:	b7 04 00 00 00 00 00 00	mov64 r4, 0
   16527:	55 04 01 00 00 00 00 00	jne r4, 0, +1 <custom_panic+0x15010>
   16528:	bf 15 00 00 00 00 00 00	mov64 r5, r1
   16529:	15 03 bd 00 00 00 00 00	jeq r3, 0, +189 <custom_panic+0x15600>
   16530:	bf 20 00 00 00 00 00 00	mov64 r0, r2
   16531:	07 00 00 00 07 00 00 00	add64 r0, 7
   16532:	57 00 00 00 f8 ff ff ff	and64 r0, -8
   16533:	1f 20 00 00 00 00 00 00	sub64 r0, r2
   16534:	b7 06 00 00 00 00 00 00	mov64 r6, 0
   16535:	18 08 00 00 80 80 80 80 00 00 00 00 80 80 80 80	lddw r8, -9187201950435737472
   16537:	b7 04 00 00 00 00 00 00	mov64 r4, 0
   16538:	05 00 0f 00 00 00 00 00	ja +15 <custom_panic+0x150d8>
   16539:	3d 31 ba 00 00 00 00 00	jge r1, r3, +186 <custom_panic+0x15638>
   16540:	bf 27 00 00 00 00 00 00	mov64 r7, r2
   16541:	0f 17 00 00 00 00 00 00	add64 r7, r1
   16542:	71 79 00 00 00 00 00 00	ldxb r9, [r7 + 0]
   16543:	67 09 00 00 38 00 00 00	lsh64 r9, 56
   16544:	c7 09 00 00 38 00 00 00	arsh64 r9, 56
   16545:	b7 08 00 00 01 00 00 00	mov64 r8, 1
   16546:	b7 07 00 00 01 00 00 00	mov64 r7, 1
   16547:	65 09 a5 00 bf ff ff ff	jsgt r9, -65, +165 <custom_panic+0x155d0>
   16548:	07 01 00 00 01 00 00 00	add64 r1, 1
   16549:	bf 14 00 00 00 00 00 00	mov64 r4, r1
   16550:	18 08 00 00 80 80 80 80 00 00 00 00 80 80 80 80	lddw r8, -9187201950435737472
   16552:	2d 43 01 00 00 00 00 00	jgt r3, r4, +1 <custom_panic+0x150d8>
   16553:	05 00 a5 00 00 00 00 00	ja +165 <custom_panic+0x15600>
   16554:	bf 21 00 00 00 00 00 00	mov64 r1, r2
   16555:	0f 41 00 00 00 00 00 00	add64 r1, r4
   16556:	71 19 00 00 00 00 00 00	ldxb r9, [r1 + 0]
   16557:	bf 91 00 00 00 00 00 00	mov64 r1, r9
   16558:	67 01 00 00 38 00 00 00	lsh64 r1, 56
   16559:	c7 01 00 00 38 00 00 00	arsh64 r1, 56
   16560:	6d 16 1c 00 00 00 00 00	jsgt r6, r1, +28 <custom_panic+0x151f0>
   16561:	bf 01 00 00 00 00 00 00	mov64 r1, r0
   16562:	1f 41 00 00 00 00 00 00	sub64 r1, r4
   16563:	57 01 00 00 07 00 00 00	and64 r1, 7
   16564:	55 01 15 00 00 00 00 00	jne r1, 0, +21 <custom_panic+0x151d8>
   16565:	3d 54 0a 00 00 00 00 00	jge r4, r5, +10 <custom_panic+0x15188>
   16566:	bf 21 00 00 00 00 00 00	mov64 r1, r2
   16567:	0f 41 00 00 00 00 00 00	add64 r1, r4
   16568:	79 17 00 00 00 00 00 00	ldxdw r7, [r1 + 0]
   16569:	5f 87 00 00 00 00 00 00	and64 r7, r8
   16570:	55 07 05 00 00 00 00 00	jne r7, 0, +5 <custom_panic+0x15188>
   16571:	79 11 08 00 00 00 00 00	ldxdw r1, [r1 + 8]
   16572:	5f 81 00 00 00 00 00 00	and64 r1, r8
   16573:	55 01 02 00 00 00 00 00	jne r1, 0, +2 <custom_panic+0x15188>
   16574:	07 04 00 00 10 00 00 00	add64 r4, 16
   16575:	2d 45 f6 ff 00 00 00 00	jgt r5, r4, -10 <custom_panic+0x15138>
   16576:	3d 34 0a 00 00 00 00 00	jge r4, r3, +10 <custom_panic+0x151e0>
   16577:	bf 21 00 00 00 00 00 00	mov64 r1, r2
   16578:	0f 41 00 00 00 00 00 00	add64 r1, r4
   16579:	71 11 00 00 00 00 00 00	ldxb r1, [r1 + 0]
   16580:	67 01 00 00 38 00 00 00	lsh64 r1, 56
   16581:	c7 01 00 00 38 00 00 00	arsh64 r1, 56
   16582:	6d 16 04 00 00 00 00 00	jsgt r6, r1, +4 <custom_panic+0x151e0>
   16583:	07 04 00 00 01 00 00 00	add64 r4, 1
   16584:	2d 43 f8 ff 00 00 00 00	jgt r3, r4, -8 <custom_panic+0x15190>
   16585:	05 00 85 00 00 00 00 00	ja +133 <custom_panic+0x15600>
   16586:	07 04 00 00 01 00 00 00	add64 r4, 1
   16587:	2d 43 de ff 00 00 00 00	jgt r3, r4, -34 <custom_panic+0x150d8>
   16588:	05 00 82 00 00 00 00 00	ja +130 <custom_panic+0x15600>
   16589:	18 01 00 00 28 6e 02 00 00 00 00 00 00 00 00 00	lddw r1, 159272
   16591:	0f 91 00 00 00 00 00 00	add64 r1, r9
   16592:	71 11 00 00 00 00 00 00	ldxb r1, [r1 + 0]
   16593:	15 01 09 00 04 00 00 00	jeq r1, 4, +9 <custom_panic+0x15260>
   16594:	15 01 33 00 03 00 00 00	jeq r1, 3, +51 <custom_panic+0x153b8>
   16595:	b7 08 00 00 01 00 00 00	mov64 r8, 1
   16596:	b7 07 00 00 01 00 00 00	mov64 r7, 1
   16597:	55 01 73 00 02 00 00 00	jne r1, 2, +115 <custom_panic+0x155d0>
   16598:	b7 07 00 00 00 00 00 00	mov64 r7, 0
   16599:	bf 41 00 00 00 00 00 00	mov64 r1, r4
   16600:	07 01 00 00 01 00 00 00	add64 r1, 1
   16601:	3d 31 6f 00 00 00 00 00	jge r1, r3, +111 <custom_panic+0x155d0>
   16602:	05 00 c0 ff 00 00 00 00	ja -64 <custom_panic+0x15060>
   16603:	bf 41 00 00 00 00 00 00	mov64 r1, r4
   16604:	07 01 00 00 01 00 00 00	add64 r1, 1
   16605:	b7 07 00 00 00 00 00 00	mov64 r7, 0
   16606:	3d 31 6a 00 00 00 00 00	jge r1, r3, +106 <custom_panic+0x155d0>
   16607:	3d 31 7b 00 00 00 00 00	jge r1, r3, +123 <custom_panic+0x15660>
   16608:	bf 27 00 00 00 00 00 00	mov64 r7, r2
   16609:	0f 17 00 00 00 00 00 00	add64 r7, r1
   16610:	71 71 00 00 00 00 00 00	ldxb r1, [r7 + 0]
   16611:	67 01 00 00 38 00 00 00	lsh64 r1, 56
   16612:	c7 01 00 00 38 00 00 00	arsh64 r1, 56
   16613:	15 09 3e 00 f0 00 00 00	jeq r9, 240, +62 <custom_panic+0x154a8>
   16614:	15 09 01 00 f4 00 00 00	jeq r9, 244, +1 <custom_panic+0x152c8>
   16615:	05 00 43 00 00 00 00 00	ja +67 <custom_panic+0x154e0>
   16616:	b7 08 00 00 01 00 00 00	mov64 r8, 1
   16617:	b7 07 00 00 01 00 00 00	mov64 r7, 1
   16618:	65 01 5e 00 8f ff ff ff	jsgt r1, -113, +94 <custom_panic+0x155d0>
   16619:	bf 41 00 00 00 00 00 00	mov64 r1, r4
   16620:	07 01 00 00 02 00 00 00	add64 r1, 2
   16621:	b7 07 00 00 00 00 00 00	mov64 r7, 0
   16622:	3d 31 5a 00 00 00 00 00	jge r1, r3, +90 <custom_panic+0x155d0>
   16623:	3d 31 75 00 00 00 00 00	jge r1, r3, +117 <custom_panic+0x156b0>
   16624:	bf 27 00 00 00 00 00 00	mov64 r7, r2
   16625:	0f 17 00 00 00 00 00 00	add64 r7, r1
   16626:	b7 08 00 00 02 00 00 00	mov64 r8, 2
   16627:	71 71 00 00 00 00 00 00	ldxb r1, [r7 + 0]
   16628:	67 01 00 00 38 00 00 00	lsh64 r1, 56
   16629:	c7 01 00 00 38 00 00 00	arsh64 r1, 56
   16630:	b7 07 00 00 01 00 00 00	mov64 r7, 1
   16631:	65 01 51 00 bf ff ff ff	jsgt r1, -65, +81 <custom_panic+0x155d0>
   16632:	bf 41 00 00 00 00 00 00	mov64 r1, r4
   16633:	07 01 00 00 03 00 00 00	add64 r1, 3
   16634:	b7 07 00 00 00 00 00 00	mov64 r7, 0
   16635:	3d 31 4d 00 00 00 00 00	jge r1, r3, +77 <custom_panic+0x155d0>
   16636:	3d 31 6d 00 00 00 00 00	jge r1, r3, +109 <custom_panic+0x156d8>
   16637:	bf 27 00 00 00 00 00 00	mov64 r7, r2
   16638:	0f 17 00 00 00 00 00 00	add64 r7, r1
   16639:	b7 08 00 00 03 00 00 00	mov64 r8, 3
   16640:	71 79 00 00 00 00 00 00	ldxb r9, [r7 + 0]
   16641:	67 09 00 00 38 00 00 00	lsh64 r9, 56
   16642:	c7 09 00 00 38 00 00 00	arsh64 r9, 56
   16643:	b7 07 00 00 01 00 00 00	mov64 r7, 1
   16644:	65 09 44 00 bf ff ff ff	jsgt r9, -65, +68 <custom_panic+0x155d0>
   16645:	05 00 9e ff 00 00 00 00	ja -98 <custom_panic+0x150a8>
   16646:	b7 07 00 00 00 00 00 00	mov64 r7, 0
   16647:	bf 41 00 00 00 00 00 00	mov64 r1, r4
   16648:	07 01 00 00 01 00 00 00	add64 r1, 1
   16649:	3d 31 3f 00 00 00 00 00	jge r1, r3, +63 <custom_panic+0x155d0>
   16650:	3d 31 55 00 00 00 00 00	jge r1, r3, +85 <custom_panic+0x15688>
   16651:	bf 27 00 00 00 00 00 00	mov64 r7, r2
   16652:	0f 17 00 00 00 00 00 00	add64 r7, r1
   16653:	71 71 00 00 00 00 00 00	ldxb r1, [r7 + 0]
   16654:	67 01 00 00 38 00 00 00	lsh64 r1, 56
   16655:	c7 01 00 00 38 00 00 00	arsh64 r1, 56
   16656:	15 09 22 00 e0 00 00 00	jeq r9, 224, +34 <custom_panic+0x15520>
   16657:	15 09 01 00 ed 00 00 00	jeq r9, 237, +1 <custom_panic+0x15420>
   16658:	05 00 25 00 00 00 00 00	ja +37 <custom_panic+0x15548>
   16659:	b7 08 00 00 01 00 00 00	mov64 r8, 1
   16660:	b7 07 00 00 01 00 00 00	mov64 r7, 1
   16661:	65 01 33 00 9f ff ff ff	jsgt r1, -97, +51 <custom_panic+0x155d0>
   16662:	bf 41 00 00 00 00 00 00	mov64 r1, r4
   16663:	07 01 00 00 02 00 00 00	add64 r1, 2
   16664:	b7 07 00 00 00 00 00 00	mov64 r7, 0
   16665:	3d 31 2f 00 00 00 00 00	jge r1, r3, +47 <custom_panic+0x155d0>
   16666:	3d 31 54 00 00 00 00 00	jge r1, r3, +84 <custom_panic+0x15700>
   16667:	bf 27 00 00 00 00 00 00	mov64 r7, r2
   16668:	0f 17 00 00 00 00 00 00	add64 r7, r1
   16669:	b7 08 00 00 02 00 00 00	mov64 r8, 2
   16670:	71 79 00 00 00 00 00 00	ldxb r9, [r7 + 0]
   16671:	67 09 00 00 38 00 00 00	lsh64 r9, 56
   16672:	c7 09 00 00 38 00 00 00	arsh64 r9, 56
   16673:	b7 07 00 00 01 00 00 00	mov64 r7, 1
   16674:	65 09 26 00 bf ff ff ff	jsgt r9, -65, +38 <custom_panic+0x155d0>
   16675:	05 00 80 ff 00 00 00 00	ja -128 <custom_panic+0x150a8>
   16676:	07 01 00 00 70 00 00 00	add64 r1, 112
   16677:	57 01 00 00 ff 00 00 00	and64 r1, 255
   16678:	b7 08 00 00 01 00 00 00	mov64 r8, 1
   16679:	b7 07 00 00 01 00 00 00	mov64 r7, 1
   16680:	b7 09 00 00 30 00 00 00	mov64 r9, 48
   16681:	2d 19 c1 ff 00 00 00 00	jgt r9, r1, -63 <custom_panic+0x152e0>
   16682:	05 00 1e 00 00 00 00 00	ja +30 <custom_panic+0x155d0>
   16683:	07 09 00 00 0f 00 00 00	add64 r9, 15
   16684:	57 09 00 00 ff 00 00 00	and64 r9, 255
   16685:	b7 08 00 00 01 00 00 00	mov64 r8, 1
   16686:	b7 07 00 00 01 00 00 00	mov64 r7, 1
   16687:	25 09 19 00 02 00 00 00	jgt r9, 2, +25 <custom_panic+0x155d0>
   16688:	b7 09 00 00 c0 ff ff ff	mov64 r9, -64
   16689:	6d 19 b9 ff 00 00 00 00	jsgt r9, r1, -71 <custom_panic+0x152e0>
   16690:	05 00 16 00 00 00 00 00	ja +22 <custom_panic+0x155d0>
   16691:	57 01 00 00 e0 ff ff ff	and64 r1, -32
   16692:	b7 08 00 00 01 00 00 00	mov64 r8, 1
   16693:	b7 07 00 00 01 00 00 00	mov64 r7, 1
   16694:	15 01 df ff a0 ff ff ff	jeq r1, -96, -33 <custom_panic+0x15438>
   16695:	05 00 11 00 00 00 00 00	ja +17 <custom_panic+0x155d0>
   16696:	bf 97 00 00 00 00 00 00	mov64 r7, r9
   16697:	07 07 00 00 1f 00 00 00	add64 r7, 31
   16698:	57 07 00 00 ff 00 00 00	and64 r7, 255
   16699:	b7 08 00 00 0c 00 00 00	mov64 r8, 12
   16700:	2d 78 01 00 00 00 00 00	jgt r8, r7, +1 <custom_panic+0x15578>
   16701:	05 00 05 00 00 00 00 00	ja +5 <custom_panic+0x155a0>
   16702:	b7 08 00 00 01 00 00 00	mov64 r8, 1
   16703:	b7 07 00 00 01 00 00 00	mov64 r7, 1
   16704:	b7 09 00 00 c0 ff ff ff	mov64 r9, -64
   16705:	6d 19 d4 ff 00 00 00 00	jsgt r9, r1, -44 <custom_panic+0x15438>
   16706:	05 00 06 00 00 00 00 00	ja +6 <custom_panic+0x155d0>
   16707:	57 09 00 00 fe 00 00 00	and64 r9, 254
   16708:	b7 08 00 00 01 00 00 00	mov64 r8, 1
   16709:	b7 07 00 00 01 00 00 00	mov64 r7, 1
   16710:	55 09 02 00 ee 00 00 00	jne r9, 238, +2 <custom_panic+0x155d0>
   16711:	b7 09 00 00 c0 ff ff ff	mov64 r9, -64
   16712:	6d 19 cd ff 00 00 00 00	jsgt r9, r1, -51 <custom_panic+0x15438>
   16713:	79 a3 f8 ff 00 00 00 00	ldxdw r3, [r10 - 8]
   16714:	73 83 11 00 00 00 00 00	stxb [r3 + 17], r8
   16715:	73 73 10 00 00 00 00 00	stxb [r3 + 16], r7
   16716:	7b 43 08 00 00 00 00 00	stxdw [r3 + 8], r4
   16717:	b7 01 00 00 01 00 00 00	mov64 r1, 1
   16718:	05 00 05 00 00 00 00 00	ja +5 <custom_panic+0x15628>
   16719:	79 a1 f8 ff 00 00 00 00	ldxdw r1, [r10 - 8]
   16720:	7b 31 10 00 00 00 00 00	stxdw [r1 + 16], r3
   16721:	bf 13 00 00 00 00 00 00	mov64 r3, r1
   16722:	7b 23 08 00 00 00 00 00	stxdw [r3 + 8], r2
   16723:	b7 01 00 00 00 00 00 00	mov64 r1, 0
   16724:	7b 13 00 00 00 00 00 00	stxdw [r3 + 0], r1
   16725:	95 00 00 00 00 00 00 00	exit
   16726:	bf 32 00 00 00 00 00 00	mov64 r2, r3
   16727:	18 03 00 00 e0 8a 02 00 00 00 00 00 00 00 00 00	lddw r3, 166624
   16729:	85 10 00 00 1f f8 ff ff	call -2017
   16730:	85 10 00 00 ff ff ff ff	call -1
   16731:	bf 32 00 00 00 00 00 00	mov64 r2, r3
   16732:	18 03 00 00 28 8b 02 00 00 00 00 00 00 00 00 00	lddw r3, 166696
   16734:	85 10 00 00 1a f8 ff ff	call -2022
   16735:	85 10 00 00 ff ff ff ff	call -1
   16736:	bf 32 00 00 00 00 00 00	mov64 r2, r3
   16737:	18 03 00 00 f8 8a 02 00 00 00 00 00 00 00 00 00	lddw r3, 166648
   16739:	85 10 00 00 15 f8 ff ff	call -2027
   16740:	85 10 00 00 ff ff ff ff	call -1
   16741:	bf 32 00 00 00 00 00 00	mov64 r2, r3
   16742:	18 03 00 00 40 8b 02 00 00 00 00 00 00 00 00 00	lddw r3, 166720
   16744:	85 10 00 00 10 f8 ff ff	call -2032
   16745:	85 10 00 00 ff ff ff ff	call -1
   16746:	bf 32 00 00 00 00 00 00	mov64 r2, r3
   16747:	18 03 00 00 58 8b 02 00 00 00 00 00 00 00 00 00	lddw r3, 166744
   16749:	85 10 00 00 0b f8 ff ff	call -2037
   16750:	85 10 00 00 ff ff ff ff	call -1
   16751:	bf 32 00 00 00 00 00 00	mov64 r2, r3
   16752:	18 03 00 00 10 8b 02 00 00 00 00 00 00 00 00 00	lddw r3, 166672
   16754:	85 10 00 00 06 f8 ff ff	call -2042
   16755:	85 10 00 00 ff ff ff ff	call -1
   16756:	bf 17 00 00 00 00 00 00	mov64 r7, r1
   16757:	07 07 00 00 07 00 00 00	add64 r7, 7
   16758:	57 07 00 00 f8 ff ff ff	and64 r7, -8
   16759:	bf 74 00 00 00 00 00 00	mov64 r4, r7
   16760:	1f 14 00 00 00 00 00 00	sub64 r4, r1
   16761:	2d 24 89 00 00 00 00 00	jgt r4, r2, +137 <custom_panic+0x15ba0>
   16762:	bf 25 00 00 00 00 00 00	mov64 r5, r2
   16763:	1f 45 00 00 00 00 00 00	sub64 r5, r4
   16764:	b7 03 00 00 08 00 00 00	mov64 r3, 8
   16765:	2d 53 85 00 00 00 00 00	jgt r3, r5, +133 <custom_panic+0x15ba0>
   16766:	7b 4a f8 ff 00 00 00 00	stxdw [r10 - 8], r4
   16767:	bf 53 00 00 00 00 00 00	mov64 r3, r5
   16768:	57 03 00 00 07 00 00 00	and64 r3, 7
   16769:	b7 02 00 00 00 00 00 00	mov64 r2, 0
   16770:	b7 04 00 00 00 00 00 00	mov64 r4, 0
   16771:	1d 17 07 00 00 00 00 00	jeq r7, r1, +7 <custom_panic+0x157e0>
   16772:	bf 16 00 00 00 00 00 00	mov64 r6, r1
   16773:	1f 76 00 00 00 00 00 00	sub64 r6, r7
   16774:	bf 17 00 00 00 00 00 00	mov64 r7, r1
   16775:	05 00 0c 00 00 00 00 00	ja +12 <custom_panic+0x15828>
   16776:	0f 94 00 00 00 00 00 00	add64 r4, r9
   16777:	07 07 00 00 01 00 00 00	add64 r7, 1
   16778:	55 08 09 00 01 00 00 00	jne r8, 1, +9 <custom_panic+0x15828>
   16779:	79 a0 f8 ff 00 00 00 00	ldxdw r0, [r10 - 8]
   16780:	0f 01 00 00 00 00 00 00	add64 r1, r0
   16781:	15 03 15 00 00 00 00 00	jeq r3, 0, +21 <custom_panic+0x158a0>
   16782:	bf 52 00 00 00 00 00 00	mov64 r2, r5
   16783:	57 02 00 00 f8 ff ff ff	and64 r2, -8
   16784:	bf 10 00 00 00 00 00 00	mov64 r0, r1
   16785:	0f 20 00 00 00 00 00 00	add64 r0, r2
   16786:	b7 02 00 00 00 00 00 00	mov64 r2, 0
   16787:	05 00 14 00 00 00 00 00	ja +20 <custom_panic+0x158c8>
   16788:	71 70 00 00 00 00 00 00	ldxb r0, [r7 + 0]
   16789:	67 00 00 00 38 00 00 00	lsh64 r0, 56
   16790:	c7 00 00 00 38 00 00 00	arsh64 r0, 56
   16791:	b7 08 00 00 01 00 00 00	mov64 r8, 1
   16792:	b7 09 00 00 01 00 00 00	mov64 r9, 1
   16793:	65 00 01 00 bf ff ff ff	jsgt r0, -65, +1 <custom_panic+0x15860>
   16794:	b7 09 00 00 00 00 00 00	mov64 r9, 0
   16795:	07 06 00 00 01 00 00 00	add64 r6, 1
   16796:	15 06 eb ff 00 00 00 00	jeq r6, 0, -21 <custom_panic+0x157c8>
   16797:	b7 08 00 00 00 00 00 00	mov64 r8, 0
   16798:	05 00 e9 ff 00 00 00 00	ja -23 <custom_panic+0x157c8>
   16799:	0f 62 00 00 00 00 00 00	add64 r2, r6
   16800:	07 00 00 00 01 00 00 00	add64 r0, 1
   16801:	07 03 00 00 ff ff ff ff	add64 r3, -1
   16802:	55 03 05 00 00 00 00 00	jne r3, 0, +5 <custom_panic+0x158c8>
   16803:	77 05 00 00 03 00 00 00	rsh64 r5, 3
   16804:	0f 42 00 00 00 00 00 00	add64 r2, r4
   16805:	18 08 00 00 01 01 01 01 00 00 00 00 01 01 01 01	lddw r8, 72340172838076673
   16807:	05 00 47 00 00 00 00 00	ja +71 <custom_panic+0x15b00>
   16808:	71 07 00 00 00 00 00 00	ldxb r7, [r0 + 0]
   16809:	67 07 00 00 38 00 00 00	lsh64 r7, 56
   16810:	c7 07 00 00 38 00 00 00	arsh64 r7, 56
   16811:	b7 06 00 00 01 00 00 00	mov64 r6, 1
   16812:	65 07 f2 ff bf ff ff ff	jsgt r7, -65, -14 <custom_panic+0x15880>
   16813:	b7 06 00 00 00 00 00 00	mov64 r6, 0
   16814:	05 00 f0 ff 00 00 00 00	ja -16 <custom_panic+0x15880>
   16815:	15 05 22 00 00 00 00 00	jeq r5, 0, +34 <custom_panic+0x15a18>
   16816:	79 56 00 00 00 00 00 00	ldxdw r6, [r5 + 0]
   16817:	bf 67 00 00 00 00 00 00	mov64 r7, r6
   16818:	77 07 00 00 06 00 00 00	rsh64 r7, 6
   16819:	a7 06 00 00 ff ff ff ff	xor64 r6, -1
   16820:	77 06 00 00 07 00 00 00	rsh64 r6, 7
   16821:	4f 76 00 00 00 00 00 00	or64 r6, r7
   16822:	5f 86 00 00 00 00 00 00	and64 r6, r8
   16823:	0f 26 00 00 00 00 00 00	add64 r6, r2
   16824:	79 52 08 00 00 00 00 00	ldxdw r2, [r5 + 8]
   16825:	bf 27 00 00 00 00 00 00	mov64 r7, r2
   16826:	77 07 00 00 06 00 00 00	rsh64 r7, 6
   16827:	a7 02 00 00 ff ff ff ff	xor64 r2, -1
   16828:	77 02 00 00 07 00 00 00	rsh64 r2, 7
   16829:	4f 72 00 00 00 00 00 00	or64 r2, r7
   16830:	5f 82 00 00 00 00 00 00	and64 r2, r8
   16831:	0f 62 00 00 00 00 00 00	add64 r2, r6
   16832:	79 56 10 00 00 00 00 00	ldxdw r6, [r5 + 16]
   16833:	bf 67 00 00 00 00 00 00	mov64 r7, r6
   16834:	77 07 00 00 06 00 00 00	rsh64 r7, 6
   16835:	a7 06 00 00 ff ff ff ff	xor64 r6, -1
   16836:	77 06 00 00 07 00 00 00	rsh64 r6, 7
   16837:	4f 76 00 00 00 00 00 00	or64 r6, r7
   16838:	5f 86 00 00 00 00 00 00	and64 r6, r8
   16839:	0f 26 00 00 00 00 00 00	add64 r6, r2
   16840:	79 52 18 00 00 00 00 00	ldxdw r2, [r5 + 24]
   16841:	bf 27 00 00 00 00 00 00	mov64 r7, r2
   16842:	77 07 00 00 06 00 00 00	rsh64 r7, 6
   16843:	a7 02 00 00 ff ff ff ff	xor64 r2, -1
   16844:	77 02 00 00 07 00 00 00	rsh64 r2, 7
   16845:	4f 72 00 00 00 00 00 00	or64 r2, r7
   16846:	5f 82 00 00 00 00 00 00	and64 r2, r8
   16847:	0f 62 00 00 00 00 00 00	add64 r2, r6
   16848:	07 05 00 00 20 00 00 00	add64 r5, 32
   16849:	5d 15 dd ff 00 00 00 00	jne r5, r1, -35 <custom_panic+0x15900>
   16850:	bf 95 00 00 00 00 00 00	mov64 r5, r9
   16851:	67 05 00 00 03 00 00 00	lsh64 r5, 3
   16852:	bf 31 00 00 00 00 00 00	mov64 r1, r3
   16853:	0f 51 00 00 00 00 00 00	add64 r1, r5
   16854:	bf 45 00 00 00 00 00 00	mov64 r5, r4
   16855:	1f 95 00 00 00 00 00 00	sub64 r5, r9
   16856:	57 09 00 00 03 00 00 00	and64 r9, 3
   16857:	bf 26 00 00 00 00 00 00	mov64 r6, r2
   16858:	18 07 00 00 ff 00 ff 00 00 00 00 00 ff 00 ff 00	lddw r7, 71777214294589695
   16860:	5f 76 00 00 00 00 00 00	and64 r6, r7
   16861:	77 02 00 00 08 00 00 00	rsh64 r2, 8
   16862:	5f 72 00 00 00 00 00 00	and64 r2, r7
   16863:	0f 62 00 00 00 00 00 00	add64 r2, r6
   16864:	18 06 00 00 01 00 01 00 00 00 00 00 01 00 01 00	lddw r6, 281479271743489
   16866:	2f 62 00 00 00 00 00 00	mul64 r2, r6
   16867:	77 02 00 00 30 00 00 00	rsh64 r2, 48
   16868:	0f 02 00 00 00 00 00 00	add64 r2, r0
   16869:	15 09 09 00 00 00 00 00	jeq r9, 0, +9 <custom_panic+0x15b00>
   16870:	b7 00 00 00 00 00 00 00	mov64 r0, 0
   16871:	15 03 3c 00 00 00 00 00	jeq r3, 0, +60 <custom_panic+0x15ca8>
   16872:	79 a1 f8 ff 00 00 00 00	ldxdw r1, [r10 - 8]
   16873:	67 01 00 00 03 00 00 00	lsh64 r1, 3
   16874:	7b 1a f8 ff 00 00 00 00	stxdw [r10 - 8], r1
   16875:	b7 01 00 00 c0 00 00 00	mov64 r1, 192
   16876:	2d 41 23 00 00 00 00 00	jgt r1, r4, +35 <custom_panic+0x15c08>
   16877:	b7 04 00 00 c0 00 00 00	mov64 r4, 192
   16878:	05 00 21 00 00 00 00 00	ja +33 <custom_panic+0x15c08>
   16879:	bf 20 00 00 00 00 00 00	mov64 r0, r2
   16880:	bf 54 00 00 00 00 00 00	mov64 r4, r5
   16881:	bf 13 00 00 00 00 00 00	mov64 r3, r1
   16882:	15 04 3d 00 00 00 00 00	jeq r4, 0, +61 <custom_panic+0x15d08>
   16883:	b7 01 00 00 c0 00 00 00	mov64 r1, 192
   16884:	bf 49 00 00 00 00 00 00	mov64 r9, r4
   16885:	2d 41 01 00 00 00 00 00	jgt r1, r4, +1 <custom_panic+0x15b40>
   16886:	b7 09 00 00 c0 00 00 00	mov64 r9, 192
   16887:	bf 91 00 00 00 00 00 00	mov64 r1, r9
   16888:	57 01 00 00 fc 00 00 00	and64 r1, 252
   16889:	b7 02 00 00 00 00 00 00	mov64 r2, 0
   16890:	7b 1a f8 ff 00 00 00 00	stxdw [r10 - 8], r1
   16891:	15 01 d6 ff 00 00 00 00	jeq r1, 0, -42 <custom_panic+0x15a18>
   16892:	79 a2 f8 ff 00 00 00 00	ldxdw r2, [r10 - 8]
   16893:	67 02 00 00 03 00 00 00	lsh64 r2, 3
   16894:	bf 31 00 00 00 00 00 00	mov64 r1, r3
   16895:	0f 21 00 00 00 00 00 00	add64 r1, r2
   16896:	b7 02 00 00 00 00 00 00	mov64 r2, 0
   16897:	bf 35 00 00 00 00 00 00	mov64 r5, r3
   16898:	05 00 ac ff 00 00 00 00	ja -84 <custom_panic+0x15900>
   16899:	b7 00 00 00 00 00 00 00	mov64 r0, 0
   16900:	15 02 2b 00 00 00 00 00	jeq r2, 0, +43 <custom_panic+0x15d08>
   16901:	71 14 00 00 00 00 00 00	ldxb r4, [r1 + 0]
   16902:	67 04 00 00 38 00 00 00	lsh64 r4, 56
   16903:	c7 04 00 00 38 00 00 00	arsh64 r4, 56
   16904:	b7 03 00 00 01 00 00 00	mov64 r3, 1
   16905:	65 04 01 00 bf ff ff ff	jsgt r4, -65, +1 <custom_panic+0x15be0>
   16906:	b7 03 00 00 00 00 00 00	mov64 r3, 0
   16907:	0f 30 00 00 00 00 00 00	add64 r0, r3
   16908:	07 01 00 00 01 00 00 00	add64 r1, 1
   16909:	07 02 00 00 ff ff ff ff	add64 r2, -1
   16910:	15 02 21 00 00 00 00 00	jeq r2, 0, +33 <custom_panic+0x15d08>
   16911:	05 00 f5 ff 00 00 00 00	ja -11 <custom_panic+0x15bb0>
   16912:	79 a1 f8 ff 00 00 00 00	ldxdw r1, [r10 - 8]
   16913:	0f 13 00 00 00 00 00 00	add64 r3, r1
   16914:	b7 05 00 00 00 00 00 00	mov64 r5, 0
   16915:	57 04 00 00 03 00 00 00	and64 r4, 3
   16916:	67 04 00 00 03 00 00 00	lsh64 r4, 3
   16917:	18 01 00 00 01 01 01 01 00 00 00 00 01 01 01 01	lddw r1, 72340172838076673
   16919:	79 30 00 00 00 00 00 00	ldxdw r0, [r3 + 0]
   16920:	bf 06 00 00 00 00 00 00	mov64 r6, r0
   16921:	77 06 00 00 06 00 00 00	rsh64 r6, 6
   16922:	a7 00 00 00 ff ff ff ff	xor64 r0, -1
   16923:	77 00 00 00 07 00 00 00	rsh64 r0, 7
   16924:	4f 60 00 00 00 00 00 00	or64 r0, r6
   16925:	5f 10 00 00 00 00 00 00	and64 r0, r1
   16926:	0f 50 00 00 00 00 00 00	add64 r0, r5
   16927:	07 03 00 00 08 00 00 00	add64 r3, 8
   16928:	07 04 00 00 f8 ff ff ff	add64 r4, -8
   16929:	bf 05 00 00 00 00 00 00	mov64 r5, r0
   16930:	15 04 01 00 00 00 00 00	jeq r4, 0, +1 <custom_panic+0x15ca8>
   16931:	05 00 f3 ff 00 00 00 00	ja -13 <custom_panic+0x15c40>
   16932:	18 01 00 00 ff 00 ff 00 00 00 00 00 ff 00 ff 00	lddw r1, 71777214294589695
   16934:	bf 03 00 00 00 00 00 00	mov64 r3, r0
   16935:	5f 13 00 00 00 00 00 00	and64 r3, r1
   16936:	77 00 00 00 08 00 00 00	rsh64 r0, 8
   16937:	5f 10 00 00 00 00 00 00	and64 r0, r1
   16938:	0f 30 00 00 00 00 00 00	add64 r0, r3
   16939:	18 01 00 00 01 00 01 00 00 00 00 00 01 00 01 00	lddw r1, 281479271743489
   16941:	2f 10 00 00 00 00 00 00	mul64 r0, r1
   16942:	77 00 00 00 30 00 00 00	rsh64 r0, 48
   16943:	0f 20 00 00 00 00 00 00	add64 r0, r2
   16944:	95 00 00 00 00 00 00 00	exit
   16945:	71 13 08 00 00 00 00 00	ldxb r3, [r1 + 8]
   16946:	15 03 19 00 00 00 00 00	jeq r3, 0, +25 <custom_panic+0x15de8>
   16947:	71 13 09 00 00 00 00 00	ldxb r3, [r1 + 9]
   16948:	73 3a af ff 00 00 00 00	stxb [r10 - 81], r3
   16949:	18 03 00 00 28 34 02 00 00 00 00 00 00 00 00 00	lddw r3, 144424
   16951:	7b 3a c8 ff 00 00 00 00	stxdw [r10 - 56], r3
   16952:	7b 1a c0 ff 00 00 00 00	stxdw [r10 - 64], r1
   16953:	18 01 00 00 70 33 02 00 00 00 00 00 00 00 00 00	lddw r1, 144240
   16955:	7b 1a b8 ff 00 00 00 00	stxdw [r10 - 72], r1
   16956:	bf a1 00 00 00 00 00 00	mov64 r1, r10
   16957:	07 01 00 00 af ff ff ff	add64 r1, -81
   16958:	7b 1a b0 ff 00 00 00 00	stxdw [r10 - 80], r1
   16959:	79 24 28 00 00 00 00 00	ldxdw r4, [r2 + 40]
   16960:	79 21 20 00 00 00 00 00	ldxdw r1, [r2 + 32]
   16961:	b7 02 00 00 00 00 00 00	mov64 r2, 0
   16962:	7b 2a f0 ff 00 00 00 00	stxdw [r10 - 16], r2
   16963:	bf a2 00 00 00 00 00 00	mov64 r2, r10
   16964:	07 02 00 00 b0 ff ff ff	add64 r2, -80
   16965:	7b 2a e0 ff 00 00 00 00	stxdw [r10 - 32], r2
   16966:	b7 02 00 00 02 00 00 00	mov64 r2, 2
   16967:	7b 2a e8 ff 00 00 00 00	stxdw [r10 - 24], r2
   16968:	7b 2a d8 ff 00 00 00 00	stxdw [r10 - 40], r2
   16969:	18 02 00 00 b0 8a 02 00 00 00 00 00 00 00 00 00	lddw r2, 166576
   16971:	05 00 10 00 00 00 00 00	ja +16 <custom_panic+0x15e68>
   16972:	18 03 00 00 28 34 02 00 00 00 00 00 00 00 00 00	lddw r3, 144424
   16974:	7b 3a b8 ff 00 00 00 00	stxdw [r10 - 72], r3
   16975:	7b 1a b0 ff 00 00 00 00	stxdw [r10 - 80], r1
   16976:	79 24 28 00 00 00 00 00	ldxdw r4, [r2 + 40]
   16977:	79 21 20 00 00 00 00 00	ldxdw r1, [r2 + 32]
   16978:	b7 02 00 00 00 00 00 00	mov64 r2, 0
   16979:	7b 2a f0 ff 00 00 00 00	stxdw [r10 - 16], r2
   16980:	bf a2 00 00 00 00 00 00	mov64 r2, r10
   16981:	07 02 00 00 b0 ff ff ff	add64 r2, -80
   16982:	7b 2a e0 ff 00 00 00 00	stxdw [r10 - 32], r2
   16983:	b7 02 00 00 01 00 00 00	mov64 r2, 1
   16984:	7b 2a e8 ff 00 00 00 00	stxdw [r10 - 24], r2
   16985:	7b 2a d8 ff 00 00 00 00	stxdw [r10 - 40], r2
   16986:	18 02 00 00 d0 8a 02 00 00 00 00 00 00 00 00 00	lddw r2, 166608
   16988:	7b 2a d0 ff 00 00 00 00	stxdw [r10 - 48], r2
   16989:	bf a3 00 00 00 00 00 00	mov64 r3, r10
   16990:	07 03 00 00 d0 ff ff ff	add64 r3, -48
   16991:	bf 42 00 00 00 00 00 00	mov64 r2, r4
   16992:	85 10 00 00 ce f9 ff ff	call -1586
   16993:	95 00 00 00 00 00 00 00	exit
   16994:	85 10 00 00 01 00 00 00	call 1
   16995:	85 10 00 00 ff ff ff ff	call -1
   16996:	bf 30 00 00 00 00 00 00	mov64 r0, r3
   16997:	7b 4a 38 ff 00 00 00 00	stxdw [r10 - 200], r4
   16998:	7b 0a 30 ff 00 00 00 00	stxdw [r10 - 208], r0
   16999:	b7 03 00 00 01 01 00 00	mov64 r3, 257
   17000:	2d 23 1e 00 00 00 00 00	jgt r3, r2, +30 <custom_panic+0x15fc0>
   17001:	b7 06 00 00 00 01 00 00	mov64 r6, 256
   17002:	71 13 00 01 00 00 00 00	ldxb r3, [r1 + 256]
   17003:	67 03 00 00 38 00 00 00	lsh64 r3, 56
   17004:	c7 03 00 00 38 00 00 00	arsh64 r3, 56
   17005:	65 03 0f 00 bf ff ff ff	jsgt r3, -65, +15 <custom_panic+0x15f70>
   17006:	b7 06 00 00 ff 00 00 00	mov64 r6, 255
   17007:	71 13 ff 00 00 00 00 00	ldxb r3, [r1 + 255]
   17008:	67 03 00 00 38 00 00 00	lsh64 r3, 56
   17009:	c7 03 00 00 38 00 00 00	arsh64 r3, 56
   17010:	65 03 0a 00 bf ff ff ff	jsgt r3, -65, +10 <custom_panic+0x15f70>
   17011:	b7 06 00 00 fe 00 00 00	mov64 r6, 254
   17012:	71 13 fe 00 00 00 00 00	ldxb r3, [r1 + 254]
   17013:	67 03 00 00 38 00 00 00	lsh64 r3, 56
   17014:	c7 03 00 00 38 00 00 00	arsh64 r3, 56
   17015:	65 03 05 00 bf ff ff ff	jsgt r3, -65, +5 <custom_panic+0x15f70>
   17016:	b7 06 00 00 fd 00 00 00	mov64 r6, 253
   17017:	71 13 fd 00 00 00 00 00	ldxb r3, [r1 + 253]
   17018:	67 03 00 00 38 00 00 00	lsh64 r3, 56
   17019:	c7 03 00 00 38 00 00 00	arsh64 r3, 56
   17020:	65 03 00 00 bf ff ff ff	jsgt r3, -65, +0 <custom_panic+0x15f70>
   17021:	bf 13 00 00 00 00 00 00	mov64 r3, r1
   17022:	0f 63 00 00 00 00 00 00	add64 r3, r6
   17023:	71 33 00 00 00 00 00 00	ldxb r3, [r3 + 0]
   17024:	67 03 00 00 38 00 00 00	lsh64 r3, 56
   17025:	c7 03 00 00 38 00 00 00	arsh64 r3, 56
   17026:	65 03 2b 00 bf ff ff ff	jsgt r3, -65, +43 <custom_panic+0x160f8>
   17027:	b7 03 00 00 00 00 00 00	mov64 r3, 0
   17028:	bf 64 00 00 00 00 00 00	mov64 r4, r6
   17029:	85 10 00 00 dc ff ff ff	call -36
   17030:	85 10 00 00 ff ff ff ff	call -1
   17031:	7b 2a 48 ff 00 00 00 00	stxdw [r10 - 184], r2
   17032:	7b 1a 40 ff 00 00 00 00	stxdw [r10 - 192], r1
   17033:	b7 03 00 00 00 00 00 00	mov64 r3, 0
   17034:	7b 3a 58 ff 00 00 00 00	stxdw [r10 - 168], r3
   17035:	18 03 00 00 e8 6b 02 00 00 00 00 00 00 00 00 00	lddw r3, 158696
   17037:	7b 3a 50 ff 00 00 00 00	stxdw [r10 - 176], r3
   17038:	2d 20 01 00 00 00 00 00	jgt r0, r2, +1 <custom_panic+0x16008>
   17039:	05 00 26 00 00 00 00 00	ja +38 <custom_panic+0x16138>
   17040:	2d 20 01 00 00 00 00 00	jgt r0, r2, +1 <custom_panic+0x16018>
   17041:	bf 40 00 00 00 00 00 00	mov64 r0, r4
   17042:	7b 0a 70 ff 00 00 00 00	stxdw [r10 - 144], r0
   17043:	b7 01 00 00 00 00 00 00	mov64 r1, 0
   17044:	7b 1a a0 ff 00 00 00 00	stxdw [r10 - 96], r1
   17045:	18 01 00 00 00 8c 02 00 00 00 00 00 00 00 00 00	lddw r1, 166912
   17047:	7b 1a 80 ff 00 00 00 00	stxdw [r10 - 128], r1
   17048:	b7 01 00 00 03 00 00 00	mov64 r1, 3
   17049:	7b 1a 88 ff 00 00 00 00	stxdw [r10 - 120], r1
   17050:	7b 1a 98 ff 00 00 00 00	stxdw [r10 - 104], r1
   17051:	bf a1 00 00 00 00 00 00	mov64 r1, r10
   17052:	07 01 00 00 b0 ff ff ff	add64 r1, -80
   17053:	7b 1a 90 ff 00 00 00 00	stxdw [r10 - 112], r1
   17054:	bf a1 00 00 00 00 00 00	mov64 r1, r10
   17055:	07 01 00 00 50 ff ff ff	add64 r1, -176
   17056:	7b 1a d0 ff 00 00 00 00	stxdw [r10 - 48], r1
   17057:	18 01 00 00 40 37 02 00 00 00 00 00 00 00 00 00	lddw r1, 145216
   17059:	7b 1a d8 ff 00 00 00 00	stxdw [r10 - 40], r1
   17060:	7b 1a c8 ff 00 00 00 00	stxdw [r10 - 56], r1
   17061:	bf a1 00 00 00 00 00 00	mov64 r1, r10
   17062:	07 01 00 00 40 ff ff ff	add64 r1, -192
   17063:	7b 1a c0 ff 00 00 00 00	stxdw [r10 - 64], r1
   17064:	18 01 00 00 28 34 02 00 00 00 00 00 00 00 00 00	lddw r1, 144424
   17066:	7b 1a b8 ff 00 00 00 00	stxdw [r10 - 72], r1
   17067:	bf a1 00 00 00 00 00 00	mov64 r1, r10
   17068:	07 01 00 00 70 ff ff ff	add64 r1, -144
   17069:	05 00 ca 00 00 00 00 00	ja +202 <custom_panic+0x16748>
   17070:	7b 6a 48 ff 00 00 00 00	stxdw [r10 - 184], r6
   17071:	7b 1a 40 ff 00 00 00 00	stxdw [r10 - 192], r1
   17072:	b7 03 00 00 05 00 00 00	mov64 r3, 5
   17073:	7b 3a 58 ff 00 00 00 00	stxdw [r10 - 168], r3
   17074:	18 03 00 00 28 6f 02 00 00 00 00 00 00 00 00 00	lddw r3, 159528
   17076:	7b 3a 50 ff 00 00 00 00	stxdw [r10 - 176], r3
   17077:	2d 20 da ff 00 00 00 00	jgt r0, r2, -38 <custom_panic+0x16008>
   17078:	2d 24 d9 ff 00 00 00 00	jgt r4, r2, -39 <custom_panic+0x16008>
   17079:	2d 40 01 00 00 00 00 00	jgt r0, r4, +1 <custom_panic+0x16150>
   17080:	05 00 1f 00 00 00 00 00	ja +31 <custom_panic+0x16248>
   17081:	b7 01 00 00 00 00 00 00	mov64 r1, 0
   17082:	7b 1a a0 ff 00 00 00 00	stxdw [r10 - 96], r1
   17083:	18 01 00 00 c0 8b 02 00 00 00 00 00 00 00 00 00	lddw r1, 166848
   17085:	7b 1a 80 ff 00 00 00 00	stxdw [r10 - 128], r1
   17086:	b7 01 00 00 04 00 00 00	mov64 r1, 4
   17087:	7b 1a 88 ff 00 00 00 00	stxdw [r10 - 120], r1
   17088:	7b 1a 98 ff 00 00 00 00	stxdw [r10 - 104], r1
   17089:	bf a1 00 00 00 00 00 00	mov64 r1, r10
   17090:	07 01 00 00 b0 ff ff ff	add64 r1, -80
   17091:	7b 1a 90 ff 00 00 00 00	stxdw [r10 - 112], r1
   17092:	bf a1 00 00 00 00 00 00	mov64 r1, r10
   17093:	07 01 00 00 50 ff ff ff	add64 r1, -176
   17094:	7b 1a e0 ff 00 00 00 00	stxdw [r10 - 32], r1
   17095:	18 01 00 00 40 37 02 00 00 00 00 00 00 00 00 00	lddw r1, 145216
   17097:	7b 1a e8 ff 00 00 00 00	stxdw [r10 - 24], r1
   17098:	7b 1a d8 ff 00 00 00 00	stxdw [r10 - 40], r1
   17099:	bf a1 00 00 00 00 00 00	mov64 r1, r10
   17100:	07 01 00 00 40 ff ff ff	add64 r1, -192
   17101:	7b 1a d0 ff 00 00 00 00	stxdw [r10 - 48], r1
   17102:	bf a1 00 00 00 00 00 00	mov64 r1, r10
   17103:	07 01 00 00 38 ff ff ff	add64 r1, -200
   17104:	7b 1a c0 ff 00 00 00 00	stxdw [r10 - 64], r1
   17105:	18 01 00 00 28 34 02 00 00 00 00 00 00 00 00 00	lddw r1, 144424
   17107:	7b 1a c8 ff 00 00 00 00	stxdw [r10 - 56], r1
   17108:	7b 1a b8 ff 00 00 00 00	stxdw [r10 - 72], r1
   17109:	bf a1 00 00 00 00 00 00	mov64 r1, r10
   17110:	07 01 00 00 30 ff ff ff	add64 r1, -208
   17111:	05 00 a0 00 00 00 00 00	ja +160 <custom_panic+0x16748>
   17112:	15 00 0a 00 00 00 00 00	jeq r0, 0, +10 <custom_panic+0x162a0>
   17113:	2d 02 02 00 00 00 00 00	jgt r2, r0, +2 <custom_panic+0x16268>
   17114:	1d 20 08 00 00 00 00 00	jeq r0, r2, +8 <custom_panic+0x162a0>
   17115:	05 00 08 00 00 00 00 00	ja +8 <custom_panic+0x162a8>
   17116:	bf 13 00 00 00 00 00 00	mov64 r3, r1
   17117:	0f 03 00 00 00 00 00 00	add64 r3, r0
   17118:	71 33 00 00 00 00 00 00	ldxb r3, [r3 + 0]
   17119:	67 03 00 00 38 00 00 00	lsh64 r3, 56
   17120:	c7 03 00 00 38 00 00 00	arsh64 r3, 56
   17121:	b7 06 00 00 c0 ff ff ff	mov64 r6, -64
   17122:	6d 36 01 00 00 00 00 00	jsgt r6, r3, +1 <custom_panic+0x162a8>
   17123:	bf 40 00 00 00 00 00 00	mov64 r0, r4
   17124:	7b 0a 60 ff 00 00 00 00	stxdw [r10 - 160], r0
   17125:	bf 23 00 00 00 00 00 00	mov64 r3, r2
   17126:	3d 20 21 00 00 00 00 00	jge r0, r2, +33 <custom_panic+0x163c8>
   17127:	bf 03 00 00 00 00 00 00	mov64 r3, r0
   17128:	07 03 00 00 fd ff ff ff	add64 r3, -3
   17129:	b7 04 00 00 00 00 00 00	mov64 r4, 0
   17130:	b7 06 00 00 01 00 00 00	mov64 r6, 1
   17131:	2d 03 01 00 00 00 00 00	jgt r3, r0, +1 <custom_panic+0x162f0>
   17132:	b7 06 00 00 00 00 00 00	mov64 r6, 0
   17133:	55 06 01 00 00 00 00 00	jne r6, 0, +1 <custom_panic+0x16300>
   17134:	bf 34 00 00 00 00 00 00	mov64 r4, r3
   17135:	bf 06 00 00 00 00 00 00	mov64 r6, r0
   17136:	07 06 00 00 01 00 00 00	add64 r6, 1
   17137:	3d 46 06 00 00 00 00 00	jge r6, r4, +6 <custom_panic+0x16348>
   17138:	bf 41 00 00 00 00 00 00	mov64 r1, r4
   17139:	bf 62 00 00 00 00 00 00	mov64 r2, r6
   17140:	18 03 00 00 30 8c 02 00 00 00 00 00 00 00 00 00	lddw r3, 166960
   17142:	85 10 00 00 75 fd ff ff	call -651
   17143:	85 10 00 00 ff ff ff ff	call -1
   17144:	bf 17 00 00 00 00 00 00	mov64 r7, r1
   17145:	0f 47 00 00 00 00 00 00	add64 r7, r4
   17146:	bf 13 00 00 00 00 00 00	mov64 r3, r1
   17147:	0f 63 00 00 00 00 00 00	add64 r3, r6
   17148:	1f 73 00 00 00 00 00 00	sub64 r3, r7
   17149:	bf 16 00 00 00 00 00 00	mov64 r6, r1
   17150:	0f 06 00 00 00 00 00 00	add64 r6, r0
   17151:	b7 00 00 00 c0 ff ff ff	mov64 r0, -64
   17152:	15 03 06 00 00 00 00 00	jeq r3, 0, +6 <custom_panic+0x163c0>
   17153:	07 03 00 00 ff ff ff ff	add64 r3, -1
   17154:	71 67 00 00 00 00 00 00	ldxb r7, [r6 + 0]
   17155:	07 06 00 00 ff ff ff ff	add64 r6, -1
   17156:	67 07 00 00 38 00 00 00	lsh64 r7, 56
   17157:	c7 07 00 00 38 00 00 00	arsh64 r7, 56
   17158:	6d 70 f9 ff 00 00 00 00	jsgt r0, r7, -7 <custom_panic+0x16388>
   17159:	0f 43 00 00 00 00 00 00	add64 r3, r4
   17160:	bf 24 00 00 00 00 00 00	mov64 r4, r2
   17161:	15 03 05 00 00 00 00 00	jeq r3, 0, +5 <custom_panic+0x16400>
   17162:	2d 32 2d 00 00 00 00 00	jgt r2, r3, +45 <custom_panic+0x16548>
   17163:	bf 24 00 00 00 00 00 00	mov64 r4, r2
   17164:	1f 34 00 00 00 00 00 00	sub64 r4, r3
   17165:	1d 32 01 00 00 00 00 00	jeq r2, r3, +1 <custom_panic+0x16400>
   17166:	05 00 31 00 00 00 00 00	ja +49 <custom_panic+0x16588>
   17167:	15 04 22 00 00 00 00 00	jeq r4, 0, +34 <custom_panic+0x16518>
   17168:	0f 31 00 00 00 00 00 00	add64 r1, r3
   17169:	71 10 00 00 00 00 00 00	ldxb r0, [r1 + 0]
   17170:	bf 02 00 00 00 00 00 00	mov64 r2, r0
   17171:	67 02 00 00 38 00 00 00	lsh64 r2, 56
   17172:	c7 02 00 00 38 00 00 00	arsh64 r2, 56
   17173:	65 02 2d 00 ff ff ff ff	jsgt r2, -1, +45 <custom_panic+0x165a0>
   17174:	71 12 01 00 00 00 00 00	ldxb r2, [r1 + 1]
   17175:	57 02 00 00 3f 00 00 00	and64 r2, 63
   17176:	bf 04 00 00 00 00 00 00	mov64 r4, r0
   17177:	57 04 00 00 1f 00 00 00	and64 r4, 31
   17178:	bf 46 00 00 00 00 00 00	mov64 r6, r4
   17179:	67 06 00 00 06 00 00 00	lsh64 r6, 6
   17180:	4f 26 00 00 00 00 00 00	or64 r6, r2
   17181:	25 00 01 00 df 00 00 00	jgt r0, 223, +1 <custom_panic+0x16480>
   17182:	05 00 25 00 00 00 00 00	ja +37 <custom_panic+0x165a8>
   17183:	67 02 00 00 06 00 00 00	lsh64 r2, 6
   17184:	71 16 02 00 00 00 00 00	ldxb r6, [r1 + 2]
   17185:	57 06 00 00 3f 00 00 00	and64 r6, 63
   17186:	4f 62 00 00 00 00 00 00	or64 r2, r6
   17187:	bf 47 00 00 00 00 00 00	mov64 r7, r4
   17188:	67 07 00 00 0c 00 00 00	lsh64 r7, 12
   17189:	bf 26 00 00 00 00 00 00	mov64 r6, r2
   17190:	4f 76 00 00 00 00 00 00	or64 r6, r7
   17191:	b7 07 00 00 f0 00 00 00	mov64 r7, 240
   17192:	2d 07 1b 00 00 00 00 00	jgt r7, r0, +27 <custom_panic+0x165a8>
   17193:	67 02 00 00 06 00 00 00	lsh64 r2, 6
   17194:	71 11 03 00 00 00 00 00	ldxb r1, [r1 + 3]
   17195:	57 01 00 00 3f 00 00 00	and64 r1, 63
   17196:	4f 12 00 00 00 00 00 00	or64 r2, r1
   17197:	67 04 00 00 12 00 00 00	lsh64 r4, 18
   17198:	57 04 00 00 00 00 1c 00	and64 r4, 1835008
   17199:	4f 42 00 00 00 00 00 00	or64 r2, r4
   17200:	bf 26 00 00 00 00 00 00	mov64 r6, r2
   17201:	05 00 12 00 00 00 00 00	ja +18 <custom_panic+0x165a8>
   17202:	18 01 00 00 e8 6b 02 00 00 00 00 00 00 00 00 00	lddw r1, 158696
   17204:	b7 02 00 00 2b 00 00 00	mov64 r2, 43
   17205:	bf 53 00 00 00 00 00 00	mov64 r3, r5
   17206:	85 10 00 00 30 f6 ff ff	call -2512
   17207:	85 10 00 00 ff ff ff ff	call -1
   17208:	bf 24 00 00 00 00 00 00	mov64 r4, r2
   17209:	1f 34 00 00 00 00 00 00	sub64 r4, r3
   17210:	bf 10 00 00 00 00 00 00	mov64 r0, r1
   17211:	0f 30 00 00 00 00 00 00	add64 r0, r3
   17212:	71 00 00 00 00 00 00 00	ldxb r0, [r0 + 0]
   17213:	67 00 00 00 38 00 00 00	lsh64 r0, 56
   17214:	c7 00 00 00 38 00 00 00	arsh64 r0, 56
   17215:	65 00 cf ff bf ff ff ff	jsgt r0, -65, -49 <custom_panic+0x16400>
   17216:	bf 24 00 00 00 00 00 00	mov64 r4, r2
   17217:	85 10 00 00 20 ff ff ff	call -224
   17218:	85 10 00 00 ff ff ff ff	call -1
   17219:	bf 06 00 00 00 00 00 00	mov64 r6, r0
   17220:	b7 01 00 00 01 00 00 00	mov64 r1, 1
   17221:	63 6a 6c ff 00 00 00 00	stxw [r10 - 148], r6
   17222:	b7 02 00 00 80 00 00 00	mov64 r2, 128
   17223:	2d 62 07 00 00 00 00 00	jgt r2, r6, +7 <custom_panic+0x16600>
   17224:	b7 01 00 00 02 00 00 00	mov64 r1, 2
   17225:	b7 02 00 00 00 08 00 00	mov64 r2, 2048
   17226:	2d 62 04 00 00 00 00 00	jgt r2, r6, +4 <custom_panic+0x16600>
   17227:	b7 01 00 00 03 00 00 00	mov64 r1, 3
   17228:	b7 02 00 00 00 00 01 00	mov64 r2, 65536
   17229:	2d 62 01 00 00 00 00 00	jgt r2, r6, +1 <custom_panic+0x16600>
   17230:	b7 01 00 00 04 00 00 00	mov64 r1, 4
   17231:	7b 3a 70 ff 00 00 00 00	stxdw [r10 - 144], r3
   17232:	0f 31 00 00 00 00 00 00	add64 r1, r3
   17233:	7b 1a 78 ff 00 00 00 00	stxdw [r10 - 136], r1
   17234:	b7 01 00 00 00 00 00 00	mov64 r1, 0
   17235:	7b 1a a0 ff 00 00 00 00	stxdw [r10 - 96], r1
   17236:	18 01 00 00 70 8b 02 00 00 00 00 00 00 00 00 00	lddw r1, 166768
   17238:	7b 1a 80 ff 00 00 00 00	stxdw [r10 - 128], r1
   17239:	b7 01 00 00 05 00 00 00	mov64 r1, 5
   17240:	7b 1a 88 ff 00 00 00 00	stxdw [r10 - 120], r1
   17241:	7b 1a 98 ff 00 00 00 00	stxdw [r10 - 104], r1
   17242:	bf a1 00 00 00 00 00 00	mov64 r1, r10
   17243:	07 01 00 00 b0 ff ff ff	add64 r1, -80
   17244:	7b 1a 90 ff 00 00 00 00	stxdw [r10 - 112], r1
   17245:	bf a1 00 00 00 00 00 00	mov64 r1, r10
   17246:	07 01 00 00 50 ff ff ff	add64 r1, -176
   17247:	7b 1a f0 ff 00 00 00 00	stxdw [r10 - 16], r1
   17248:	18 01 00 00 40 37 02 00 00 00 00 00 00 00 00 00	lddw r1, 145216
   17250:	7b 1a f8 ff 00 00 00 00	stxdw [r10 - 8], r1
   17251:	7b 1a e8 ff 00 00 00 00	stxdw [r10 - 24], r1
   17252:	bf a1 00 00 00 00 00 00	mov64 r1, r10
   17253:	07 01 00 00 40 ff ff ff	add64 r1, -192
   17254:	7b 1a e0 ff 00 00 00 00	stxdw [r10 - 32], r1
   17255:	18 01 00 00 50 bc 01 00 00 00 00 00 00 00 00 00	lddw r1, 113744
   17257:	7b 1a d8 ff 00 00 00 00	stxdw [r10 - 40], r1
   17258:	bf a1 00 00 00 00 00 00	mov64 r1, r10
   17259:	07 01 00 00 70 ff ff ff	add64 r1, -144
   17260:	7b 1a d0 ff 00 00 00 00	stxdw [r10 - 48], r1
   17261:	18 01 00 00 48 ff 01 00 00 00 00 00 00 00 00 00	lddw r1, 130888
   17263:	7b 1a c8 ff 00 00 00 00	stxdw [r10 - 56], r1
   17264:	bf a1 00 00 00 00 00 00	mov64 r1, r10
   17265:	07 01 00 00 6c ff ff ff	add64 r1, -148
   17266:	7b 1a c0 ff 00 00 00 00	stxdw [r10 - 64], r1
   17267:	18 01 00 00 28 34 02 00 00 00 00 00 00 00 00 00	lddw r1, 144424
   17269:	7b 1a b8 ff 00 00 00 00	stxdw [r10 - 72], r1
   17270:	bf a1 00 00 00 00 00 00	mov64 r1, r10
   17271:	07 01 00 00 60 ff ff ff	add64 r1, -160
   17272:	7b 1a b0 ff 00 00 00 00	stxdw [r10 - 80], r1
   17273:	bf a1 00 00 00 00 00 00	mov64 r1, r10
   17274:	07 01 00 00 80 ff ff ff	add64 r1, -128
   17275:	bf 52 00 00 00 00 00 00	mov64 r2, r5
   17276:	85 10 00 00 dc f5 ff ff	call -2596
   17277:	85 10 00 00 ff ff ff ff	call -1
   17278:	bf 19 00 00 00 00 00 00	mov64 r9, r1
   17279:	79 51 10 f0 00 00 00 00	ldxdw r1, [r5 - 4080]
   17280:	7b 1a f0 ff 00 00 00 00	stxdw [r10 - 16], r1
   17281:	79 56 08 f0 00 00 00 00	ldxdw r6, [r5 - 4088]
   17282:	15 03 29 00 00 00 00 00	jeq r3, 0, +41 <custom_panic+0x168e8>
   17283:	67 03 00 00 01 00 00 00	lsh64 r3, 1
   17284:	bf 21 00 00 00 00 00 00	mov64 r1, r2
   17285:	0f 31 00 00 00 00 00 00	add64 r1, r3
   17286:	7b 1a f8 ff 00 00 00 00	stxdw [r10 - 8], r1
   17287:	79 58 00 f0 00 00 00 00	ldxdw r8, [r5 - 4096]
   17288:	bf 93 00 00 00 00 00 00	mov64 r3, r9
   17289:	57 03 00 00 00 ff 00 00	and64 r3, 65280
   17290:	77 03 00 00 08 00 00 00	rsh64 r3, 8
   17291:	b7 00 00 00 00 00 00 00	mov64 r0, 0
   17292:	7b 4a e0 ff 00 00 00 00	stxdw [r10 - 32], r4
   17293:	7b 8a e8 ff 00 00 00 00	stxdw [r10 - 24], r8
   17294:	05 00 04 00 00 00 00 00	ja +4 <custom_panic+0x16820>
   17295:	2d 31 1c 00 00 00 00 00	jgt r1, r3, +28 <custom_panic+0x168e8>
   17296:	bf 50 00 00 00 00 00 00	mov64 r0, r5
   17297:	79 a1 f8 ff 00 00 00 00	ldxdw r1, [r10 - 8]
   17298:	1d 12 19 00 00 00 00 00	jeq r2, r1, +25 <custom_panic+0x168e8>
   17299:	71 27 01 00 00 00 00 00	ldxb r7, [r2 + 1]
   17300:	bf 05 00 00 00 00 00 00	mov64 r5, r0
   17301:	0f 75 00 00 00 00 00 00	add64 r5, r7
   17302:	71 21 00 00 00 00 00 00	ldxb r1, [r2 + 0]
   17303:	07 02 00 00 02 00 00 00	add64 r2, 2
   17304:	1d 31 01 00 00 00 00 00	jeq r1, r3, +1 <custom_panic+0x16858>
   17305:	05 00 f5 ff 00 00 00 00	ja -11 <custom_panic+0x16800>
   17306:	2d 50 37 00 00 00 00 00	jgt r0, r5, +55 <custom_panic+0x16a18>
   17307:	2d 85 3c 00 00 00 00 00	jgt r5, r8, +60 <custom_panic+0x16a48>
   17308:	0f 04 00 00 00 00 00 00	add64 r4, r0
   17309:	15 07 08 00 00 00 00 00	jeq r7, 0, +8 <custom_panic+0x168b8>
   17310:	b7 00 00 00 00 00 00 00	mov64 r0, 0
   17311:	07 07 00 00 ff ff ff ff	add64 r7, -1
   17312:	bf 91 00 00 00 00 00 00	mov64 r1, r9
   17313:	57 01 00 00 ff 00 00 00	and64 r1, 255
   17314:	71 48 00 00 00 00 00 00	ldxb r8, [r4 + 0]
   17315:	07 04 00 00 01 00 00 00	add64 r4, 1
   17316:	1d 18 24 00 00 00 00 00	jeq r8, r1, +36 <custom_panic+0x169d0>
   17317:	05 00 f7 ff 00 00 00 00	ja -9 <custom_panic+0x16870>
   17318:	bf 50 00 00 00 00 00 00	mov64 r0, r5
   17319:	79 a4 e0 ff 00 00 00 00	ldxdw r4, [r10 - 32]
   17320:	79 a8 e8 ff 00 00 00 00	ldxdw r8, [r10 - 24]
   17321:	79 a1 f8 ff 00 00 00 00	ldxdw r1, [r10 - 8]
   17322:	1d 12 01 00 00 00 00 00	jeq r2, r1, +1 <custom_panic+0x168e8>
   17323:	05 00 e7 ff 00 00 00 00	ja -25 <custom_panic+0x16820>
   17324:	b7 00 00 00 01 00 00 00	mov64 r0, 1
   17325:	79 a1 f0 ff 00 00 00 00	ldxdw r1, [r10 - 16]
   17326:	15 01 1a 00 00 00 00 00	jeq r1, 0, +26 <custom_panic+0x169d0>
   17327:	bf 62 00 00 00 00 00 00	mov64 r2, r6
   17328:	79 a1 f0 ff 00 00 00 00	ldxdw r1, [r10 - 16]
   17329:	0f 12 00 00 00 00 00 00	add64 r2, r1
   17330:	57 09 00 00 ff ff 00 00	and64 r9, 65535
   17331:	b7 03 00 00 00 00 00 00	mov64 r3, 0
   17332:	bf 65 00 00 00 00 00 00	mov64 r5, r6
   17333:	07 05 00 00 01 00 00 00	add64 r5, 1
   17334:	71 64 00 00 00 00 00 00	ldxb r4, [r6 + 0]
   17335:	bf 47 00 00 00 00 00 00	mov64 r7, r4
   17336:	67 07 00 00 38 00 00 00	lsh64 r7, 56
   17337:	c7 07 00 00 38 00 00 00	arsh64 r7, 56
   17338:	6d 73 02 00 00 00 00 00	jsgt r3, r7, +2 <custom_panic+0x16970>
   17339:	bf 56 00 00 00 00 00 00	mov64 r6, r5
   17340:	05 00 06 00 00 00 00 00	ja +6 <custom_panic+0x169a0>
   17341:	1d 25 0d 00 00 00 00 00	jeq r5, r2, +13 <custom_panic+0x169e0>
   17342:	57 04 00 00 7f 00 00 00	and64 r4, 127
   17343:	67 04 00 00 08 00 00 00	lsh64 r4, 8
   17344:	71 65 01 00 00 00 00 00	ldxb r5, [r6 + 1]
   17345:	4f 54 00 00 00 00 00 00	or64 r4, r5
   17346:	07 06 00 00 02 00 00 00	add64 r6, 2
   17347:	1f 49 00 00 00 00 00 00	sub64 r9, r4
   17348:	67 09 00 00 20 00 00 00	lsh64 r9, 32
   17349:	c7 09 00 00 20 00 00 00	arsh64 r9, 32
   17350:	6d 93 02 00 00 00 00 00	jsgt r3, r9, +2 <custom_panic+0x169d0>
   17351:	a7 00 00 00 01 00 00 00	xor64 r0, 1
   17352:	5d 26 eb ff 00 00 00 00	jne r6, r2, -21 <custom_panic+0x16928>
   17353:	57 00 00 00 01 00 00 00	and64 r0, 1
   17354:	95 00 00 00 00 00 00 00	exit
   17355:	18 01 00 00 e8 6b 02 00 00 00 00 00 00 00 00 00	lddw r1, 158696
   17357:	b7 02 00 00 2b 00 00 00	mov64 r2, 43
   17358:	18 03 00 00 48 8c 02 00 00 00 00 00 00 00 00 00	lddw r3, 166984
   17360:	85 10 00 00 96 f5 ff ff	call -2666
   17361:	85 10 00 00 ff ff ff ff	call -1
   17362:	bf 01 00 00 00 00 00 00	mov64 r1, r0
   17363:	bf 52 00 00 00 00 00 00	mov64 r2, r5
   17364:	18 03 00 00 60 8c 02 00 00 00 00 00 00 00 00 00	lddw r3, 167008
   17366:	85 10 00 00 95 fc ff ff	call -875
   17367:	85 10 00 00 ff ff ff ff	call -1
   17368:	bf 51 00 00 00 00 00 00	mov64 r1, r5
   17369:	79 a2 e8 ff 00 00 00 00	ldxdw r2, [r10 - 24]
   17370:	18 03 00 00 60 8c 02 00 00 00 00 00 00 00 00 00	lddw r3, 167008
   17372:	85 10 00 00 73 fc ff ff	call -909
   17373:	85 10 00 00 ff ff ff ff	call -1
   17374:	b7 00 00 00 00 00 00 00	mov64 r0, 0
   17375:	bf 12 00 00 00 00 00 00	mov64 r2, r1
   17376:	67 02 00 00 20 00 00 00	lsh64 r2, 32
   17377:	77 02 00 00 20 00 00 00	rsh64 r2, 32
   17378:	b7 03 00 00 20 00 00 00	mov64 r3, 32
   17379:	2d 23 27 00 00 00 00 00	jgt r3, r2, +39 <custom_panic+0x16be0>
   17380:	b7 00 00 00 01 00 00 00	mov64 r0, 1
   17381:	b7 03 00 00 7f 00 00 00	mov64 r3, 127
   17382:	2d 23 24 00 00 00 00 00	jgt r3, r2, +36 <custom_panic+0x16be0>
   17383:	bf 12 00 00 00 00 00 00	mov64 r2, r1
   17384:	67 02 00 00 20 00 00 00	lsh64 r2, 32
   17385:	77 02 00 00 20 00 00 00	rsh64 r2, 32
   17386:	b7 03 00 00 00 00 01 00	mov64 r3, 65536
   17387:	2d 23 11 00 00 00 00 00	jgt r3, r2, +17 <custom_panic+0x16b70>
   17388:	b7 03 00 00 00 00 02 00	mov64 r3, 131072
   17389:	2d 23 01 00 00 00 00 00	jgt r3, r2, +1 <custom_panic+0x16b00>
   17390:	05 00 1d 00 00 00 00 00	ja +29 <custom_panic+0x16be8>
   17391:	18 02 00 00 e4 70 02 00 00 00 00 00 00 00 00 00	lddw r2, 159972
   17393:	7b 2a 08 f0 00 00 00 00	stxdw [r10 - 4088], r2
   17394:	b7 02 00 00 c2 01 00 00	mov64 r2, 450
   17395:	7b 2a 10 f0 00 00 00 00	stxdw [r10 - 4080], r2
   17396:	b7 02 00 00 c4 00 00 00	mov64 r2, 196
   17397:	7b 2a 00 f0 00 00 00 00	stxdw [r10 - 4096], r2
   17398:	bf a5 00 00 00 00 00 00	mov64 r5, r10
   17399:	18 02 00 00 c8 6f 02 00 00 00 00 00 00 00 00 00	lddw r2, 159688
   17401:	b7 03 00 00 2c 00 00 00	mov64 r3, 44
   17402:	18 04 00 00 20 70 02 00 00 00 00 00 00 00 00 00	lddw r4, 159776
   17404:	05 00 0d 00 00 00 00 00	ja +13 <custom_panic+0x16bd8>
   17405:	18 02 00 00 15 74 02 00 00 00 00 00 00 00 00 00	lddw r2, 160789
   17407:	7b 2a 08 f0 00 00 00 00	stxdw [r10 - 4088], r2
   17408:	b7 02 00 00 2f 01 00 00	mov64 r2, 303
   17409:	7b 2a 10 f0 00 00 00 00	stxdw [r10 - 4080], r2
   17410:	b7 02 00 00 1f 01 00 00	mov64 r2, 287
   17411:	7b 2a 00 f0 00 00 00 00	stxdw [r10 - 4096], r2
   17412:	bf a5 00 00 00 00 00 00	mov64 r5, r10
   17413:	18 02 00 00 a6 72 02 00 00 00 00 00 00 00 00 00	lddw r2, 160422
   17415:	b7 03 00 00 28 00 00 00	mov64 r3, 40
   17416:	18 04 00 00 f6 72 02 00 00 00 00 00 00 00 00 00	lddw r4, 160502
   17418:	85 10 00 00 73 ff ff ff	call -141
   17419:	95 00 00 00 00 00 00 00	exit
   17420:	bf 14 00 00 00 00 00 00	mov64 r4, r1
   17421:	07 04 00 00 c6 48 fd ff	add64 r4, -177978
   17422:	67 04 00 00 20 00 00 00	lsh64 r4, 32
   17423:	77 04 00 00 20 00 00 00	rsh64 r4, 32
   17424:	b7 03 00 00 01 00 00 00	mov64 r3, 1
   17425:	b7 05 00 00 06 00 00 00	mov64 r5, 6
   17426:	b7 02 00 00 01 00 00 00	mov64 r2, 1
   17427:	2d 45 01 00 00 00 00 00	jgt r5, r4, +1 <custom_panic+0x16c30>
   17428:	b7 02 00 00 00 00 00 00	mov64 r2, 0
   17429:	bf 15 00 00 00 00 00 00	mov64 r5, r1
   17430:	07 05 00 00 5e 31 fd ff	add64 r5, -183970
   17431:	67 05 00 00 20 00 00 00	lsh64 r5, 32
   17432:	77 05 00 00 20 00 00 00	rsh64 r5, 32
   17433:	b7 00 00 00 0e 00 00 00	mov64 r0, 14
   17434:	b7 04 00 00 01 00 00 00	mov64 r4, 1
   17435:	2d 50 01 00 00 00 00 00	jgt r0, r5, +1 <custom_panic+0x16c70>
   17436:	b7 04 00 00 00 00 00 00	mov64 r4, 0
   17437:	bf 10 00 00 00 00 00 00	mov64 r0, r1
   17438:	07 00 00 00 e2 05 fd ff	add64 r0, -195102
   17439:	67 00 00 00 20 00 00 00	lsh64 r0, 32
   17440:	77 00 00 00 20 00 00 00	rsh64 r0, 32
   17441:	b7 06 00 00 e2 05 00 00	mov64 r6, 1506
   17442:	b7 05 00 00 01 00 00 00	mov64 r5, 1
   17443:	2d 06 01 00 00 00 00 00	jgt r6, r0, +1 <custom_panic+0x16cb0>
   17444:	b7 05 00 00 00 00 00 00	mov64 r5, 0
   17445:	bf 10 00 00 00 00 00 00	mov64 r0, r1
   17446:	07 00 00 00 1f 14 fd ff	add64 r0, -191457
   17447:	67 00 00 00 20 00 00 00	lsh64 r0, 32
   17448:	77 00 00 00 20 00 00 00	rsh64 r0, 32
   17449:	b7 06 00 00 1f 0c 00 00	mov64 r6, 3103
   17450:	2d 06 01 00 00 00 00 00	jgt r6, r0, +1 <custom_panic+0x16ce8>
   17451:	b7 03 00 00 00 00 00 00	mov64 r3, 0
   17452:	67 03 00 00 02 00 00 00	lsh64 r3, 2
   17453:	67 05 00 00 03 00 00 00	lsh64 r5, 3
   17454:	4f 35 00 00 00 00 00 00	or64 r5, r3
   17455:	67 04 00 00 01 00 00 00	lsh64 r4, 1
   17456:	4f 42 00 00 00 00 00 00	or64 r2, r4
   17457:	4f 52 00 00 00 00 00 00	or64 r2, r5
   17458:	b7 00 00 00 00 00 00 00	mov64 r0, 0
   17459:	55 02 d7 ff 00 00 00 00	jne r2, 0, -41 <custom_panic+0x16be0>
   17460:	bf 12 00 00 00 00 00 00	mov64 r2, r1
   17461:	07 02 00 00 b5 ec fc ff	add64 r2, -201547
   17462:	67 02 00 00 20 00 00 00	lsh64 r2, 32
   17463:	77 02 00 00 20 00 00 00	rsh64 r2, 32
   17464:	b7 03 00 00 05 00 00 00	mov64 r3, 5
   17465:	2d 23 d1 ff 00 00 00 00	jgt r3, r2, -47 <custom_panic+0x16be0>
   17466:	bf 12 00 00 00 00 00 00	mov64 r2, r1
   17467:	07 02 00 00 50 dc fc ff	add64 r2, -205744
   17468:	67 02 00 00 20 00 00 00	lsh64 r2, 32
   17469:	77 02 00 00 20 00 00 00	rsh64 r2, 32
   17470:	b7 03 00 00 50 dd 0a 00	mov64 r3, 712016
   17471:	2d 23 cb ff 00 00 00 00	jgt r3, r2, -53 <custom_panic+0x16be0>
   17472:	bf 12 00 00 00 00 00 00	mov64 r2, r1
   17473:	57 02 00 00 e0 ff ff ff	and64 r2, -32
   17474:	67 02 00 00 20 00 00 00	lsh64 r2, 32
   17475:	77 02 00 00 20 00 00 00	rsh64 r2, 32
   17476:	15 02 c6 ff e0 a6 02 00	jeq r2, 173792, -58 <custom_panic+0x16be0>
   17477:	bf 12 00 00 00 00 00 00	mov64 r2, r1
   17478:	57 02 00 00 fe ff ff ff	and64 r2, -2
   17479:	67 02 00 00 20 00 00 00	lsh64 r2, 32
   17480:	77 02 00 00 20 00 00 00	rsh64 r2, 32
   17481:	15 02 c1 ff 1e b8 02 00	jeq r2, 178206, -63 <custom_panic+0x16be0>
   17482:	b7 00 00 00 01 00 00 00	mov64 r0, 1
   17483:	07 01 00 00 10 fe f1 ff	add64 r1, -918000
   17484:	67 01 00 00 20 00 00 00	lsh64 r1, 32
   17485:	77 01 00 00 20 00 00 00	rsh64 r1, 32
   17486:	25 01 bc ff 0f fe 02 00	jgt r1, 196111, -68 <custom_panic+0x16be0>
   17487:	b7 00 00 00 00 00 00 00	mov64 r0, 0
   17488:	05 00 ba ff 00 00 00 00	ja -70 <custom_panic+0x16be0>
   17489:	b7 03 00 00 00 00 00 00	mov64 r3, 0
   17490:	71 15 00 00 00 00 00 00	ldxb r5, [r1 + 0]
   17491:	b7 01 00 00 0a 00 00 00	mov64 r1, 10
   17492:	b7 04 00 00 10 00 00 00	mov64 r4, 16
   17493:	05 00 0b 00 00 00 00 00	ja +11 <custom_panic+0x16e90>
   17494:	0f 60 00 00 00 00 00 00	add64 r0, r6
   17495:	bf a6 00 00 00 00 00 00	mov64 r6, r10
   17496:	07 06 00 00 80 ff ff ff	add64 r6, -128
   17497:	0f 36 00 00 00 00 00 00	add64 r6, r3
   17498:	73 06 7f 00 00 00 00 00	stxb [r6 + 127], r0
   17499:	07 03 00 00 ff ff ff ff	add64 r3, -1
   17500:	bf 50 00 00 00 00 00 00	mov64 r0, r5
   17501:	57 00 00 00 ff 00 00 00	and64 r0, 255
   17502:	bf 05 00 00 00 00 00 00	mov64 r5, r0
   17503:	77 05 00 00 04 00 00 00	rsh64 r5, 4
   17504:	2d 04 06 00 00 00 00 00	jgt r4, r0, +6 <custom_panic+0x16ec0>
   17505:	bf 56 00 00 00 00 00 00	mov64 r6, r5
   17506:	57 06 00 00 0f 00 00 00	and64 r6, 15
   17507:	b7 00 00 00 30 00 00 00	mov64 r0, 48
   17508:	2d 61 f1 ff 00 00 00 00	jgt r1, r6, -15 <custom_panic+0x16e38>
   17509:	b7 00 00 00 57 00 00 00	mov64 r0, 87
   17510:	05 00 ef ff 00 00 00 00	ja -17 <custom_panic+0x16e38>
   17511:	bf 31 00 00 00 00 00 00	mov64 r1, r3
   17512:	07 01 00 00 80 00 00 00	add64 r1, 128
   17513:	b7 04 00 00 81 00 00 00	mov64 r4, 129
   17514:	2d 14 05 00 00 00 00 00	jgt r4, r1, +5 <custom_panic+0x16f08>
   17515:	b7 02 00 00 80 00 00 00	mov64 r2, 128
   17516:	18 03 00 00 d8 89 02 00 00 00 00 00 00 00 00 00	lddw r3, 166360
   17518:	85 10 00 00 c5 fb ff ff	call -1083
   17519:	85 10 00 00 ff ff ff ff	call -1
   17520:	bf 31 00 00 00 00 00 00	mov64 r1, r3
   17521:	87 01 00 00 00 00 00 00	neg64 r1
   17522:	7b 1a 08 f0 00 00 00 00	stxdw [r10 - 4088], r1
   17523:	bf a1 00 00 00 00 00 00	mov64 r1, r10
   17524:	07 01 00 00 80 ff ff ff	add64 r1, -128
   17525:	0f 31 00 00 00 00 00 00	add64 r1, r3
   17526:	07 01 00 00 80 00 00 00	add64 r1, 128
   17527:	7b 1a 00 f0 00 00 00 00	stxdw [r10 - 4096], r1
   17528:	bf a5 00 00 00 00 00 00	mov64 r5, r10
   17529:	bf 21 00 00 00 00 00 00	mov64 r1, r2
   17530:	b7 02 00 00 01 00 00 00	mov64 r2, 1
   17531:	18 03 00 00 8e 6c 02 00 00 00 00 00 00 00 00 00	lddw r3, 158862
   17533:	b7 04 00 00 02 00 00 00	mov64 r4, 2
   17534:	85 10 00 00 39 f8 ff ff	call -1991
   17535:	95 00 00 00 00 00 00 00	exit
   17536:	b7 03 00 00 00 00 00 00	mov64 r3, 0
   17537:	71 15 00 00 00 00 00 00	ldxb r5, [r1 + 0]
   17538:	b7 01 00 00 0a 00 00 00	mov64 r1, 10
   17539:	b7 04 00 00 10 00 00 00	mov64 r4, 16
   17540:	05 00 0b 00 00 00 00 00	ja +11 <custom_panic+0x17008>
   17541:	0f 60 00 00 00 00 00 00	add64 r0, r6
   17542:	bf a6 00 00 00 00 00 00	mov64 r6, r10
   17543:	07 06 00 00 80 ff ff ff	add64 r6, -128
   17544:	0f 36 00 00 00 00 00 00	add64 r6, r3
   17545:	73 06 7f 00 00 00 00 00	stxb [r6 + 127], r0
   17546:	07 03 00 00 ff ff ff ff	add64 r3, -1
   17547:	bf 50 00 00 00 00 00 00	mov64 r0, r5
   17548:	57 00 00 00 ff 00 00 00	and64 r0, 255
   17549:	bf 05 00 00 00 00 00 00	mov64 r5, r0
   17550:	77 05 00 00 04 00 00 00	rsh64 r5, 4
   17551:	2d 04 06 00 00 00 00 00	jgt r4, r0, +6 <custom_panic+0x17038>
   17552:	bf 56 00 00 00 00 00 00	mov64 r6, r5
   17553:	57 06 00 00 0f 00 00 00	and64 r6, 15
   17554:	b7 00 00 00 30 00 00 00	mov64 r0, 48
   17555:	2d 61 f1 ff 00 00 00 00	jgt r1, r6, -15 <custom_panic+0x16fb0>
   17556:	b7 00 00 00 37 00 00 00	mov64 r0, 55
   17557:	05 00 ef ff 00 00 00 00	ja -17 <custom_panic+0x16fb0>
   17558:	bf 31 00 00 00 00 00 00	mov64 r1, r3
   17559:	07 01 00 00 80 00 00 00	add64 r1, 128
   17560:	b7 04 00 00 81 00 00 00	mov64 r4, 129
   17561:	2d 14 05 00 00 00 00 00	jgt r4, r1, +5 <custom_panic+0x17080>
   17562:	b7 02 00 00 80 00 00 00	mov64 r2, 128
   17563:	18 03 00 00 d8 89 02 00 00 00 00 00 00 00 00 00	lddw r3, 166360
   17565:	85 10 00 00 96 fb ff ff	call -1130
   17566:	85 10 00 00 ff ff ff ff	call -1
   17567:	bf 31 00 00 00 00 00 00	mov64 r1, r3
   17568:	87 01 00 00 00 00 00 00	neg64 r1
   17569:	7b 1a 08 f0 00 00 00 00	stxdw [r10 - 4088], r1
   17570:	bf a1 00 00 00 00 00 00	mov64 r1, r10
   17571:	07 01 00 00 80 ff ff ff	add64 r1, -128
   17572:	0f 31 00 00 00 00 00 00	add64 r1, r3
   17573:	07 01 00 00 80 00 00 00	add64 r1, 128
   17574:	7b 1a 00 f0 00 00 00 00	stxdw [r10 - 4096], r1
   17575:	bf a5 00 00 00 00 00 00	mov64 r5, r10
   17576:	bf 21 00 00 00 00 00 00	mov64 r1, r2
   17577:	b7 02 00 00 01 00 00 00	mov64 r2, 1
   17578:	18 03 00 00 8e 6c 02 00 00 00 00 00 00 00 00 00	lddw r3, 158862
   17580:	b7 04 00 00 02 00 00 00	mov64 r4, 2
   17581:	85 10 00 00 0a f8 ff ff	call -2038
   17582:	95 00 00 00 00 00 00 00	exit
   17583:	b7 03 00 00 00 00 00 00	mov64 r3, 0
   17584:	61 15 00 00 00 00 00 00	ldxw r5, [r1 + 0]
   17585:	b7 01 00 00 0a 00 00 00	mov64 r1, 10
   17586:	b7 04 00 00 10 00 00 00	mov64 r4, 16
   17587:	05 00 0c 00 00 00 00 00	ja +12 <custom_panic+0x17188>
   17588:	0f 60 00 00 00 00 00 00	add64 r0, r6
   17589:	bf a6 00 00 00 00 00 00	mov64 r6, r10
   17590:	07 06 00 00 80 ff ff ff	add64 r6, -128
   17591:	0f 36 00 00 00 00 00 00	add64 r6, r3
   17592:	73 06 7f 00 00 00 00 00	stxb [r6 + 127], r0
   17593:	07 03 00 00 ff ff ff ff	add64 r3, -1
   17594:	67 05 00 00 20 00 00 00	lsh64 r5, 32
   17595:	bf 50 00 00 00 00 00 00	mov64 r0, r5
   17596:	77 00 00 00 20 00 00 00	rsh64 r0, 32
   17597:	bf 05 00 00 00 00 00 00	mov64 r5, r0
   17598:	77 05 00 00 04 00 00 00	rsh64 r5, 4
   17599:	2d 04 06 00 00 00 00 00	jgt r4, r0, +6 <custom_panic+0x171b8>
   17600:	bf 56 00 00 00 00 00 00	mov64 r6, r5
   17601:	57 06 00 00 0f 00 00 00	and64 r6, 15
   17602:	b7 00 00 00 30 00 00 00	mov64 r0, 48
   17603:	2d 61 f0 ff 00 00 00 00	jgt r1, r6, -16 <custom_panic+0x17128>
   17604:	b7 00 00 00 57 00 00 00	mov64 r0, 87
   17605:	05 00 ee ff 00 00 00 00	ja -18 <custom_panic+0x17128>
   17606:	bf 31 00 00 00 00 00 00	mov64 r1, r3
   17607:	07 01 00 00 80 00 00 00	add64 r1, 128
   17608:	b7 04 00 00 81 00 00 00	mov64 r4, 129
   17609:	2d 14 05 00 00 00 00 00	jgt r4, r1, +5 <custom_panic+0x17200>
   17610:	b7 02 00 00 80 00 00 00	mov64 r2, 128
   17611:	18 03 00 00 d8 89 02 00 00 00 00 00 00 00 00 00	lddw r3, 166360
   17613:	85 10 00 00 66 fb ff ff	call -1178
   17614:	85 10 00 00 ff ff ff ff	call -1
   17615:	bf 31 00 00 00 00 00 00	mov64 r1, r3
   17616:	87 01 00 00 00 00 00 00	neg64 r1
   17617:	7b 1a 08 f0 00 00 00 00	stxdw [r10 - 4088], r1
   17618:	bf a1 00 00 00 00 00 00	mov64 r1, r10
   17619:	07 01 00 00 80 ff ff ff	add64 r1, -128
   17620:	0f 31 00 00 00 00 00 00	add64 r1, r3
   17621:	07 01 00 00 80 00 00 00	add64 r1, 128
   17622:	7b 1a 00 f0 00 00 00 00	stxdw [r10 - 4096], r1
   17623:	bf a5 00 00 00 00 00 00	mov64 r5, r10
   17624:	bf 21 00 00 00 00 00 00	mov64 r1, r2
   17625:	b7 02 00 00 01 00 00 00	mov64 r2, 1
   17626:	18 03 00 00 8e 6c 02 00 00 00 00 00 00 00 00 00	lddw r3, 158862
   17628:	b7 04 00 00 02 00 00 00	mov64 r4, 2
   17629:	85 10 00 00 da f7 ff ff	call -2086
   17630:	95 00 00 00 00 00 00 00	exit
   17631:	b7 03 00 00 00 00 00 00	mov64 r3, 0
   17632:	61 15 00 00 00 00 00 00	ldxw r5, [r1 + 0]
   17633:	b7 01 00 00 0a 00 00 00	mov64 r1, 10
   17634:	b7 04 00 00 10 00 00 00	mov64 r4, 16
   17635:	05 00 0c 00 00 00 00 00	ja +12 <custom_panic+0x17308>
   17636:	0f 60 00 00 00 00 00 00	add64 r0, r6
   17637:	bf a6 00 00 00 00 00 00	mov64 r6, r10
   17638:	07 06 00 00 80 ff ff ff	add64 r6, -128
   17639:	0f 36 00 00 00 00 00 00	add64 r6, r3
   17640:	73 06 7f 00 00 00 00 00	stxb [r6 + 127], r0
   17641:	07 03 00 00 ff ff ff ff	add64 r3, -1
   17642:	67 05 00 00 20 00 00 00	lsh64 r5, 32
   17643:	bf 50 00 00 00 00 00 00	mov64 r0, r5
   17644:	77 00 00 00 20 00 00 00	rsh64 r0, 32
   17645:	bf 05 00 00 00 00 00 00	mov64 r5, r0
   17646:	77 05 00 00 04 00 00 00	rsh64 r5, 4
   17647:	2d 04 06 00 00 00 00 00	jgt r4, r0, +6 <custom_panic+0x17338>
   17648:	bf 56 00 00 00 00 00 00	mov64 r6, r5
   17649:	57 06 00 00 0f 00 00 00	and64 r6, 15
   17650:	b7 00 00 00 30 00 00 00	mov64 r0, 48
   17651:	2d 61 f0 ff 00 00 00 00	jgt r1, r6, -16 <custom_panic+0x172a8>
   17652:	b7 00 00 00 37 00 00 00	mov64 r0, 55
   17653:	05 00 ee ff 00 00 00 00	ja -18 <custom_panic+0x172a8>
   17654:	bf 31 00 00 00 00 00 00	mov64 r1, r3
   17655:	07 01 00 00 80 00 00 00	add64 r1, 128
   17656:	b7 04 00 00 81 00 00 00	mov64 r4, 129
   17657:	2d 14 05 00 00 00 00 00	jgt r4, r1, +5 <custom_panic+0x17380>
   17658:	b7 02 00 00 80 00 00 00	mov64 r2, 128
   17659:	18 03 00 00 d8 89 02 00 00 00 00 00 00 00 00 00	lddw r3, 166360
   17661:	85 10 00 00 36 fb ff ff	call -1226
   17662:	85 10 00 00 ff ff ff ff	call -1
   17663:	bf 31 00 00 00 00 00 00	mov64 r1, r3
   17664:	87 01 00 00 00 00 00 00	neg64 r1
   17665:	7b 1a 08 f0 00 00 00 00	stxdw [r10 - 4088], r1
   17666:	bf a1 00 00 00 00 00 00	mov64 r1, r10
   17667:	07 01 00 00 80 ff ff ff	add64 r1, -128
   17668:	0f 31 00 00 00 00 00 00	add64 r1, r3
   17669:	07 01 00 00 80 00 00 00	add64 r1, 128
   17670:	7b 1a 00 f0 00 00 00 00	stxdw [r10 - 4096], r1
   17671:	bf a5 00 00 00 00 00 00	mov64 r5, r10
   17672:	bf 21 00 00 00 00 00 00	mov64 r1, r2
   17673:	b7 02 00 00 01 00 00 00	mov64 r2, 1
   17674:	18 03 00 00 8e 6c 02 00 00 00 00 00 00 00 00 00	lddw r3, 158862
   17676:	b7 04 00 00 02 00 00 00	mov64 r4, 2
   17677:	85 10 00 00 aa f7 ff ff	call -2134
   17678:	95 00 00 00 00 00 00 00	exit
   17679:	b7 03 00 00 00 00 00 00	mov64 r3, 0
   17680:	79 10 00 00 00 00 00 00	ldxdw r0, [r1 + 0]
   17681:	b7 01 00 00 0a 00 00 00	mov64 r1, 10
   17682:	b7 04 00 00 10 00 00 00	mov64 r4, 16
   17683:	05 00 09 00 00 00 00 00	ja +9 <custom_panic+0x17470>
   17684:	0f 60 00 00 00 00 00 00	add64 r0, r6
   17685:	bf a6 00 00 00 00 00 00	mov64 r6, r10
   17686:	07 06 00 00 80 ff ff ff	add64 r6, -128
   17687:	0f 36 00 00 00 00 00 00	add64 r6, r3
   17688:	73 06 7f 00 00 00 00 00	stxb [r6 + 127], r0
   17689:	07 03 00 00 ff ff ff ff	add64 r3, -1
   17690:	bf 50 00 00 00 00 00 00	mov64 r0, r5
   17691:	77 00 00 00 04 00 00 00	rsh64 r0, 4
   17692:	2d 54 07 00 00 00 00 00	jgt r4, r5, +7 <custom_panic+0x174a8>
   17693:	bf 05 00 00 00 00 00 00	mov64 r5, r0
   17694:	bf 56 00 00 00 00 00 00	mov64 r6, r5
   17695:	57 06 00 00 0f 00 00 00	and64 r6, 15
   17696:	b7 00 00 00 30 00 00 00	mov64 r0, 48
   17697:	2d 61 f2 ff 00 00 00 00	jgt r1, r6, -14 <custom_panic+0x17428>
   17698:	b7 00 00 00 57 00 00 00	mov64 r0, 87
   17699:	05 00 f0 ff 00 00 00 00	ja -16 <custom_panic+0x17428>
   17700:	bf 31 00 00 00 00 00 00	mov64 r1, r3
   17701:	07 01 00 00 80 00 00 00	add64 r1, 128
   17702:	b7 04 00 00 81 00 00 00	mov64 r4, 129
   17703:	2d 14 05 00 00 00 00 00	jgt r4, r1, +5 <custom_panic+0x174f0>
   17704:	b7 02 00 00 80 00 00 00	mov64 r2, 128
   17705:	18 03 00 00 d8 89 02 00 00 00 00 00 00 00 00 00	lddw r3, 166360
   17707:	85 10 00 00 08 fb ff ff	call -1272
   17708:	85 10 00 00 ff ff ff ff	call -1
   17709:	bf 31 00 00 00 00 00 00	mov64 r1, r3
   17710:	87 01 00 00 00 00 00 00	neg64 r1
   17711:	7b 1a 08 f0 00 00 00 00	stxdw [r10 - 4088], r1
   17712:	bf a1 00 00 00 00 00 00	mov64 r1, r10
   17713:	07 01 00 00 80 ff ff ff	add64 r1, -128
   17714:	0f 31 00 00 00 00 00 00	add64 r1, r3
   17715:	07 01 00 00 80 00 00 00	add64 r1, 128
   17716:	7b 1a 00 f0 00 00 00 00	stxdw [r10 - 4096], r1
   17717:	bf a5 00 00 00 00 00 00	mov64 r5, r10
   17718:	bf 21 00 00 00 00 00 00	mov64 r1, r2
   17719:	b7 02 00 00 01 00 00 00	mov64 r2, 1
   17720:	18 03 00 00 8e 6c 02 00 00 00 00 00 00 00 00 00	lddw r3, 158862
   17722:	b7 04 00 00 02 00 00 00	mov64 r4, 2
   17723:	85 10 00 00 7c f7 ff ff	call -2180
   17724:	95 00 00 00 00 00 00 00	exit
   17725:	b7 03 00 00 00 00 00 00	mov64 r3, 0
   17726:	79 10 00 00 00 00 00 00	ldxdw r0, [r1 + 0]
   17727:	b7 01 00 00 0a 00 00 00	mov64 r1, 10
   17728:	b7 04 00 00 10 00 00 00	mov64 r4, 16
   17729:	05 00 09 00 00 00 00 00	ja +9 <custom_panic+0x175e0>
   17730:	0f 60 00 00 00 00 00 00	add64 r0, r6
   17731:	bf a6 00 00 00 00 00 00	mov64 r6, r10
   17732:	07 06 00 00 80 ff ff ff	add64 r6, -128
   17733:	0f 36 00 00 00 00 00 00	add64 r6, r3
   17734:	73 06 7f 00 00 00 00 00	stxb [r6 + 127], r0
   17735:	07 03 00 00 ff ff ff ff	add64 r3, -1
   17736:	bf 50 00 00 00 00 00 00	mov64 r0, r5
   17737:	77 00 00 00 04 00 00 00	rsh64 r0, 4
   17738:	2d 54 07 00 00 00 00 00	jgt r4, r5, +7 <custom_panic+0x17618>
   17739:	bf 05 00 00 00 00 00 00	mov64 r5, r0
   17740:	bf 56 00 00 00 00 00 00	mov64 r6, r5
   17741:	57 06 00 00 0f 00 00 00	and64 r6, 15
   17742:	b7 00 00 00 30 00 00 00	mov64 r0, 48
   17743:	2d 61 f2 ff 00 00 00 00	jgt r1, r6, -14 <custom_panic+0x17598>
   17744:	b7 00 00 00 37 00 00 00	mov64 r0, 55
   17745:	05 00 f0 ff 00 00 00 00	ja -16 <custom_panic+0x17598>
   17746:	bf 31 00 00 00 00 00 00	mov64 r1, r3
   17747:	07 01 00 00 80 00 00 00	add64 r1, 128
   17748:	b7 04 00 00 81 00 00 00	mov64 r4, 129
   17749:	2d 14 05 00 00 00 00 00	jgt r4, r1, +5 <custom_panic+0x17660>
   17750:	b7 02 00 00 80 00 00 00	mov64 r2, 128
   17751:	18 03 00 00 d8 89 02 00 00 00 00 00 00 00 00 00	lddw r3, 166360
   17753:	85 10 00 00 da fa ff ff	call -1318
   17754:	85 10 00 00 ff ff ff ff	call -1
   17755:	bf 31 00 00 00 00 00 00	mov64 r1, r3
   17756:	87 01 00 00 00 00 00 00	neg64 r1
   17757:	7b 1a 08 f0 00 00 00 00	stxdw [r10 - 4088], r1
   17758:	bf a1 00 00 00 00 00 00	mov64 r1, r10
   17759:	07 01 00 00 80 ff ff ff	add64 r1, -128
   17760:	0f 31 00 00 00 00 00 00	add64 r1, r3
   17761:	07 01 00 00 80 00 00 00	add64 r1, 128
   17762:	7b 1a 00 f0 00 00 00 00	stxdw [r10 - 4096], r1
   17763:	bf a5 00 00 00 00 00 00	mov64 r5, r10
   17764:	bf 21 00 00 00 00 00 00	mov64 r1, r2
   17765:	b7 02 00 00 01 00 00 00	mov64 r2, 1
   17766:	18 03 00 00 8e 6c 02 00 00 00 00 00 00 00 00 00	lddw r3, 158862
   17768:	b7 04 00 00 02 00 00 00	mov64 r4, 2
   17769:	85 10 00 00 4e f7 ff ff	call -2226
   17770:	95 00 00 00 00 00 00 00	exit
   17771:	bf 23 00 00 00 00 00 00	mov64 r3, r2
   17772:	61 32 34 00 00 00 00 00	ldxw r2, [r3 + 52]
   17773:	bf 24 00 00 00 00 00 00	mov64 r4, r2
   17774:	57 04 00 00 10 00 00 00	and64 r4, 16
   17775:	55 04 07 00 00 00 00 00	jne r4, 0, +7 <custom_panic+0x17740>
   17776:	57 02 00 00 20 00 00 00	and64 r2, 32
   17777:	15 02 01 00 00 00 00 00	jeq r2, 0, +1 <custom_panic+0x17720>
   17778:	05 00 1a 00 00 00 00 00	ja +26 <custom_panic+0x177f0>
   17779:	71 11 00 00 00 00 00 00	ldxb r1, [r1 + 0]
   17780:	b7 02 00 00 01 00 00 00	mov64 r2, 1
   17781:	85 10 00 00 9f 00 00 00	call 159
   17782:	05 00 49 00 00 00 00 00	ja +73 <custom_panic+0x17988>
   17783:	b7 02 00 00 00 00 00 00	mov64 r2, 0
   17784:	71 15 00 00 00 00 00 00	ldxb r5, [r1 + 0]
   17785:	b7 01 00 00 0a 00 00 00	mov64 r1, 10
   17786:	b7 04 00 00 10 00 00 00	mov64 r4, 16
   17787:	05 00 0b 00 00 00 00 00	ja +11 <custom_panic+0x177c0>
   17788:	0f 60 00 00 00 00 00 00	add64 r0, r6
   17789:	bf a6 00 00 00 00 00 00	mov64 r6, r10
   17790:	07 06 00 00 80 ff ff ff	add64 r6, -128
   17791:	0f 26 00 00 00 00 00 00	add64 r6, r2
   17792:	73 06 7f 00 00 00 00 00	stxb [r6 + 127], r0
   17793:	07 02 00 00 ff ff ff ff	add64 r2, -1
   17794:	bf 50 00 00 00 00 00 00	mov64 r0, r5
   17795:	57 00 00 00 ff 00 00 00	and64 r0, 255
   17796:	bf 05 00 00 00 00 00 00	mov64 r5, r0
   17797:	77 05 00 00 04 00 00 00	rsh64 r5, 4
   17798:	2d 04 21 00 00 00 00 00	jgt r4, r0, +33 <custom_panic+0x178c8>
   17799:	bf 56 00 00 00 00 00 00	mov64 r6, r5
   17800:	57 06 00 00 0f 00 00 00	and64 r6, 15
   17801:	b7 00 00 00 30 00 00 00	mov64 r0, 48
   17802:	2d 61 f1 ff 00 00 00 00	jgt r1, r6, -15 <custom_panic+0x17768>
   17803:	b7 00 00 00 57 00 00 00	mov64 r0, 87
   17804:	05 00 ef ff 00 00 00 00	ja -17 <custom_panic+0x17768>
   17805:	b7 02 00 00 00 00 00 00	mov64 r2, 0
   17806:	71 15 00 00 00 00 00 00	ldxb r5, [r1 + 0]
   17807:	b7 01 00 00 0a 00 00 00	mov64 r1, 10
   17808:	b7 04 00 00 10 00 00 00	mov64 r4, 16
   17809:	05 00 0b 00 00 00 00 00	ja +11 <custom_panic+0x17870>
   17810:	0f 60 00 00 00 00 00 00	add64 r0, r6
   17811:	bf a6 00 00 00 00 00 00	mov64 r6, r10
   17812:	07 06 00 00 80 ff ff ff	add64 r6, -128
   17813:	0f 26 00 00 00 00 00 00	add64 r6, r2
   17814:	73 06 7f 00 00 00 00 00	stxb [r6 + 127], r0
   17815:	07 02 00 00 ff ff ff ff	add64 r2, -1
   17816:	bf 50 00 00 00 00 00 00	mov64 r0, r5
   17817:	57 00 00 00 ff 00 00 00	and64 r0, 255
   17818:	bf 05 00 00 00 00 00 00	mov64 r5, r0
   17819:	77 05 00 00 04 00 00 00	rsh64 r5, 4
   17820:	2d 04 06 00 00 00 00 00	jgt r4, r0, +6 <custom_panic+0x178a0>
   17821:	bf 56 00 00 00 00 00 00	mov64 r6, r5
   17822:	57 06 00 00 0f 00 00 00	and64 r6, 15
   17823:	b7 00 00 00 30 00 00 00	mov64 r0, 48
   17824:	2d 61 f1 ff 00 00 00 00	jgt r1, r6, -15 <custom_panic+0x17818>
   17825:	b7 00 00 00 37 00 00 00	mov64 r0, 55
   17826:	05 00 ef ff 00 00 00 00	ja -17 <custom_panic+0x17818>
   17827:	bf 21 00 00 00 00 00 00	mov64 r1, r2
   17828:	07 01 00 00 80 00 00 00	add64 r1, 128
   17829:	b7 04 00 00 81 00 00 00	mov64 r4, 129
   17830:	2d 14 0a 00 00 00 00 00	jgt r4, r1, +10 <custom_panic+0x17910>
   17831:	05 00 04 00 00 00 00 00	ja +4 <custom_panic+0x178e8>
   17832:	bf 21 00 00 00 00 00 00	mov64 r1, r2
   17833:	07 01 00 00 80 00 00 00	add64 r1, 128
   17834:	b7 04 00 00 81 00 00 00	mov64 r4, 129
   17835:	2d 14 05 00 00 00 00 00	jgt r4, r1, +5 <custom_panic+0x17910>
   17836:	b7 02 00 00 80 00 00 00	mov64 r2, 128
   17837:	18 03 00 00 d8 89 02 00 00 00 00 00 00 00 00 00	lddw r3, 166360
   17839:	85 10 00 00 84 fa ff ff	call -1404
   17840:	85 10 00 00 ff ff ff ff	call -1
   17841:	bf 21 00 00 00 00 00 00	mov64 r1, r2
   17842:	87 01 00 00 00 00 00 00	neg64 r1
   17843:	7b 1a 08 f0 00 00 00 00	stxdw [r10 - 4088], r1
   17844:	bf a1 00 00 00 00 00 00	mov64 r1, r10
   17845:	07 01 00 00 80 ff ff ff	add64 r1, -128
   17846:	0f 21 00 00 00 00 00 00	add64 r1, r2
   17847:	07 01 00 00 80 00 00 00	add64 r1, 128
   17848:	7b 1a 00 f0 00 00 00 00	stxdw [r10 - 4096], r1
   17849:	bf a5 00 00 00 00 00 00	mov64 r5, r10
   17850:	bf 31 00 00 00 00 00 00	mov64 r1, r3
   17851:	b7 02 00 00 01 00 00 00	mov64 r2, 1
   17852:	18 03 00 00 8e 6c 02 00 00 00 00 00 00 00 00 00	lddw r3, 158862
   17854:	b7 04 00 00 02 00 00 00	mov64 r4, 2
   17855:	85 10 00 00 f8 f6 ff ff	call -2312
   17856:	95 00 00 00 00 00 00 00	exit
   17857:	bf 23 00 00 00 00 00 00	mov64 r3, r2
   17858:	61 32 34 00 00 00 00 00	ldxw r2, [r3 + 52]
   17859:	bf 24 00 00 00 00 00 00	mov64 r4, r2
   17860:	57 04 00 00 10 00 00 00	and64 r4, 16
   17861:	55 04 07 00 00 00 00 00	jne r4, 0, +7 <custom_panic+0x179f0>
   17862:	57 02 00 00 20 00 00 00	and64 r2, 32
   17863:	15 02 01 00 00 00 00 00	jeq r2, 0, +1 <custom_panic+0x179d0>
   17864:	05 00 19 00 00 00 00 00	ja +25 <custom_panic+0x17a98>
   17865:	79 11 00 00 00 00 00 00	ldxdw r1, [r1 + 0]
   17866:	b7 02 00 00 01 00 00 00	mov64 r2, 1
   17867:	85 10 00 00 49 00 00 00	call 73
   17868:	05 00 47 00 00 00 00 00	ja +71 <custom_panic+0x17c28>
   17869:	b7 02 00 00 00 00 00 00	mov64 r2, 0
   17870:	79 10 00 00 00 00 00 00	ldxdw r0, [r1 + 0]
   17871:	b7 01 00 00 0a 00 00 00	mov64 r1, 10
   17872:	b7 04 00 00 10 00 00 00	mov64 r4, 16
   17873:	05 00 09 00 00 00 00 00	ja +9 <custom_panic+0x17a60>
   17874:	0f 60 00 00 00 00 00 00	add64 r0, r6
   17875:	bf a6 00 00 00 00 00 00	mov64 r6, r10
   17876:	07 06 00 00 80 ff ff ff	add64 r6, -128
   17877:	0f 26 00 00 00 00 00 00	add64 r6, r2
   17878:	73 06 7f 00 00 00 00 00	stxb [r6 + 127], r0
   17879:	07 02 00 00 ff ff ff ff	add64 r2, -1
   17880:	bf 50 00 00 00 00 00 00	mov64 r0, r5
   17881:	77 00 00 00 04 00 00 00	rsh64 r0, 4
   17882:	2d 54 21 00 00 00 00 00	jgt r4, r5, +33 <custom_panic+0x17b68>
   17883:	bf 05 00 00 00 00 00 00	mov64 r5, r0
   17884:	bf 56 00 00 00 00 00 00	mov64 r6, r5
   17885:	57 06 00 00 0f 00 00 00	and64 r6, 15
   17886:	b7 00 00 00 30 00 00 00	mov64 r0, 48
   17887:	2d 61 f2 ff 00 00 00 00	jgt r1, r6, -14 <custom_panic+0x17a18>
   17888:	b7 00 00 00 57 00 00 00	mov64 r0, 87
   17889:	05 00 f0 ff 00 00 00 00	ja -16 <custom_panic+0x17a18>
   17890:	b7 02 00 00 00 00 00 00	mov64 r2, 0
   17891:	79 10 00 00 00 00 00 00	ldxdw r0, [r1 + 0]
   17892:	b7 01 00 00 0a 00 00 00	mov64 r1, 10
   17893:	b7 04 00 00 10 00 00 00	mov64 r4, 16
   17894:	05 00 09 00 00 00 00 00	ja +9 <custom_panic+0x17b08>
   17895:	0f 60 00 00 00 00 00 00	add64 r0, r6
   17896:	bf a6 00 00 00 00 00 00	mov64 r6, r10
   17897:	07 06 00 00 80 ff ff ff	add64 r6, -128
   17898:	0f 26 00 00 00 00 00 00	add64 r6, r2
   17899:	73 06 7f 00 00 00 00 00	stxb [r6 + 127], r0
   17900:	07 02 00 00 ff ff ff ff	add64 r2, -1
   17901:	bf 50 00 00 00 00 00 00	mov64 r0, r5
   17902:	77 00 00 00 04 00 00 00	rsh64 r0, 4
   17903:	2d 54 07 00 00 00 00 00	jgt r4, r5, +7 <custom_panic+0x17b40>
   17904:	bf 05 00 00 00 00 00 00	mov64 r5, r0
   17905:	bf 56 00 00 00 00 00 00	mov64 r6, r5
   17906:	57 06 00 00 0f 00 00 00	and64 r6, 15
   17907:	b7 00 00 00 30 00 00 00	mov64 r0, 48
   17908:	2d 61 f2 ff 00 00 00 00	jgt r1, r6, -14 <custom_panic+0x17ac0>
   17909:	b7 00 00 00 37 00 00 00	mov64 r0, 55
   17910:	05 00 f0 ff 00 00 00 00	ja -16 <custom_panic+0x17ac0>
   17911:	bf 21 00 00 00 00 00 00	mov64 r1, r2
   17912:	07 01 00 00 80 00 00 00	add64 r1, 128
   17913:	b7 04 00 00 81 00 00 00	mov64 r4, 129
   17914:	2d 14 0a 00 00 00 00 00	jgt r4, r1, +10 <custom_panic+0x17bb0>
   17915:	05 00 04 00 00 00 00 00	ja +4 <custom_panic+0x17b88>
   17916:	bf 21 00 00 00 00 00 00	mov64 r1, r2
   17917:	07 01 00 00 80 00 00 00	add64 r1, 128
   17918:	b7 04 00 00 81 00 00 00	mov64 r4, 129
   17919:	2d 14 05 00 00 00 00 00	jgt r4, r1, +5 <custom_panic+0x17bb0>
   17920:	b7 02 00 00 80 00 00 00	mov64 r2, 128
   17921:	18 03 00 00 d8 89 02 00 00 00 00 00 00 00 00 00	lddw r3, 166360
   17923:	85 10 00 00 30 fa ff ff	call -1488
   17924:	85 10 00 00 ff ff ff ff	call -1
   17925:	bf 21 00 00 00 00 00 00	mov64 r1, r2
   17926:	87 01 00 00 00 00 00 00	neg64 r1
   17927:	7b 1a 08 f0 00 00 00 00	stxdw [r10 - 4088], r1
   17928:	bf a1 00 00 00 00 00 00	mov64 r1, r10
   17929:	07 01 00 00 80 ff ff ff	add64 r1, -128
   17930:	0f 21 00 00 00 00 00 00	add64 r1, r2
   17931:	07 01 00 00 80 00 00 00	add64 r1, 128
   17932:	7b 1a 00 f0 00 00 00 00	stxdw [r10 - 4096], r1
   17933:	bf a5 00 00 00 00 00 00	mov64 r5, r10
   17934:	bf 31 00 00 00 00 00 00	mov64 r1, r3
   17935:	b7 02 00 00 01 00 00 00	mov64 r2, 1
   17936:	18 03 00 00 8e 6c 02 00 00 00 00 00 00 00 00 00	lddw r3, 158862
   17938:	b7 04 00 00 02 00 00 00	mov64 r4, 2
   17939:	85 10 00 00 a4 f6 ff ff	call -2396
   17940:	95 00 00 00 00 00 00 00	exit
   17941:	b7 04 00 00 27 00 00 00	mov64 r4, 39
   17942:	b7 05 00 00 10 27 00 00	mov64 r5, 10000
   17943:	2d 15 20 00 00 00 00 00	jgt r5, r1, +32 <custom_panic+0x17d48>
   17944:	b7 04 00 00 00 00 00 00	mov64 r4, 0
   17945:	bf 15 00 00 00 00 00 00	mov64 r5, r1
   17946:	37 01 00 00 10 27 00 00	div64 r1, 10000
   17947:	bf 16 00 00 00 00 00 00	mov64 r6, r1
   17948:	27 06 00 00 10 27 00 00	mul64 r6, 10000
   17949:	bf 50 00 00 00 00 00 00	mov64 r0, r5
   17950:	1f 60 00 00 00 00 00 00	sub64 r0, r6
   17951:	bf 06 00 00 00 00 00 00	mov64 r6, r0
   17952:	57 06 00 00 ff ff 00 00	and64 r6, 65535
   17953:	37 06 00 00 64 00 00 00	div64 r6, 100
   17954:	bf 67 00 00 00 00 00 00	mov64 r7, r6
   17955:	27 07 00 00 64 00 00 00	mul64 r7, 100
   17956:	1f 70 00 00 00 00 00 00	sub64 r0, r7
   17957:	bf a7 00 00 00 00 00 00	mov64 r7, r10
   17958:	07 07 00 00 d9 ff ff ff	add64 r7, -39
   17959:	0f 47 00 00 00 00 00 00	add64 r7, r4
   17960:	67 06 00 00 01 00 00 00	lsh64 r6, 1
   17961:	18 08 00 00 90 6c 02 00 00 00 00 00 00 00 00 00	lddw r8, 158864
   17963:	0f 68 00 00 00 00 00 00	add64 r8, r6
   17964:	69 86 00 00 00 00 00 00	ldxh r6, [r8 + 0]
   17965:	6b 67 23 00 00 00 00 00	stxh [r7 + 35], r6
   17966:	67 00 00 00 01 00 00 00	lsh64 r0, 1
   17967:	57 00 00 00 fe ff 00 00	and64 r0, 65534
   17968:	18 06 00 00 90 6c 02 00 00 00 00 00 00 00 00 00	lddw r6, 158864
   17970:	0f 06 00 00 00 00 00 00	add64 r6, r0
   17971:	69 60 00 00 00 00 00 00	ldxh r0, [r6 + 0]
   17972:	6b 07 25 00 00 00 00 00	stxh [r7 + 37], r0
   17973:	07 04 00 00 fc ff ff ff	add64 r4, -4
   17974:	25 05 e2 ff ff e0 f5 05	jgt r5, 99999999, -30 <custom_panic+0x17c50>
   17975:	07 04 00 00 27 00 00 00	add64 r4, 39
   17976:	25 01 0a 00 63 00 00 00	jgt r1, 99, +10 <custom_panic+0x17da0>
   17977:	b7 05 00 00 0a 00 00 00	mov64 r5, 10
   17978:	2d 15 01 00 00 00 00 00	jgt r5, r1, +1 <custom_panic+0x17d68>
   17979:	05 00 1a 00 00 00 00 00	ja +26 <custom_panic+0x17e38>
   17980:	07 04 00 00 ff ff ff ff	add64 r4, -1
   17981:	bf a5 00 00 00 00 00 00	mov64 r5, r10
   17982:	07 05 00 00 d9 ff ff ff	add64 r5, -39
   17983:	0f 45 00 00 00 00 00 00	add64 r5, r4
   17984:	07 01 00 00 30 00 00 00	add64 r1, 48
   17985:	73 15 00 00 00 00 00 00	stxb [r5 + 0], r1
   17986:	05 00 1d 00 00 00 00 00	ja +29 <custom_panic+0x17e88>
   17987:	bf 15 00 00 00 00 00 00	mov64 r5, r1
   17988:	57 05 00 00 ff ff 00 00	and64 r5, 65535
   17989:	37 05 00 00 64 00 00 00	div64 r5, 100
   17990:	bf 50 00 00 00 00 00 00	mov64 r0, r5
   17991:	27 00 00 00 64 00 00 00	mul64 r0, 100
   17992:	1f 01 00 00 00 00 00 00	sub64 r1, r0
   17993:	67 01 00 00 01 00 00 00	lsh64 r1, 1
   17994:	57 01 00 00 fe ff 00 00	and64 r1, 65534
   17995:	18 00 00 00 90 6c 02 00 00 00 00 00 00 00 00 00	lddw r0, 158864
   17997:	0f 10 00 00 00 00 00 00	add64 r0, r1
   17998:	07 04 00 00 fe ff ff ff	add64 r4, -2
   17999:	bf a1 00 00 00 00 00 00	mov64 r1, r10
   18000:	07 01 00 00 d9 ff ff ff	add64 r1, -39
   18001:	0f 41 00 00 00 00 00 00	add64 r1, r4
   18002:	69 00 00 00 00 00 00 00	ldxh r0, [r0 + 0]
   18003:	6b 01 00 00 00 00 00 00	stxh [r1 + 0], r0
   18004:	bf 51 00 00 00 00 00 00	mov64 r1, r5
   18005:	05 00 e3 ff 00 00 00 00	ja -29 <custom_panic+0x17d50>
   18006:	67 01 00 00 01 00 00 00	lsh64 r1, 1
   18007:	18 05 00 00 90 6c 02 00 00 00 00 00 00 00 00 00	lddw r5, 158864
   18009:	0f 15 00 00 00 00 00 00	add64 r5, r1
   18010:	07 04 00 00 fe ff ff ff	add64 r4, -2
   18011:	bf a1 00 00 00 00 00 00	mov64 r1, r10
   18012:	07 01 00 00 d9 ff ff ff	add64 r1, -39
   18013:	0f 41 00 00 00 00 00 00	add64 r1, r4
   18014:	69 55 00 00 00 00 00 00	ldxh r5, [r5 + 0]
   18015:	6b 51 00 00 00 00 00 00	stxh [r1 + 0], r5
   18016:	bf a1 00 00 00 00 00 00	mov64 r1, r10
   18017:	07 01 00 00 d9 ff ff ff	add64 r1, -39
   18018:	0f 41 00 00 00 00 00 00	add64 r1, r4
   18019:	7b 1a 00 f0 00 00 00 00	stxdw [r10 - 4096], r1
   18020:	b7 01 00 00 27 00 00 00	mov64 r1, 39
   18021:	1f 41 00 00 00 00 00 00	sub64 r1, r4
   18022:	7b 1a 08 f0 00 00 00 00	stxdw [r10 - 4088], r1
   18023:	bf a5 00 00 00 00 00 00	mov64 r5, r10
   18024:	bf 31 00 00 00 00 00 00	mov64 r1, r3
   18025:	18 03 00 00 e8 6b 02 00 00 00 00 00 00 00 00 00	lddw r3, 158696
   18027:	b7 04 00 00 00 00 00 00	mov64 r4, 0
   18028:	85 10 00 00 4b f6 ff ff	call -2485
   18029:	95 00 00 00 00 00 00 00	exit
   18030:	bf 23 00 00 00 00 00 00	mov64 r3, r2
   18031:	71 11 00 00 00 00 00 00	ldxb r1, [r1 + 0]
   18032:	b7 02 00 00 01 00 00 00	mov64 r2, 1
   18033:	85 10 00 00 a3 ff ff ff	call -93
   18034:	95 00 00 00 00 00 00 00	exit
   18035:	bf 23 00 00 00 00 00 00	mov64 r3, r2
   18036:	61 12 00 00 00 00 00 00	ldxw r2, [r1 + 0]
   18037:	67 02 00 00 20 00 00 00	lsh64 r2, 32
   18038:	c7 02 00 00 20 00 00 00	arsh64 r2, 32
   18039:	bf 24 00 00 00 00 00 00	mov64 r4, r2
   18040:	c7 04 00 00 3f 00 00 00	arsh64 r4, 63
   18041:	bf 21 00 00 00 00 00 00	mov64 r1, r2
   18042:	af 41 00 00 00 00 00 00	xor64 r1, r4
   18043:	1f 41 00 00 00 00 00 00	sub64 r1, r4
   18044:	a7 02 00 00 ff ff ff ff	xor64 r2, -1
   18045:	77 02 00 00 3f 00 00 00	rsh64 r2, 63
   18046:	85 10 00 00 96 ff ff ff	call -106
   18047:	95 00 00 00 00 00 00 00	exit
   18048:	bf 23 00 00 00 00 00 00	mov64 r3, r2
   18049:	61 11 00 00 00 00 00 00	ldxw r1, [r1 + 0]
   18050:	b7 02 00 00 01 00 00 00	mov64 r2, 1
   18051:	85 10 00 00 91 ff ff ff	call -111
   18052:	95 00 00 00 00 00 00 00	exit
   18053:	bf 23 00 00 00 00 00 00	mov64 r3, r2
   18054:	79 11 00 00 00 00 00 00	ldxdw r1, [r1 + 0]
   18055:	b7 02 00 00 01 00 00 00	mov64 r2, 1
   18056:	85 10 00 00 8c ff ff ff	call -116
   18057:	95 00 00 00 00 00 00 00	exit
   18058:	79 21 20 00 00 00 00 00	ldxdw r1, [r2 + 32]
   18059:	79 22 28 00 00 00 00 00	ldxdw r2, [r2 + 40]
   18060:	79 24 18 00 00 00 00 00	ldxdw r4, [r2 + 24]
   18061:	18 02 00 00 86 75 02 00 00 00 00 00 00 00 00 00	lddw r2, 161158
   18063:	b7 03 00 00 05 00 00 00	mov64 r3, 5
   18064:	8d 00 00 00 04 00 00 00	callx r4
   18065:	95 00 00 00 00 00 00 00	exit
   18066:	79 11 00 00 00 00 00 00	ldxdw r1, [r1 + 0]
   18067:	85 10 00 00 d7 fe ff ff	call -297
   18068:	95 00 00 00 00 00 00 00	exit
   18069:	bf 26 00 00 00 00 00 00	mov64 r6, r2
   18070:	79 11 00 00 00 00 00 00	ldxdw r1, [r1 + 0]
   18071:	71 12 00 00 00 00 00 00	ldxb r2, [r1 + 0]
   18072:	55 02 07 00 00 00 00 00	jne r2, 0, +7 <custom_panic+0x18088>
   18073:	79 61 20 00 00 00 00 00	ldxdw r1, [r6 + 32]
   18074:	79 62 28 00 00 00 00 00	ldxdw r2, [r6 + 40]
   18075:	79 24 18 00 00 00 00 00	ldxdw r4, [r2 + 24]
   18076:	18 02 00 00 cd 54 02 00 00 00 00 00 00 00 00 00	lddw r2, 152781
   18078:	b7 03 00 00 04 00 00 00	mov64 r3, 4
   18079:	05 00 1d 00 00 00 00 00	ja +29 <custom_panic+0x18170>
   18080:	07 01 00 00 01 00 00 00	add64 r1, 1
   18081:	7b 1a e0 ff 00 00 00 00	stxdw [r10 - 32], r1
   18082:	79 61 28 00 00 00 00 00	ldxdw r1, [r6 + 40]
   18083:	79 14 18 00 00 00 00 00	ldxdw r4, [r1 + 24]
   18084:	79 61 20 00 00 00 00 00	ldxdw r1, [r6 + 32]
   18085:	18 02 00 00 b9 54 02 00 00 00 00 00 00 00 00 00	lddw r2, 152761
   18087:	b7 03 00 00 04 00 00 00	mov64 r3, 4
   18088:	8d 00 00 00 04 00 00 00	callx r4
   18089:	73 0a f8 ff 00 00 00 00	stxb [r10 - 8], r0
   18090:	7b 6a f0 ff 00 00 00 00	stxdw [r10 - 16], r6
   18091:	b7 01 00 00 00 00 00 00	mov64 r1, 0
   18092:	73 1a f9 ff 00 00 00 00	stxb [r10 - 7], r1
   18093:	7b 1a e8 ff 00 00 00 00	stxdw [r10 - 24], r1
   18094:	bf a1 00 00 00 00 00 00	mov64 r1, r10
   18095:	07 01 00 00 e8 ff ff ff	add64 r1, -24
   18096:	bf a2 00 00 00 00 00 00	mov64 r2, r10
   18097:	07 02 00 00 e0 ff ff ff	add64 r2, -32
   18098:	18 03 00 00 b8 89 02 00 00 00 00 00 00 00 00 00	lddw r3, 166328
   18100:	85 10 00 00 40 f4 ff ff	call -3008
   18101:	71 a2 f8 ff 00 00 00 00	ldxb r2, [r10 - 8]
   18102:	79 a1 e8 ff 00 00 00 00	ldxdw r1, [r10 - 24]
   18103:	55 01 08 00 00 00 00 00	jne r1, 0, +8 <custom_panic+0x18188>
   18104:	bf 21 00 00 00 00 00 00	mov64 r1, r2
   18105:	b7 06 00 00 01 00 00 00	mov64 r6, 1
   18106:	55 01 1d 00 00 00 00 00	jne r1, 0, +29 <custom_panic+0x18248>
   18107:	b7 06 00 00 00 00 00 00	mov64 r6, 0
   18108:	05 00 1b 00 00 00 00 00	ja +27 <custom_panic+0x18248>
   18109:	8d 00 00 00 04 00 00 00	callx r4
   18110:	bf 06 00 00 00 00 00 00	mov64 r6, r0
   18111:	05 00 18 00 00 00 00 00	ja +24 <custom_panic+0x18248>
   18112:	b7 06 00 00 01 00 00 00	mov64 r6, 1
   18113:	55 02 16 00 00 00 00 00	jne r2, 0, +22 <custom_panic+0x18248>
   18114:	79 a7 f0 ff 00 00 00 00	ldxdw r7, [r10 - 16]
   18115:	55 01 05 00 01 00 00 00	jne r1, 1, +5 <custom_panic+0x181d0>
   18116:	71 a1 f9 ff 00 00 00 00	ldxb r1, [r10 - 7]
   18117:	15 01 03 00 00 00 00 00	jeq r1, 0, +3 <custom_panic+0x181d0>
   18118:	61 71 34 00 00 00 00 00	ldxw r1, [r7 + 52]
   18119:	57 01 00 00 04 00 00 00	and64 r1, 4
   18120:	15 01 07 00 00 00 00 00	jeq r1, 0, +7 <custom_panic+0x18208>
   18121:	79 71 20 00 00 00 00 00	ldxdw r1, [r7 + 32]
   18122:	79 72 28 00 00 00 00 00	ldxdw r2, [r7 + 40]
   18123:	79 24 18 00 00 00 00 00	ldxdw r4, [r2 + 24]
   18124:	18 02 00 00 13 6c 02 00 00 00 00 00 00 00 00 00	lddw r2, 158739
   18126:	b7 03 00 00 01 00 00 00	mov64 r3, 1
   18127:	05 00 ed ff 00 00 00 00	ja -19 <custom_panic+0x18170>
   18128:	79 71 20 00 00 00 00 00	ldxdw r1, [r7 + 32]
   18129:	79 72 28 00 00 00 00 00	ldxdw r2, [r7 + 40]
   18130:	79 24 18 00 00 00 00 00	ldxdw r4, [r2 + 24]
   18131:	18 02 00 00 72 6c 02 00 00 00 00 00 00 00 00 00	lddw r2, 158834
   18133:	b7 03 00 00 01 00 00 00	mov64 r3, 1
   18134:	8d 00 00 00 04 00 00 00	callx r4
   18135:	15 00 f1 ff 00 00 00 00	jeq r0, 0, -15 <custom_panic+0x181d0>
   18136:	57 06 00 00 01 00 00 00	and64 r6, 1
   18137:	bf 60 00 00 00 00 00 00	mov64 r0, r6
   18138:	95 00 00 00 00 00 00 00	exit
   18139:	79 13 00 00 00 00 00 00	ldxdw r3, [r1 + 0]
   18140:	79 11 08 00 00 00 00 00	ldxdw r1, [r1 + 8]
   18141:	79 14 18 00 00 00 00 00	ldxdw r4, [r1 + 24]
   18142:	bf 31 00 00 00 00 00 00	mov64 r1, r3
   18143:	8d 00 00 00 04 00 00 00	callx r4
   18144:	95 00 00 00 00 00 00 00	exit
   18145:	bf 24 00 00 00 00 00 00	mov64 r4, r2
   18146:	79 11 00 00 00 00 00 00	ldxdw r1, [r1 + 0]
   18147:	79 13 08 00 00 00 00 00	ldxdw r3, [r1 + 8]
   18148:	79 12 00 00 00 00 00 00	ldxdw r2, [r1 + 0]
   18149:	bf 41 00 00 00 00 00 00	mov64 r1, r4
   18150:	85 10 00 00 ae f6 ff ff	call -2386
   18151:	95 00 00 00 00 00 00 00	exit
   18152:	bf 24 00 00 00 00 00 00	mov64 r4, r2
   18153:	79 13 08 00 00 00 00 00	ldxdw r3, [r1 + 8]
   18154:	79 12 00 00 00 00 00 00	ldxdw r2, [r1 + 0]
   18155:	bf 41 00 00 00 00 00 00	mov64 r1, r4
   18156:	85 10 00 00 a8 f6 ff ff	call -2392
   18157:	95 00 00 00 00 00 00 00	exit
   18158:	79 24 28 00 00 00 00 00	ldxdw r4, [r2 + 40]
   18159:	79 22 20 00 00 00 00 00	ldxdw r2, [r2 + 32]
   18160:	79 13 00 00 00 00 00 00	ldxdw r3, [r1 + 0]
   18161:	bf 21 00 00 00 00 00 00	mov64 r1, r2
   18162:	bf 42 00 00 00 00 00 00	mov64 r2, r4
   18163:	85 10 00 00 3b f5 ff ff	call -2757
   18164:	95 00 00 00 00 00 00 00	exit
   18165:	bf 27 00 00 00 00 00 00	mov64 r7, r2
   18166:	bf 16 00 00 00 00 00 00	mov64 r6, r1
   18167:	07 01 00 00 08 00 00 00	add64 r1, 8
   18168:	7b 1a e8 ff 00 00 00 00	stxdw [r10 - 24], r1
   18169:	79 71 28 00 00 00 00 00	ldxdw r1, [r7 + 40]
   18170:	79 14 18 00 00 00 00 00	ldxdw r4, [r1 + 24]
   18171:	79 71 20 00 00 00 00 00	ldxdw r1, [r7 + 32]
   18172:	18 02 00 00 8b 75 02 00 00 00 00 00 00 00 00 00	lddw r2, 161163
   18174:	b7 03 00 00 09 00 00 00	mov64 r3, 9
   18175:	8d 00 00 00 04 00 00 00	callx r4
   18176:	b7 01 00 00 00 00 00 00	mov64 r1, 0
   18177:	73 1a f9 ff 00 00 00 00	stxb [r10 - 7], r1
   18178:	73 0a f8 ff 00 00 00 00	stxb [r10 - 8], r0
   18179:	7b 7a f0 ff 00 00 00 00	stxdw [r10 - 16], r7
   18180:	bf a7 00 00 00 00 00 00	mov64 r7, r10
   18181:	07 07 00 00 f0 ff ff ff	add64 r7, -16
   18182:	bf 71 00 00 00 00 00 00	mov64 r1, r7
   18183:	18 02 00 00 94 75 02 00 00 00 00 00 00 00 00 00	lddw r2, 161172
   18185:	b7 03 00 00 0b 00 00 00	mov64 r3, 11
   18186:	bf 64 00 00 00 00 00 00	mov64 r4, r6
   18187:	18 05 00 00 d8 8c 02 00 00 00 00 00 00 00 00 00	lddw r5, 167128
   18189:	85 10 00 00 4b f3 ff ff	call -3253
   18190:	bf a4 00 00 00 00 00 00	mov64 r4, r10
   18191:	07 04 00 00 e8 ff ff ff	add64 r4, -24
   18192:	bf 71 00 00 00 00 00 00	mov64 r1, r7
   18193:	18 02 00 00 9f 75 02 00 00 00 00 00 00 00 00 00	lddw r2, 161183
   18195:	b7 03 00 00 09 00 00 00	mov64 r3, 9
   18196:	18 05 00 00 f8 8c 02 00 00 00 00 00 00 00 00 00	lddw r5, 167160
   18198:	85 10 00 00 42 f3 ff ff	call -3262
   18199:	71 a1 f8 ff 00 00 00 00	ldxb r1, [r10 - 8]
   18200:	71 a2 f9 ff 00 00 00 00	ldxb r2, [r10 - 7]
   18201:	55 02 04 00 00 00 00 00	jne r2, 0, +4 <custom_panic+0x18478>
   18202:	b7 00 00 00 01 00 00 00	mov64 r0, 1
   18203:	55 01 16 00 00 00 00 00	jne r1, 0, +22 <custom_panic+0x18518>
   18204:	b7 00 00 00 00 00 00 00	mov64 r0, 0
   18205:	05 00 14 00 00 00 00 00	ja +20 <custom_panic+0x18518>
   18206:	b7 00 00 00 01 00 00 00	mov64 r0, 1
   18207:	55 01 12 00 00 00 00 00	jne r1, 0, +18 <custom_panic+0x18518>
   18208:	79 a2 f0 ff 00 00 00 00	ldxdw r2, [r10 - 16]
   18209:	61 21 34 00 00 00 00 00	ldxw r1, [r2 + 52]
   18210:	57 01 00 00 04 00 00 00	and64 r1, 4
   18211:	55 01 07 00 00 00 00 00	jne r1, 0, +7 <custom_panic+0x184e0>
   18212:	79 21 20 00 00 00 00 00	ldxdw r1, [r2 + 32]
   18213:	79 22 28 00 00 00 00 00	ldxdw r2, [r2 + 40]
   18214:	79 24 18 00 00 00 00 00	ldxdw r4, [r2 + 24]
   18215:	18 02 00 00 6d 6c 02 00 00 00 00 00 00 00 00 00	lddw r2, 158829
   18217:	b7 03 00 00 02 00 00 00	mov64 r3, 2
   18218:	05 00 06 00 00 00 00 00	ja +6 <custom_panic+0x18510>
   18219:	79 21 20 00 00 00 00 00	ldxdw r1, [r2 + 32]
   18220:	79 22 28 00 00 00 00 00	ldxdw r2, [r2 + 40]
   18221:	79 24 18 00 00 00 00 00	ldxdw r4, [r2 + 24]
   18222:	18 02 00 00 6c 6c 02 00 00 00 00 00 00 00 00 00	lddw r2, 158828
   18224:	b7 03 00 00 01 00 00 00	mov64 r3, 1
   18225:	8d 00 00 00 04 00 00 00	callx r4
   18226:	57 00 00 00 01 00 00 00	and64 r0, 1
   18227:	95 00 00 00 00 00 00 00	exit
   18228:	b7 02 00 00 00 00 00 00	mov64 r2, 0
   18229:	b7 03 00 00 21 00 00 00	mov64 r3, 33
   18230:	bf 14 00 00 00 00 00 00	mov64 r4, r1
   18231:	67 04 00 00 0b 00 00 00	lsh64 r4, 11
   18232:	67 04 00 00 20 00 00 00	lsh64 r4, 32
   18233:	77 04 00 00 20 00 00 00	rsh64 r4, 32
   18234:	b7 05 00 00 21 00 00 00	mov64 r5, 33
   18235:	05 00 0a 00 00 00 00 00	ja +10 <custom_panic+0x185b8>
   18236:	15 06 05 00 01 00 00 00	jeq r6, 1, +5 <custom_panic+0x18598>
   18237:	57 06 00 00 ff 00 00 00	and64 r6, 255
   18238:	55 06 19 00 ff 00 00 00	jne r6, 255, +25 <custom_panic+0x18648>
   18239:	bf 32 00 00 00 00 00 00	mov64 r2, r3
   18240:	07 02 00 00 01 00 00 00	add64 r2, 1
   18241:	bf 53 00 00 00 00 00 00	mov64 r3, r5
   18242:	bf 35 00 00 00 00 00 00	mov64 r5, r3
   18243:	1f 23 00 00 00 00 00 00	sub64 r3, r2
   18244:	2d 25 01 00 00 00 00 00	jgt r5, r2, +1 <custom_panic+0x185b8>
   18245:	05 00 14 00 00 00 00 00	ja +20 <custom_panic+0x18658>
   18246:	77 03 00 00 01 00 00 00	rsh64 r3, 1
   18247:	0f 23 00 00 00 00 00 00	add64 r3, r2
   18248:	bf 30 00 00 00 00 00 00	mov64 r0, r3
   18249:	67 00 00 00 02 00 00 00	lsh64 r0, 2
   18250:	18 06 00 00 a8 75 02 00 00 00 00 00 00 00 00 00	lddw r6, 161192
   18252:	0f 06 00 00 00 00 00 00	add64 r6, r0
   18253:	61 60 00 00 00 00 00 00	ldxw r0, [r6 + 0]
   18254:	67 00 00 00 0b 00 00 00	lsh64 r0, 11
   18255:	67 00 00 00 20 00 00 00	lsh64 r0, 32
   18256:	77 00 00 00 20 00 00 00	rsh64 r0, 32
   18257:	b7 07 00 00 01 00 00 00	mov64 r7, 1
   18258:	5d 40 01 00 00 00 00 00	jne r0, r4, +1 <custom_panic+0x18628>
   18259:	b7 07 00 00 00 00 00 00	mov64 r7, 0
   18260:	b7 06 00 00 ff ff ff ff	mov64 r6, -1
   18261:	2d 04 e6 ff 00 00 00 00	jgt r4, r0, -26 <custom_panic+0x18568>
   18262:	bf 76 00 00 00 00 00 00	mov64 r6, r7
   18263:	05 00 e4 ff 00 00 00 00	ja -28 <custom_panic+0x18568>
   18264:	07 03 00 00 01 00 00 00	add64 r3, 1
   18265:	bf 32 00 00 00 00 00 00	mov64 r2, r3
   18266:	25 02 39 00 20 00 00 00	jgt r2, 32, +57 <custom_panic+0x18828>
   18267:	bf 27 00 00 00 00 00 00	mov64 r7, r2
   18268:	67 07 00 00 02 00 00 00	lsh64 r7, 2
   18269:	18 04 00 00 a8 75 02 00 00 00 00 00 00 00 00 00	lddw r4, 161192
   18271:	18 05 00 00 a8 75 02 00 00 00 00 00 00 00 00 00	lddw r5, 161192
   18273:	0f 75 00 00 00 00 00 00	add64 r5, r7
   18274:	b7 03 00 00 d7 02 00 00	mov64 r3, 727
   18275:	b7 06 00 00 1f 00 00 00	mov64 r6, 31
   18276:	61 50 00 00 00 00 00 00	ldxw r0, [r5 + 0]
   18277:	77 00 00 00 15 00 00 00	rsh64 r0, 21
   18278:	15 02 07 00 20 00 00 00	jeq r2, 32, +7 <custom_panic+0x186f8>
   18279:	0f 47 00 00 00 00 00 00	add64 r7, r4
   18280:	b7 05 00 00 00 00 00 00	mov64 r5, 0
   18281:	bf 26 00 00 00 00 00 00	mov64 r6, r2
   18282:	07 06 00 00 ff ff ff ff	add64 r6, -1
   18283:	61 73 04 00 00 00 00 00	ldxw r3, [r7 + 4]
   18284:	77 03 00 00 15 00 00 00	rsh64 r3, 21
   18285:	15 02 04 00 00 00 00 00	jeq r2, 0, +4 <custom_panic+0x18718>
   18286:	67 06 00 00 02 00 00 00	lsh64 r6, 2
   18287:	0f 64 00 00 00 00 00 00	add64 r4, r6
   18288:	61 45 00 00 00 00 00 00	ldxw r5, [r4 + 0]
   18289:	57 05 00 00 ff ff 1f 00	and64 r5, 2097151
   18290:	bf 02 00 00 00 00 00 00	mov64 r2, r0
   18291:	a7 02 00 00 ff ff ff ff	xor64 r2, -1
   18292:	0f 23 00 00 00 00 00 00	add64 r3, r2
   18293:	15 03 16 00 00 00 00 00	jeq r3, 0, +22 <custom_panic+0x187e8>
   18294:	1f 51 00 00 00 00 00 00	sub64 r1, r5
   18295:	18 05 00 00 2c 76 02 00 00 00 00 00 00 00 00 00	lddw r5, 161324
   18297:	0f 05 00 00 00 00 00 00	add64 r5, r0
   18298:	b7 04 00 00 00 00 00 00	mov64 r4, 0
   18299:	67 01 00 00 20 00 00 00	lsh64 r1, 32
   18300:	77 01 00 00 20 00 00 00	rsh64 r1, 32
   18301:	b7 06 00 00 00 00 00 00	mov64 r6, 0
   18302:	bf 02 00 00 00 00 00 00	mov64 r2, r0
   18303:	0f 42 00 00 00 00 00 00	add64 r2, r4
   18304:	25 02 0d 00 d6 02 00 00	jgt r2, 726, +13 <custom_panic+0x187f8>
   18305:	bf 52 00 00 00 00 00 00	mov64 r2, r5
   18306:	0f 42 00 00 00 00 00 00	add64 r2, r4
   18307:	71 22 00 00 00 00 00 00	ldxb r2, [r2 + 0]
   18308:	0f 26 00 00 00 00 00 00	add64 r6, r2
   18309:	bf 62 00 00 00 00 00 00	mov64 r2, r6
   18310:	67 02 00 00 20 00 00 00	lsh64 r2, 32
   18311:	77 02 00 00 20 00 00 00	rsh64 r2, 32
   18312:	2d 12 02 00 00 00 00 00	jgt r2, r1, +2 <custom_panic+0x187e0>
   18313:	07 04 00 00 01 00 00 00	add64 r4, 1
   18314:	2d 43 f3 ff 00 00 00 00	jgt r3, r4, -13 <custom_panic+0x18778>
   18315:	0f 40 00 00 00 00 00 00	add64 r0, r4
   18316:	57 00 00 00 01 00 00 00	and64 r0, 1
   18317:	95 00 00 00 00 00 00 00	exit
   18318:	bf 21 00 00 00 00 00 00	mov64 r1, r2
   18319:	b7 02 00 00 d7 02 00 00	mov64 r2, 727
   18320:	18 03 00 00 90 8c 02 00 00 00 00 00 00 00 00 00	lddw r3, 167056
   18322:	85 10 00 00 e6 f1 ff ff	call -3610
   18323:	85 10 00 00 ff ff ff ff	call -1
   18324:	bf 21 00 00 00 00 00 00	mov64 r1, r2
   18325:	b7 02 00 00 21 00 00 00	mov64 r2, 33
   18326:	18 03 00 00 78 8c 02 00 00 00 00 00 00 00 00 00	lddw r3, 167032
   18328:	85 10 00 00 e0 f1 ff ff	call -3616
   18329:	85 10 00 00 ff ff ff ff	call -1
   18330:	bf 16 00 00 00 00 00 00	mov64 r6, r1
   18331:	bf 34 00 00 00 00 00 00	mov64 r4, r3
   18332:	77 04 00 00 03 00 00 00	rsh64 r4, 3
   18333:	bf 41 00 00 00 00 00 00	mov64 r1, r4
   18334:	27 01 00 00 f9 ff ff ff	mul64 r1, -7
   18335:	0f 31 00 00 00 00 00 00	add64 r1, r3
   18336:	25 01 18 00 0f 00 00 00	jgt r1, 15, +24 <custom_panic+0x18950>
   18337:	b7 01 00 00 00 00 00 00	mov64 r1, 0
   18338:	b7 05 00 00 08 00 00 00	mov64 r5, 8
   18339:	2d 35 0a 00 00 00 00 00	jgt r5, r3, +10 <custom_panic+0x188f8>
   18340:	b7 05 00 00 00 00 00 00	mov64 r5, 0
   18341:	bf 60 00 00 00 00 00 00	mov64 r0, r6
   18342:	0f 10 00 00 00 00 00 00	add64 r0, r1
   18343:	bf 27 00 00 00 00 00 00	mov64 r7, r2
   18344:	0f 17 00 00 00 00 00 00	add64 r7, r1
   18345:	79 77 00 00 00 00 00 00	ldxdw r7, [r7 + 0]
   18346:	7b 70 00 00 00 00 00 00	stxdw [r0 + 0], r7
   18347:	07 01 00 00 08 00 00 00	add64 r1, 8
   18348:	07 05 00 00 01 00 00 00	add64 r5, 1
   18349:	2d 54 f7 ff 00 00 00 00	jgt r4, r5, -9 <custom_panic+0x188b0>
   18350:	7d 31 08 00 00 00 00 00	jsge r1, r3, +8 <custom_panic+0x18940>
   18351:	bf 64 00 00 00 00 00 00	mov64 r4, r6
   18352:	0f 14 00 00 00 00 00 00	add64 r4, r1
   18353:	bf 25 00 00 00 00 00 00	mov64 r5, r2
   18354:	0f 15 00 00 00 00 00 00	add64 r5, r1
   18355:	71 55 00 00 00 00 00 00	ldxb r5, [r5 + 0]
   18356:	73 54 00 00 00 00 00 00	stxb [r4 + 0], r5
   18357:	07 01 00 00 01 00 00 00	add64 r1, 1
   18358:	6d 13 f8 ff 00 00 00 00	jsgt r3, r1, -8 <custom_panic+0x18900>
   18359:	bf 60 00 00 00 00 00 00	mov64 r0, r6
   18360:	95 00 00 00 00 00 00 00	exit
   18361:	bf 61 00 00 00 00 00 00	mov64 r1, r6
   18362:	85 10 00 00 ff ff ff ff	call -1
   18363:	05 00 fb ff 00 00 00 00	ja -5 <custom_panic+0x18940>
   18364:	bf 16 00 00 00 00 00 00	mov64 r6, r1
   18365:	bf 31 00 00 00 00 00 00	mov64 r1, r3
   18366:	77 01 00 00 03 00 00 00	rsh64 r1, 3
   18367:	bf 14 00 00 00 00 00 00	mov64 r4, r1
   18368:	27 04 00 00 f9 ff ff ff	mul64 r4, -7
   18369:	0f 34 00 00 00 00 00 00	add64 r4, r3
   18370:	25 04 22 00 0f 00 00 00	jgt r4, 15, +34 <custom_panic+0x18ab0>
   18371:	3d 62 24 00 00 00 00 00	jge r2, r6, +36 <custom_panic+0x18ac8>
   18372:	bf 34 00 00 00 00 00 00	mov64 r4, r3
   18373:	57 04 00 00 f8 ff ff ff	and64 r4, -8
   18374:	7d 34 0d 00 00 00 00 00	jsge r4, r3, +13 <custom_panic+0x18a28>
   18375:	bf 25 00 00 00 00 00 00	mov64 r5, r2
   18376:	07 05 00 00 ff ff ff ff	add64 r5, -1
   18377:	bf 60 00 00 00 00 00 00	mov64 r0, r6
   18378:	07 00 00 00 ff ff ff ff	add64 r0, -1
   18379:	bf 37 00 00 00 00 00 00	mov64 r7, r3
   18380:	bf 08 00 00 00 00 00 00	mov64 r8, r0
   18381:	0f 78 00 00 00 00 00 00	add64 r8, r7
   18382:	bf 59 00 00 00 00 00 00	mov64 r9, r5
   18383:	0f 79 00 00 00 00 00 00	add64 r9, r7
   18384:	71 99 00 00 00 00 00 00	ldxb r9, [r9 + 0]
   18385:	73 98 00 00 00 00 00 00	stxb [r8 + 0], r9
   18386:	07 07 00 00 ff ff ff ff	add64 r7, -1
   18387:	6d 47 f8 ff 00 00 00 00	jsgt r7, r4, -8 <custom_panic+0x189e8>
   18388:	b7 04 00 00 08 00 00 00	mov64 r4, 8
   18389:	2d 34 0d 00 00 00 00 00	jgt r4, r3, +13 <custom_panic+0x18aa0>
   18390:	bf 14 00 00 00 00 00 00	mov64 r4, r1
   18391:	67 04 00 00 03 00 00 00	lsh64 r4, 3
   18392:	07 04 00 00 f8 ff ff ff	add64 r4, -8
   18393:	0f 42 00 00 00 00 00 00	add64 r2, r4
   18394:	bf 63 00 00 00 00 00 00	mov64 r3, r6
   18395:	0f 43 00 00 00 00 00 00	add64 r3, r4
   18396:	07 01 00 00 01 00 00 00	add64 r1, 1
   18397:	79 24 00 00 00 00 00 00	ldxdw r4, [r2 + 0]
   18398:	7b 43 00 00 00 00 00 00	stxdw [r3 + 0], r4
   18399:	07 02 00 00 f8 ff ff ff	add64 r2, -8
   18400:	07 03 00 00 f8 ff ff ff	add64 r3, -8
   18401:	07 01 00 00 ff ff ff ff	add64 r1, -1
   18402:	65 01 fa ff 01 00 00 00	jsgt r1, 1, -6 <custom_panic+0x18a70>
   18403:	bf 60 00 00 00 00 00 00	mov64 r0, r6
   18404:	95 00 00 00 00 00 00 00	exit
   18405:	bf 61 00 00 00 00 00 00	mov64 r1, r6
   18406:	85 10 00 00 ff ff ff ff	call -1
   18407:	05 00 fb ff 00 00 00 00	ja -5 <custom_panic+0x18aa0>
   18408:	b7 04 00 00 00 00 00 00	mov64 r4, 0
   18409:	b7 05 00 00 08 00 00 00	mov64 r5, 8
   18410:	2d 35 0a 00 00 00 00 00	jgt r5, r3, +10 <custom_panic+0x18b30>
   18411:	b7 05 00 00 00 00 00 00	mov64 r5, 0
   18412:	bf 60 00 00 00 00 00 00	mov64 r0, r6
   18413:	0f 40 00 00 00 00 00 00	add64 r0, r4
   18414:	bf 27 00 00 00 00 00 00	mov64 r7, r2
   18415:	0f 47 00 00 00 00 00 00	add64 r7, r4
   18416:	79 77 00 00 00 00 00 00	ldxdw r7, [r7 + 0]
   18417:	7b 70 00 00 00 00 00 00	stxdw [r0 + 0], r7
   18418:	07 04 00 00 08 00 00 00	add64 r4, 8
   18419:	07 05 00 00 01 00 00 00	add64 r5, 1
   18420:	2d 51 f7 ff 00 00 00 00	jgt r1, r5, -9 <custom_panic+0x18ae8>
   18421:	7d 34 ed ff 00 00 00 00	jsge r4, r3, -19 <custom_panic+0x18aa0>
   18422:	bf 61 00 00 00 00 00 00	mov64 r1, r6
   18423:	0f 41 00 00 00 00 00 00	add64 r1, r4
   18424:	bf 25 00 00 00 00 00 00	mov64 r5, r2
   18425:	0f 45 00 00 00 00 00 00	add64 r5, r4
   18426:	71 55 00 00 00 00 00 00	ldxb r5, [r5 + 0]
   18427:	73 51 00 00 00 00 00 00	stxb [r1 + 0], r5
   18428:	07 04 00 00 01 00 00 00	add64 r4, 1
   18429:	6d 43 f8 ff 00 00 00 00	jsgt r3, r4, -8 <custom_panic+0x18b38>
   18430:	05 00 e4 ff 00 00 00 00	ja -28 <custom_panic+0x18aa0>
   18431:	bf 16 00 00 00 00 00 00	mov64 r6, r1
   18432:	bf 34 00 00 00 00 00 00	mov64 r4, r3
   18433:	77 04 00 00 03 00 00 00	rsh64 r4, 3
   18434:	bf 41 00 00 00 00 00 00	mov64 r1, r4
   18435:	27 01 00 00 f9 ff ff ff	mul64 r1, -7
   18436:	0f 31 00 00 00 00 00 00	add64 r1, r3
   18437:	25 01 17 00 0f 00 00 00	jgt r1, 15, +23 <custom_panic+0x18c70>
   18438:	b7 01 00 00 00 00 00 00	mov64 r1, 0
   18439:	b7 05 00 00 08 00 00 00	mov64 r5, 8
   18440:	2d 35 0d 00 00 00 00 00	jgt r5, r3, +13 <custom_panic+0x18c38>
   18441:	bf 25 00 00 00 00 00 00	mov64 r5, r2
   18442:	57 05 00 00 ff 00 00 00	and64 r5, 255
   18443:	18 01 00 00 01 01 01 01 00 00 00 00 01 01 01 01	lddw r1, 72340172838076673
   18445:	2f 15 00 00 00 00 00 00	mul64 r5, r1
   18446:	b7 01 00 00 00 00 00 00	mov64 r1, 0
   18447:	b7 00 00 00 00 00 00 00	mov64 r0, 0
   18448:	bf 67 00 00 00 00 00 00	mov64 r7, r6
   18449:	0f 17 00 00 00 00 00 00	add64 r7, r1
   18450:	7b 57 00 00 00 00 00 00	stxdw [r7 + 0], r5
   18451:	07 01 00 00 08 00 00 00	add64 r1, 8
   18452:	07 00 00 00 01 00 00 00	add64 r0, 1
   18453:	2d 04 fa ff 00 00 00 00	jgt r4, r0, -6 <custom_panic+0x18c08>
   18454:	7d 31 09 00 00 00 00 00	jsge r1, r3, +9 <custom_panic+0x18c88>
   18455:	bf 64 00 00 00 00 00 00	mov64 r4, r6
   18456:	0f 14 00 00 00 00 00 00	add64 r4, r1
   18457:	73 24 00 00 00 00 00 00	stxb [r4 + 0], r2
   18458:	07 01 00 00 01 00 00 00	add64 r1, 1
   18459:	6d 13 fb ff 00 00 00 00	jsgt r3, r1, -5 <custom_panic+0x18c40>
   18460:	05 00 03 00 00 00 00 00	ja +3 <custom_panic+0x18c88>
   18461:	57 02 00 00 ff 00 00 00	and64 r2, 255
   18462:	bf 61 00 00 00 00 00 00	mov64 r1, r6
   18463:	85 10 00 00 ff ff ff ff	call -1
   18464:	bf 60 00 00 00 00 00 00	mov64 r0, r6
   18465:	95 00 00 00 00 00 00 00	exit
   18466:	bf 35 00 00 00 00 00 00	mov64 r5, r3
   18467:	77 05 00 00 03 00 00 00	rsh64 r5, 3
   18468:	bf 54 00 00 00 00 00 00	mov64 r4, r5
   18469:	27 04 00 00 f9 ff ff ff	mul64 r4, -7
   18470:	0f 34 00 00 00 00 00 00	add64 r4, r3
   18471:	25 04 1a 00 0f 00 00 00	jgt r4, 15, +26 <custom_panic+0x18d98>
   18472:	b7 00 00 00 00 00 00 00	mov64 r0, 0
   18473:	b7 06 00 00 08 00 00 00	mov64 r6, 8
   18474:	b7 04 00 00 00 00 00 00	mov64 r4, 0
   18475:	2d 36 0a 00 00 00 00 00	jgt r6, r3, +10 <custom_panic+0x18d38>
   18476:	bf 16 00 00 00 00 00 00	mov64 r6, r1
   18477:	bf 27 00 00 00 00 00 00	mov64 r7, r2
   18478:	79 78 00 00 00 00 00 00	ldxdw r8, [r7 + 0]
   18479:	79 69 00 00 00 00 00 00	ldxdw r9, [r6 + 0]
   18480:	5d 89 04 00 00 00 00 00	jne r9, r8, +4 <custom_panic+0x18d30>
   18481:	07 06 00 00 08 00 00 00	add64 r6, 8
   18482:	07 07 00 00 08 00 00 00	add64 r7, 8
   18483:	07 04 00 00 01 00 00 00	add64 r4, 1
   18484:	2d 45 f9 ff 00 00 00 00	jgt r5, r4, -7 <custom_panic+0x18cf8>
   18485:	67 04 00 00 03 00 00 00	lsh64 r4, 3
   18486:	7d 34 14 00 00 00 00 00	jsge r4, r3, +20 <custom_panic+0x18de0>
   18487:	bf 16 00 00 00 00 00 00	mov64 r6, r1
   18488:	0f 46 00 00 00 00 00 00	add64 r6, r4
   18489:	bf 25 00 00 00 00 00 00	mov64 r5, r2
   18490:	0f 45 00 00 00 00 00 00	add64 r5, r4
   18491:	71 55 00 00 00 00 00 00	ldxb r5, [r5 + 0]
   18492:	71 66 00 00 00 00 00 00	ldxb r6, [r6 + 0]
   18493:	1d 56 01 00 00 00 00 00	jeq r6, r5, +1 <custom_panic+0x18d80>
   18494:	05 00 0a 00 00 00 00 00	ja +10 <custom_panic+0x18dd0>
   18495:	07 04 00 00 01 00 00 00	add64 r4, 1
   18496:	6d 43 f6 ff 00 00 00 00	jsgt r3, r4, -10 <custom_panic+0x18d40>
   18497:	05 00 09 00 00 00 00 00	ja +9 <custom_panic+0x18de0>
   18498:	b7 04 00 00 00 00 00 00	mov64 r4, 0
   18499:	63 4a fc ff 00 00 00 00	stxw [r10 - 4], r4
   18500:	bf a4 00 00 00 00 00 00	mov64 r4, r10
   18501:	07 04 00 00 fc ff ff ff	add64 r4, -4
   18502:	85 10 00 00 ff ff ff ff	call -1
   18503:	61 a0 fc ff 00 00 00 00	ldxw r0, [r10 - 4]
   18504:	05 00 02 00 00 00 00 00	ja +2 <custom_panic+0x18de0>
   18505:	1f 56 00 00 00 00 00 00	sub64 r6, r5
   18506:	bf 60 00 00 00 00 00 00	mov64 r0, r6
   18507:	67 00 00 00 20 00 00 00	lsh64 r0, 32
   18508:	c7 00 00 00 20 00 00 00	arsh64 r0, 32
   18509:	95 00 00 00 00 00 00 00	exit
   18510:	18 00 00 00 ff ff ff ff 00 00 00 00 00 00 00 00	lddw r0, 4294967295
   18512:	18 05 00 00 ff ff ff ff 00 00 00 00 ff ff ff 7f	lddw r5, 9223372036854775807
   18514:	bf 13 00 00 00 00 00 00	mov64 r3, r1
   18515:	5f 53 00 00 00 00 00 00	and64 r3, r5
   18516:	18 06 00 00 00 00 00 00 00 00 00 00 00 00 f0 7f	lddw r6, 9218868437227405312
   18518:	2d 63 16 00 00 00 00 00	jgt r3, r6, +22 <custom_panic+0x18ef0>
   18519:	bf 24 00 00 00 00 00 00	mov64 r4, r2
   18520:	5f 54 00 00 00 00 00 00	and64 r4, r5
   18521:	2d 64 13 00 00 00 00 00	jgt r4, r6, +19 <custom_panic+0x18ef0>
   18522:	4f 34 00 00 00 00 00 00	or64 r4, r3
   18523:	b7 00 00 00 00 00 00 00	mov64 r0, 0
   18524:	15 04 10 00 00 00 00 00	jeq r4, 0, +16 <custom_panic+0x18ef0>
   18525:	bf 23 00 00 00 00 00 00	mov64 r3, r2
   18526:	5f 13 00 00 00 00 00 00	and64 r3, r1
   18527:	65 03 06 00 ff ff ff ff	jsgt r3, -1, +6 <custom_panic+0x18eb8>
   18528:	18 00 00 00 ff ff ff ff 00 00 00 00 00 00 00 00	lddw r0, 4294967295
   18530:	6d 21 0a 00 00 00 00 00	jsgt r1, r2, +10 <custom_panic+0x18ef0>
   18531:	b7 00 00 00 01 00 00 00	mov64 r0, 1
   18532:	1d 21 07 00 00 00 00 00	jeq r1, r2, +7 <custom_panic+0x18ee8>
   18533:	05 00 07 00 00 00 00 00	ja +7 <custom_panic+0x18ef0>
   18534:	18 00 00 00 ff ff ff ff 00 00 00 00 00 00 00 00	lddw r0, 4294967295
   18536:	6d 12 04 00 00 00 00 00	jsgt r2, r1, +4 <custom_panic+0x18ef0>
   18537:	b7 00 00 00 01 00 00 00	mov64 r0, 1
   18538:	1d 21 01 00 00 00 00 00	jeq r1, r2, +1 <custom_panic+0x18ee8>
   18539:	05 00 01 00 00 00 00 00	ja +1 <custom_panic+0x18ef0>
   18540:	b7 00 00 00 00 00 00 00	mov64 r0, 0
   18541:	67 00 00 00 20 00 00 00	lsh64 r0, 32
   18542:	c7 00 00 00 20 00 00 00	arsh64 r0, 32
   18543:	95 00 00 00 00 00 00 00	exit
   18544:	18 00 00 00 ff ff ff ff 00 00 00 00 00 00 00 00	lddw r0, 4294967295
   18546:	18 05 00 00 ff ff ff ff 00 00 00 00 ff ff ff 7f	lddw r5, 9223372036854775807
   18548:	bf 13 00 00 00 00 00 00	mov64 r3, r1
   18549:	5f 53 00 00 00 00 00 00	and64 r3, r5
   18550:	18 06 00 00 00 00 00 00 00 00 00 00 00 00 f0 7f	lddw r6, 9218868437227405312
   18552:	2d 63 16 00 00 00 00 00	jgt r3, r6, +22 <custom_panic+0x19000>
   18553:	bf 24 00 00 00 00 00 00	mov64 r4, r2
   18554:	5f 54 00 00 00 00 00 00	and64 r4, r5
   18555:	2d 64 13 00 00 00 00 00	jgt r4, r6, +19 <custom_panic+0x19000>
   18556:	4f 34 00 00 00 00 00 00	or64 r4, r3
   18557:	b7 00 00 00 00 00 00 00	mov64 r0, 0
   18558:	15 04 10 00 00 00 00 00	jeq r4, 0, +16 <custom_panic+0x19000>
   18559:	bf 23 00 00 00 00 00 00	mov64 r3, r2
   18560:	5f 13 00 00 00 00 00 00	and64 r3, r1
   18561:	65 03 06 00 ff ff ff ff	jsgt r3, -1, +6 <custom_panic+0x18fc8>
   18562:	18 00 00 00 ff ff ff ff 00 00 00 00 00 00 00 00	lddw r0, 4294967295
   18564:	6d 21 0a 00 00 00 00 00	jsgt r1, r2, +10 <custom_panic+0x19000>
   18565:	b7 00 00 00 01 00 00 00	mov64 r0, 1
   18566:	1d 21 07 00 00 00 00 00	jeq r1, r2, +7 <custom_panic+0x18ff8>
   18567:	05 00 07 00 00 00 00 00	ja +7 <custom_panic+0x19000>
   18568:	18 00 00 00 ff ff ff ff 00 00 00 00 00 00 00 00	lddw r0, 4294967295
   18570:	6d 12 04 00 00 00 00 00	jsgt r2, r1, +4 <custom_panic+0x19000>
   18571:	b7 00 00 00 01 00 00 00	mov64 r0, 1
   18572:	1d 21 01 00 00 00 00 00	jeq r1, r2, +1 <custom_panic+0x18ff8>
   18573:	05 00 01 00 00 00 00 00	ja +1 <custom_panic+0x19000>
   18574:	b7 00 00 00 00 00 00 00	mov64 r0, 0
   18575:	67 00 00 00 20 00 00 00	lsh64 r0, 32
   18576:	c7 00 00 00 20 00 00 00	arsh64 r0, 32
   18577:	95 00 00 00 00 00 00 00	exit
   18578:	7b 3a e8 ff 00 00 00 00	stxdw [r10 - 24], r3
   18579:	7b 1a f0 ff 00 00 00 00	stxdw [r10 - 16], r1
   18580:	bf 21 00 00 00 00 00 00	mov64 r1, r2
   18581:	67 01 00 00 20 00 00 00	lsh64 r1, 32
   18582:	77 01 00 00 20 00 00 00	rsh64 r1, 32
   18583:	bf 47 00 00 00 00 00 00	mov64 r7, r4
   18584:	67 07 00 00 20 00 00 00	lsh64 r7, 32
   18585:	77 07 00 00 20 00 00 00	rsh64 r7, 32
   18586:	bf 40 00 00 00 00 00 00	mov64 r0, r4
   18587:	77 00 00 00 20 00 00 00	rsh64 r0, 32
   18588:	bf 73 00 00 00 00 00 00	mov64 r3, r7
   18589:	2f 13 00 00 00 00 00 00	mul64 r3, r1
   18590:	bf 08 00 00 00 00 00 00	mov64 r8, r0
   18591:	2f 18 00 00 00 00 00 00	mul64 r8, r1
   18592:	bf 26 00 00 00 00 00 00	mov64 r6, r2
   18593:	77 06 00 00 20 00 00 00	rsh64 r6, 32
   18594:	2f 67 00 00 00 00 00 00	mul64 r7, r6
   18595:	bf 79 00 00 00 00 00 00	mov64 r9, r7
   18596:	0f 89 00 00 00 00 00 00	add64 r9, r8
   18597:	b7 01 00 00 01 00 00 00	mov64 r1, 1
   18598:	7b 1a f8 ff 00 00 00 00	stxdw [r10 - 8], r1
   18599:	b7 08 00 00 01 00 00 00	mov64 r8, 1
   18600:	2d 97 01 00 00 00 00 00	jgt r7, r9, +1 <custom_panic+0x190d8>
   18601:	b7 08 00 00 00 00 00 00	mov64 r8, 0
   18602:	bf 91 00 00 00 00 00 00	mov64 r1, r9
   18603:	67 01 00 00 20 00 00 00	lsh64 r1, 32
   18604:	bf 37 00 00 00 00 00 00	mov64 r7, r3
   18605:	0f 17 00 00 00 00 00 00	add64 r7, r1
   18606:	2d 73 02 00 00 00 00 00	jgt r3, r7, +2 <custom_panic+0x19110>
   18607:	b7 01 00 00 00 00 00 00	mov64 r1, 0
   18608:	7b 1a f8 ff 00 00 00 00	stxdw [r10 - 8], r1
   18609:	79 a1 f0 ff 00 00 00 00	ldxdw r1, [r10 - 16]
   18610:	7b 71 00 00 00 00 00 00	stxdw [r1 + 0], r7
   18611:	77 09 00 00 20 00 00 00	rsh64 r9, 32
   18612:	67 08 00 00 20 00 00 00	lsh64 r8, 32
   18613:	4f 98 00 00 00 00 00 00	or64 r8, r9
   18614:	79 a3 e8 ff 00 00 00 00	ldxdw r3, [r10 - 24]
   18615:	2f 34 00 00 00 00 00 00	mul64 r4, r3
   18616:	2f 25 00 00 00 00 00 00	mul64 r5, r2
   18617:	2f 60 00 00 00 00 00 00	mul64 r0, r6
   18618:	0f 80 00 00 00 00 00 00	add64 r0, r8
   18619:	0f 45 00 00 00 00 00 00	add64 r5, r4
   18620:	79 a2 f8 ff 00 00 00 00	ldxdw r2, [r10 - 8]
   18621:	0f 20 00 00 00 00 00 00	add64 r0, r2
   18622:	0f 50 00 00 00 00 00 00	add64 r0, r5
   18623:	7b 01 08 00 00 00 00 00	stxdw [r1 + 8], r0
   18624:	95 00 00 00 00 00 00 00	exit
   18625:	85 10 00 00 01 00 00 00	call 1
   18626:	95 00 00 00 00 00 00 00	exit
   18627:	bf 26 00 00 00 00 00 00	mov64 r6, r2
   18628:	bf 63 00 00 00 00 00 00	mov64 r3, r6
   18629:	af 13 00 00 00 00 00 00	xor64 r3, r1
   18630:	18 02 00 00 00 00 00 00 00 00 00 00 00 00 00 80	lddw r2, -9223372036854775808
   18632:	5f 23 00 00 00 00 00 00	and64 r3, r2
   18633:	7b 3a e8 ff 00 00 00 00	stxdw [r10 - 24], r3
   18634:	18 05 00 00 ff ff ff ff 00 00 00 00 ff ff 0f 00	lddw r5, 4503599627370495
   18636:	bf 62 00 00 00 00 00 00	mov64 r2, r6
   18637:	5f 52 00 00 00 00 00 00	and64 r2, r5
   18638:	bf 14 00 00 00 00 00 00	mov64 r4, r1
   18639:	5f 54 00 00 00 00 00 00	and64 r4, r5
   18640:	bf 67 00 00 00 00 00 00	mov64 r7, r6
   18641:	77 07 00 00 34 00 00 00	rsh64 r7, 52
   18642:	57 07 00 00 ff 07 00 00	and64 r7, 2047
   18643:	bf 18 00 00 00 00 00 00	mov64 r8, r1
   18644:	77 08 00 00 34 00 00 00	rsh64 r8, 52
   18645:	57 08 00 00 ff 07 00 00	and64 r8, 2047
   18646:	bf 85 00 00 00 00 00 00	mov64 r5, r8
   18647:	07 05 00 00 ff ff ff ff	add64 r5, -1
   18648:	25 05 25 00 fd 07 00 00	jgt r5, 2045, +37 <custom_panic+0x19378>
   18649:	b7 09 00 00 00 00 00 00	mov64 r9, 0
   18650:	bf 75 00 00 00 00 00 00	mov64 r5, r7
   18651:	07 05 00 00 ff ff ff ff	add64 r5, -1
   18652:	25 05 21 00 fd 07 00 00	jgt r5, 2045, +33 <custom_panic+0x19378>
   18653:	67 02 00 00 0b 00 00 00	lsh64 r2, 11
   18654:	18 01 00 00 00 00 00 00 00 00 00 00 00 00 00 80	lddw r1, -9223372036854775808
   18656:	4f 12 00 00 00 00 00 00	or64 r2, r1
   18657:	18 06 00 00 00 00 00 00 00 00 00 00 00 00 10 00	lddw r6, 4503599627370496
   18659:	4f 64 00 00 00 00 00 00	or64 r4, r6
   18660:	bf a1 00 00 00 00 00 00	mov64 r1, r10
   18661:	07 01 00 00 f0 ff ff ff	add64 r1, -16
   18662:	b7 03 00 00 00 00 00 00	mov64 r3, 0
   18663:	b7 05 00 00 00 00 00 00	mov64 r5, 0
   18664:	85 10 00 00 a9 ff ff ff	call -87
   18665:	0f 87 00 00 00 00 00 00	add64 r7, r8
   18666:	0f 97 00 00 00 00 00 00	add64 r7, r9
   18667:	79 a2 f8 ff 00 00 00 00	ldxdw r2, [r10 - 8]
   18668:	bf 23 00 00 00 00 00 00	mov64 r3, r2
   18669:	5f 63 00 00 00 00 00 00	and64 r3, r6
   18670:	79 a1 f0 ff 00 00 00 00	ldxdw r1, [r10 - 16]
   18671:	15 03 01 00 00 00 00 00	jeq r3, 0, +1 <custom_panic+0x19310>
   18672:	05 00 1c 00 00 00 00 00	ja +28 <custom_panic+0x193f0>
   18673:	67 02 00 00 01 00 00 00	lsh64 r2, 1
   18674:	bf 13 00 00 00 00 00 00	mov64 r3, r1
   18675:	77 03 00 00 3f 00 00 00	rsh64 r3, 63
   18676:	4f 32 00 00 00 00 00 00	or64 r2, r3
   18677:	67 01 00 00 01 00 00 00	lsh64 r1, 1
   18678:	07 07 00 00 01 fc ff ff	add64 r7, -1023
   18679:	79 a0 e8 ff 00 00 00 00	ldxdw r0, [r10 - 24]
   18680:	65 07 01 00 fe 07 00 00	jsgt r7, 2046, +1 <custom_panic+0x19358>
   18681:	05 00 16 00 00 00 00 00	ja +22 <custom_panic+0x19408>
   18682:	18 01 00 00 00 00 00 00 00 00 00 00 00 00 f0 7f	lddw r1, 9218868437227405312
   18684:	4f 10 00 00 00 00 00 00	or64 r0, r1
   18685:	05 00 5d 00 00 00 00 00	ja +93 <custom_panic+0x19660>
   18686:	18 09 00 00 ff ff ff ff 00 00 00 00 ff ff ff 7f	lddw r9, 9223372036854775807
   18688:	bf 15 00 00 00 00 00 00	mov64 r5, r1
   18689:	5f 95 00 00 00 00 00 00	and64 r5, r9
   18690:	18 00 00 00 00 00 00 00 00 00 00 00 00 00 f0 7f	lddw r0, 9218868437227405312
   18692:	2d 05 13 00 00 00 00 00	jgt r5, r0, +19 <custom_panic+0x19448>
   18693:	bf 63 00 00 00 00 00 00	mov64 r3, r6
   18694:	5f 93 00 00 00 00 00 00	and64 r3, r9
   18695:	2d 03 01 00 00 00 00 00	jgt r3, r0, +1 <custom_panic+0x193d0>
   18696:	05 00 14 00 00 00 00 00	ja +20 <custom_panic+0x19470>
   18697:	18 01 00 00 00 00 00 00 00 00 00 00 00 00 08 00	lddw r1, 2251799813685248
   18699:	4f 16 00 00 00 00 00 00	or64 r6, r1
   18700:	05 00 19 00 00 00 00 00	ja +25 <custom_panic+0x194b8>
   18701:	07 07 00 00 02 fc ff ff	add64 r7, -1022
   18702:	79 a0 e8 ff 00 00 00 00	ldxdw r0, [r10 - 24]
   18703:	65 07 ea ff fe 07 00 00	jsgt r7, 2046, -22 <custom_panic+0x19358>
   18704:	b7 03 00 00 01 00 00 00	mov64 r3, 1
   18705:	6d 73 16 00 00 00 00 00	jsgt r3, r7, +22 <custom_panic+0x194c8>
   18706:	18 03 00 00 ff ff ff ff 00 00 00 00 ff ff 0f 00	lddw r3, 4503599627370495
   18708:	5f 32 00 00 00 00 00 00	and64 r2, r3
   18709:	67 07 00 00 34 00 00 00	lsh64 r7, 52
   18710:	4f 27 00 00 00 00 00 00	or64 r7, r2
   18711:	05 00 1e 00 00 00 00 00	ja +30 <custom_panic+0x19538>
   18712:	18 02 00 00 00 00 00 00 00 00 00 00 00 00 08 00	lddw r2, 2251799813685248
   18714:	4f 21 00 00 00 00 00 00	or64 r1, r2
   18715:	bf 10 00 00 00 00 00 00	mov64 r0, r1
   18716:	05 00 3e 00 00 00 00 00	ja +62 <custom_panic+0x19660>
   18717:	1d 05 01 00 00 00 00 00	jeq r5, r0, +1 <custom_panic+0x19480>
   18718:	05 00 27 00 00 00 00 00	ja +39 <custom_panic+0x195b8>
   18719:	18 00 00 00 00 00 00 00 00 00 00 00 00 00 f8 7f	lddw r0, 9221120237041090560
   18721:	15 03 39 00 00 00 00 00	jeq r3, 0, +57 <custom_panic+0x19660>
   18722:	18 02 00 00 00 00 00 00 00 00 00 00 00 00 00 80	lddw r2, -9223372036854775808
   18724:	5f 26 00 00 00 00 00 00	and64 r6, r2
   18725:	af 16 00 00 00 00 00 00	xor64 r6, r1
   18726:	bf 60 00 00 00 00 00 00	mov64 r0, r6
   18727:	05 00 33 00 00 00 00 00	ja +51 <custom_panic+0x19660>
   18728:	1f 73 00 00 00 00 00 00	sub64 r3, r7
   18729:	25 03 31 00 3f 00 00 00	jgt r3, 63, +49 <custom_panic+0x19660>
   18730:	07 07 00 00 ff ff ff ff	add64 r7, -1
   18731:	57 07 00 00 3f 00 00 00	and64 r7, 63
   18732:	bf 14 00 00 00 00 00 00	mov64 r4, r1
   18733:	4f 24 00 00 00 00 00 00	or64 r4, r2
   18734:	6f 74 00 00 00 00 00 00	lsh64 r4, r7
   18735:	67 03 00 00 20 00 00 00	lsh64 r3, 32
   18736:	77 03 00 00 20 00 00 00	rsh64 r3, 32
   18737:	7f 31 00 00 00 00 00 00	rsh64 r1, r3
   18738:	4f 14 00 00 00 00 00 00	or64 r4, r1
   18739:	7f 32 00 00 00 00 00 00	rsh64 r2, r3
   18740:	bf 41 00 00 00 00 00 00	mov64 r1, r4
   18741:	bf 27 00 00 00 00 00 00	mov64 r7, r2
   18742:	bf 72 00 00 00 00 00 00	mov64 r2, r7
   18743:	4f 02 00 00 00 00 00 00	or64 r2, r0
   18744:	18 03 00 00 00 00 00 00 00 00 00 00 00 00 00 80	lddw r3, -9223372036854775808
   18746:	2d 31 01 00 00 00 00 00	jgt r1, r3, +1 <custom_panic+0x19568>
   18747:	05 00 03 00 00 00 00 00	ja +3 <custom_panic+0x19580>
   18748:	07 02 00 00 01 00 00 00	add64 r2, 1
   18749:	bf 20 00 00 00 00 00 00	mov64 r0, r2
   18750:	05 00 1c 00 00 00 00 00	ja +28 <custom_panic+0x19660>
   18751:	bf 20 00 00 00 00 00 00	mov64 r0, r2
   18752:	1d 31 01 00 00 00 00 00	jeq r1, r3, +1 <custom_panic+0x19598>
   18753:	05 00 19 00 00 00 00 00	ja +25 <custom_panic+0x19660>
   18754:	57 07 00 00 01 00 00 00	and64 r7, 1
   18755:	0f 72 00 00 00 00 00 00	add64 r2, r7
   18756:	bf 20 00 00 00 00 00 00	mov64 r0, r2
   18757:	05 00 15 00 00 00 00 00	ja +21 <custom_panic+0x19660>
   18758:	1d 03 01 00 00 00 00 00	jeq r3, r0, +1 <custom_panic+0x195c8>
   18759:	05 00 09 00 00 00 00 00	ja +9 <custom_panic+0x19610>
   18760:	18 00 00 00 00 00 00 00 00 00 00 00 00 00 f8 7f	lddw r0, 9221120237041090560
   18762:	15 05 10 00 00 00 00 00	jeq r5, 0, +16 <custom_panic+0x19660>
   18763:	18 02 00 00 00 00 00 00 00 00 00 00 00 00 00 80	lddw r2, -9223372036854775808
   18765:	5f 21 00 00 00 00 00 00	and64 r1, r2
   18766:	af 61 00 00 00 00 00 00	xor64 r1, r6
   18767:	bf 10 00 00 00 00 00 00	mov64 r0, r1
   18768:	05 00 0a 00 00 00 00 00	ja +10 <custom_panic+0x19660>
   18769:	79 a0 e8 ff 00 00 00 00	ldxdw r0, [r10 - 24]
   18770:	15 05 08 00 00 00 00 00	jeq r5, 0, +8 <custom_panic+0x19660>
   18771:	15 03 07 00 00 00 00 00	jeq r3, 0, +7 <custom_panic+0x19660>
   18772:	bf 36 00 00 00 00 00 00	mov64 r6, r3
   18773:	b7 09 00 00 00 00 00 00	mov64 r9, 0
   18774:	18 01 00 00 00 00 00 00 00 00 00 00 00 00 10 00	lddw r1, 4503599627370496
   18776:	2d 51 03 00 00 00 00 00	jgt r1, r5, +3 <custom_panic+0x19668>
   18777:	2d 61 36 00 00 00 00 00	jgt r1, r6, +54 <custom_panic+0x19808>
   18778:	05 00 82 ff 00 00 00 00	ja -126 <custom_panic+0x19270>
   18779:	95 00 00 00 00 00 00 00	exit
   18780:	b7 00 00 00 40 00 00 00	mov64 r0, 64
   18781:	15 04 2b 00 00 00 00 00	jeq r4, 0, +43 <custom_panic+0x197d0>
   18782:	bf 45 00 00 00 00 00 00	mov64 r5, r4
   18783:	77 05 00 00 01 00 00 00	rsh64 r5, 1
   18784:	bf 43 00 00 00 00 00 00	mov64 r3, r4
   18785:	4f 53 00 00 00 00 00 00	or64 r3, r5
   18786:	bf 35 00 00 00 00 00 00	mov64 r5, r3
   18787:	77 05 00 00 02 00 00 00	rsh64 r5, 2
   18788:	4f 53 00 00 00 00 00 00	or64 r3, r5
   18789:	bf 35 00 00 00 00 00 00	mov64 r5, r3
   18790:	77 05 00 00 04 00 00 00	rsh64 r5, 4
   18791:	4f 53 00 00 00 00 00 00	or64 r3, r5
   18792:	bf 35 00 00 00 00 00 00	mov64 r5, r3
   18793:	77 05 00 00 08 00 00 00	rsh64 r5, 8
   18794:	4f 53 00 00 00 00 00 00	or64 r3, r5
   18795:	bf 35 00 00 00 00 00 00	mov64 r5, r3
   18796:	77 05 00 00 10 00 00 00	rsh64 r5, 16
   18797:	4f 53 00 00 00 00 00 00	or64 r3, r5
   18798:	bf 35 00 00 00 00 00 00	mov64 r5, r3
   18799:	77 05 00 00 20 00 00 00	rsh64 r5, 32
   18800:	4f 53 00 00 00 00 00 00	or64 r3, r5
   18801:	a7 03 00 00 ff ff ff ff	xor64 r3, -1
   18802:	18 05 00 00 55 55 55 55 00 00 00 00 55 55 55 55	lddw r5, 6148914691236517205
   18804:	bf 30 00 00 00 00 00 00	mov64 r0, r3
   18805:	77 00 00 00 01 00 00 00	rsh64 r0, 1
   18806:	5f 50 00 00 00 00 00 00	and64 r0, r5
   18807:	1f 03 00 00 00 00 00 00	sub64 r3, r0
   18808:	18 05 00 00 33 33 33 33 00 00 00 00 33 33 33 33	lddw r5, 3689348814741910323
   18810:	bf 30 00 00 00 00 00 00	mov64 r0, r3
   18811:	5f 50 00 00 00 00 00 00	and64 r0, r5
   18812:	77 03 00 00 02 00 00 00	rsh64 r3, 2
   18813:	5f 53 00 00 00 00 00 00	and64 r3, r5
   18814:	0f 30 00 00 00 00 00 00	add64 r0, r3
   18815:	bf 03 00 00 00 00 00 00	mov64 r3, r0
   18816:	77 03 00 00 04 00 00 00	rsh64 r3, 4
   18817:	0f 30 00 00 00 00 00 00	add64 r0, r3
   18818:	18 03 00 00 0f 0f 0f 0f 00 00 00 00 0f 0f 0f 0f	lddw r3, 1085102592571150095
   18820:	5f 30 00 00 00 00 00 00	and64 r0, r3
   18821:	18 03 00 00 01 01 01 01 00 00 00 00 01 01 01 01	lddw r3, 72340172838076673
   18823:	2f 30 00 00 00 00 00 00	mul64 r0, r3
   18824:	77 00 00 00 38 00 00 00	rsh64 r0, 56
   18825:	b7 09 00 00 0c 00 00 00	mov64 r9, 12
   18826:	1f 09 00 00 00 00 00 00	sub64 r9, r0
   18827:	07 00 00 00 35 00 00 00	add64 r0, 53
   18828:	57 00 00 00 3f 00 00 00	and64 r0, 63
   18829:	6f 04 00 00 00 00 00 00	lsh64 r4, r0
   18830:	2d 61 01 00 00 00 00 00	jgt r1, r6, +1 <custom_panic+0x19808>
   18831:	05 00 4d ff 00 00 00 00	ja -179 <custom_panic+0x19270>
   18832:	b7 03 00 00 40 00 00 00	mov64 r3, 64
   18833:	15 02 2b 00 00 00 00 00	jeq r2, 0, +43 <custom_panic+0x19970>
   18834:	bf 23 00 00 00 00 00 00	mov64 r3, r2
   18835:	77 03 00 00 01 00 00 00	rsh64 r3, 1
   18836:	bf 21 00 00 00 00 00 00	mov64 r1, r2
   18837:	4f 31 00 00 00 00 00 00	or64 r1, r3
   18838:	bf 13 00 00 00 00 00 00	mov64 r3, r1
   18839:	77 03 00 00 02 00 00 00	rsh64 r3, 2
   18840:	4f 31 00 00 00 00 00 00	or64 r1, r3
   18841:	bf 13 00 00 00 00 00 00	mov64 r3, r1
   18842:	77 03 00 00 04 00 00 00	rsh64 r3, 4
   18843:	4f 31 00 00 00 00 00 00	or64 r1, r3
   18844:	bf 13 00 00 00 00 00 00	mov64 r3, r1
   18845:	77 03 00 00 08 00 00 00	rsh64 r3, 8
   18846:	4f 31 00 00 00 00 00 00	or64 r1, r3
   18847:	bf 13 00 00 00 00 00 00	mov64 r3, r1
   18848:	77 03 00 00 10 00 00 00	rsh64 r3, 16
   18849:	4f 31 00 00 00 00 00 00	or64 r1, r3
   18850:	bf 13 00 00 00 00 00 00	mov64 r3, r1
   18851:	77 03 00 00 20 00 00 00	rsh64 r3, 32
   18852:	4f 31 00 00 00 00 00 00	or64 r1, r3
   18853:	a7 01 00 00 ff ff ff ff	xor64 r1, -1
   18854:	18 03 00 00 55 55 55 55 00 00 00 00 55 55 55 55	lddw r3, 6148914691236517205
   18856:	bf 15 00 00 00 00 00 00	mov64 r5, r1
   18857:	77 05 00 00 01 00 00 00	rsh64 r5, 1
   18858:	5f 35 00 00 00 00 00 00	and64 r5, r3
   18859:	1f 51 00 00 00 00 00 00	sub64 r1, r5
   18860:	18 05 00 00 33 33 33 33 00 00 00 00 33 33 33 33	lddw r5, 3689348814741910323
   18862:	bf 13 00 00 00 00 00 00	mov64 r3, r1
   18863:	5f 53 00 00 00 00 00 00	and64 r3, r5
   18864:	77 01 00 00 02 00 00 00	rsh64 r1, 2
   18865:	5f 51 00 00 00 00 00 00	and64 r1, r5
   18866:	0f 13 00 00 00 00 00 00	add64 r3, r1
   18867:	bf 31 00 00 00 00 00 00	mov64 r1, r3
   18868:	77 01 00 00 04 00 00 00	rsh64 r1, 4
   18869:	0f 13 00 00 00 00 00 00	add64 r3, r1
   18870:	18 01 00 00 0f 0f 0f 0f 00 00 00 00 0f 0f 0f 0f	lddw r1, 1085102592571150095
   18872:	5f 13 00 00 00 00 00 00	and64 r3, r1
   18873:	18 01 00 00 01 01 01 01 00 00 00 00 01 01 01 01	lddw r1, 72340172838076673
   18875:	2f 13 00 00 00 00 00 00	mul64 r3, r1
   18876:	77 03 00 00 38 00 00 00	rsh64 r3, 56
   18877:	1f 39 00 00 00 00 00 00	sub64 r9, r3
   18878:	07 03 00 00 35 00 00 00	add64 r3, 53
   18879:	57 03 00 00 3f 00 00 00	and64 r3, 63
   18880:	6f 32 00 00 00 00 00 00	lsh64 r2, r3
   18881:	07 09 00 00 0c 00 00 00	add64 r9, 12
   18882:	05 00 1a ff 00 00 00 00	ja -230 <custom_panic+0x19270>
   18883:	b7 00 00 00 00 00 00 00	mov64 r0, 0
   18884:	15 01 3c 00 00 00 00 00	jeq r1, 0, +60 <custom_panic+0x19b90>
   18885:	bf 13 00 00 00 00 00 00	mov64 r3, r1
   18886:	77 03 00 00 01 00 00 00	rsh64 r3, 1
   18887:	bf 12 00 00 00 00 00 00	mov64 r2, r1
   18888:	4f 32 00 00 00 00 00 00	or64 r2, r3
   18889:	bf 23 00 00 00 00 00 00	mov64 r3, r2
   18890:	77 03 00 00 02 00 00 00	rsh64 r3, 2
   18891:	4f 32 00 00 00 00 00 00	or64 r2, r3
   18892:	bf 23 00 00 00 00 00 00	mov64 r3, r2
   18893:	77 03 00 00 04 00 00 00	rsh64 r3, 4
   18894:	4f 32 00 00 00 00 00 00	or64 r2, r3
   18895:	bf 23 00 00 00 00 00 00	mov64 r3, r2
   18896:	77 03 00 00 08 00 00 00	rsh64 r3, 8
   18897:	4f 32 00 00 00 00 00 00	or64 r2, r3
   18898:	bf 23 00 00 00 00 00 00	mov64 r3, r2
   18899:	77 03 00 00 10 00 00 00	rsh64 r3, 16
   18900:	4f 32 00 00 00 00 00 00	or64 r2, r3
   18901:	bf 23 00 00 00 00 00 00	mov64 r3, r2
   18902:	77 03 00 00 20 00 00 00	rsh64 r3, 32
   18903:	4f 32 00 00 00 00 00 00	or64 r2, r3
   18904:	a7 02 00 00 ff ff ff ff	xor64 r2, -1
   18905:	18 03 00 00 55 55 55 55 00 00 00 00 55 55 55 55	lddw r3, 6148914691236517205
   18907:	bf 24 00 00 00 00 00 00	mov64 r4, r2
   18908:	77 04 00 00 01 00 00 00	rsh64 r4, 1
   18909:	5f 34 00 00 00 00 00 00	and64 r4, r3
   18910:	1f 42 00 00 00 00 00 00	sub64 r2, r4
   18911:	18 04 00 00 33 33 33 33 00 00 00 00 33 33 33 33	lddw r4, 3689348814741910323
   18913:	bf 23 00 00 00 00 00 00	mov64 r3, r2
   18914:	5f 43 00 00 00 00 00 00	and64 r3, r4
   18915:	77 02 00 00 02 00 00 00	rsh64 r2, 2
   18916:	5f 42 00 00 00 00 00 00	and64 r2, r4
   18917:	0f 23 00 00 00 00 00 00	add64 r3, r2
   18918:	bf 32 00 00 00 00 00 00	mov64 r2, r3
   18919:	77 02 00 00 04 00 00 00	rsh64 r2, 4
   18920:	0f 23 00 00 00 00 00 00	add64 r3, r2
   18921:	18 02 00 00 0f 0f 0f 0f 00 00 00 00 0f 0f 0f 0f	lddw r2, 1085102592571150095
   18923:	5f 23 00 00 00 00 00 00	and64 r3, r2
   18924:	18 02 00 00 01 01 01 01 00 00 00 00 01 01 01 01	lddw r2, 72340172838076673
   18926:	2f 23 00 00 00 00 00 00	mul64 r3, r2
   18927:	77 03 00 00 38 00 00 00	rsh64 r3, 56
   18928:	6f 31 00 00 00 00 00 00	lsh64 r1, r3
   18929:	67 03 00 00 34 00 00 00	lsh64 r3, 52
   18930:	bf 12 00 00 00 00 00 00	mov64 r2, r1
   18931:	77 02 00 00 0b 00 00 00	rsh64 r2, 11
   18932:	bf 20 00 00 00 00 00 00	mov64 r0, r2
   18933:	1f 30 00 00 00 00 00 00	sub64 r0, r3
   18934:	a7 02 00 00 ff ff ff ff	xor64 r2, -1
   18935:	67 01 00 00 35 00 00 00	lsh64 r1, 53
   18936:	bf 13 00 00 00 00 00 00	mov64 r3, r1
   18937:	77 03 00 00 3f 00 00 00	rsh64 r3, 63
   18938:	5f 23 00 00 00 00 00 00	and64 r3, r2
   18939:	1f 31 00 00 00 00 00 00	sub64 r1, r3
   18940:	77 01 00 00 3f 00 00 00	rsh64 r1, 63
   18941:	0f 10 00 00 00 00 00 00	add64 r0, r1
   18942:	18 01 00 00 00 00 00 00 00 00 00 00 00 00 d0 43	lddw r1, 4886405595696988160
   18944:	0f 10 00 00 00 00 00 00	add64 r0, r1
   18945:	95 00 00 00 00 00 00 00	exit
   18946:	b7 00 00 00 00 00 00 00	mov64 r0, 0
   18947:	18 02 00 00 00 00 00 00 00 00 00 00 00 00 f0 3f	lddw r2, 4607182418800017408
   18949:	2d 12 13 00 00 00 00 00	jgt r2, r1, +19 <custom_panic+0x19c50>
   18950:	18 02 00 00 00 00 00 00 00 00 00 00 00 00 f0 43	lddw r2, 4895412794951729152
   18952:	2d 12 06 00 00 00 00 00	jgt r2, r1, +6 <custom_panic+0x19c00>
   18953:	b7 00 00 00 ff ff ff ff	mov64 r0, -1
   18954:	18 02 00 00 01 00 00 00 00 00 00 00 00 00 f0 7f	lddw r2, 9218868437227405313
   18956:	2d 12 0c 00 00 00 00 00	jgt r2, r1, +12 <custom_panic+0x19c50>
   18957:	b7 00 00 00 00 00 00 00	mov64 r0, 0
   18958:	05 00 0a 00 00 00 00 00	ja +10 <custom_panic+0x19c50>
   18959:	bf 10 00 00 00 00 00 00	mov64 r0, r1
   18960:	67 00 00 00 0b 00 00 00	lsh64 r0, 11
   18961:	18 02 00 00 00 00 00 00 00 00 00 00 00 00 00 80	lddw r2, -9223372036854775808
   18963:	4f 20 00 00 00 00 00 00	or64 r0, r2
   18964:	77 01 00 00 34 00 00 00	rsh64 r1, 52
   18965:	b7 02 00 00 3e 00 00 00	mov64 r2, 62
   18966:	1f 12 00 00 00 00 00 00	sub64 r2, r1
   18967:	57 02 00 00 3f 00 00 00	and64 r2, 63
   18968:	7f 20 00 00 00 00 00 00	rsh64 r0, r2
   18969:	95 00 00 00 00 00 00 00	exit
